ARM GAS  C:\Users\cedri\AppData\Local\Temp\ccZqcsPj.s 			page 1


   1              		.cpu cortex-m3
   2              		.arch armv7-m
   3              		.fpu softvfp
   4              		.eabi_attribute 20, 1
   5              		.eabi_attribute 21, 1
   6              		.eabi_attribute 23, 3
   7              		.eabi_attribute 24, 1
   8              		.eabi_attribute 25, 1
   9              		.eabi_attribute 26, 1
  10              		.eabi_attribute 30, 1
  11              		.eabi_attribute 34, 1
  12              		.eabi_attribute 18, 4
  13              		.file	"main.c"
  14              		.text
  15              	.Ltext0:
  16              		.cfi_sections	.debug_frame
  17              		.section	.text.MX_GPIO_Init,"ax",%progbits
  18              		.align	1
  19              		.syntax unified
  20              		.thumb
  21              		.thumb_func
  23              	MX_GPIO_Init:
  24              	.LFB83:
  25              		.file 1 "Core/Src/main.c"
   1:Core/Src/main.c **** /* USER CODE BEGIN Header */
   2:Core/Src/main.c **** /**
   3:Core/Src/main.c ****   ******************************************************************************
   4:Core/Src/main.c ****   * @file           : main.c
   5:Core/Src/main.c ****   * @brief          : Main program body
   6:Core/Src/main.c ****   ******************************************************************************
   7:Core/Src/main.c ****   * @attention
   8:Core/Src/main.c ****   *
   9:Core/Src/main.c ****   * Copyright (c) 2023 STMicroelectronics.
  10:Core/Src/main.c ****   * All rights reserved.
  11:Core/Src/main.c ****   *
  12:Core/Src/main.c ****   * This software is licensed under terms that can be found in the LICENSE file
  13:Core/Src/main.c ****   * in the root directory of this software component.
  14:Core/Src/main.c ****   * If no LICENSE file comes with this software, it is provided AS-IS.
  15:Core/Src/main.c ****   *
  16:Core/Src/main.c ****   ******************************************************************************
  17:Core/Src/main.c ****   */
  18:Core/Src/main.c **** /* USER CODE END Header */
  19:Core/Src/main.c **** /* Includes ------------------------------------------------------------------*/
  20:Core/Src/main.c **** #include "main.h"
  21:Core/Src/main.c **** 
  22:Core/Src/main.c **** /* Private includes ----------------------------------------------------------*/
  23:Core/Src/main.c **** /* USER CODE BEGIN Includes */
  24:Core/Src/main.c **** #include <stdio.h>
  25:Core/Src/main.c **** #include <stdbool.h>
  26:Core/Src/main.c **** /* USER CODE END Includes */
  27:Core/Src/main.c **** 
  28:Core/Src/main.c **** /* Private typedef -----------------------------------------------------------*/
  29:Core/Src/main.c **** /* USER CODE BEGIN PTD */
  30:Core/Src/main.c **** 
  31:Core/Src/main.c **** /* USER CODE END PTD */
  32:Core/Src/main.c **** 
  33:Core/Src/main.c **** /* Private define ------------------------------------------------------------*/
ARM GAS  C:\Users\cedri\AppData\Local\Temp\ccZqcsPj.s 			page 2


  34:Core/Src/main.c **** /* USER CODE BEGIN PD */
  35:Core/Src/main.c **** #define UI 1 
  36:Core/Src/main.c **** #define BUFFER_SIZE 10
  37:Core/Src/main.c **** #define PI 3
  38:Core/Src/main.c **** #define DELAY_DEBOUNCE 300
  39:Core/Src/main.c **** #define SEED 1234
  40:Core/Src/main.c **** /* USER CODE END PD */
  41:Core/Src/main.c **** 
  42:Core/Src/main.c **** /* Private macro -------------------------------------------------------------*/
  43:Core/Src/main.c **** /* USER CODE BEGIN PM */
  44:Core/Src/main.c **** 
  45:Core/Src/main.c **** /* USER CODE END PM */
  46:Core/Src/main.c **** 
  47:Core/Src/main.c **** /* Private variables ---------------------------------------------------------*/
  48:Core/Src/main.c **** ADC_HandleTypeDef hadc;
  49:Core/Src/main.c **** DMA_HandleTypeDef hdma_adc;
  50:Core/Src/main.c **** 
  51:Core/Src/main.c **** TIM_HandleTypeDef htim2;
  52:Core/Src/main.c **** TIM_HandleTypeDef htim9;
  53:Core/Src/main.c **** TIM_HandleTypeDef htim11;
  54:Core/Src/main.c **** 
  55:Core/Src/main.c **** UART_HandleTypeDef huart2;
  56:Core/Src/main.c **** 
  57:Core/Src/main.c **** /* USER CODE BEGIN PV */
  58:Core/Src/main.c **** uint16_t adcData[2];
  59:Core/Src/main.c **** uint32_t buttonElapsed[4] = {0,0,0,0};
  60:Core/Src/main.c **** uint32_t seed;
  61:Core/Src/main.c **** bool seedInitialized = false;
  62:Core/Src/main.c **** /* USER CODE END PV */
  63:Core/Src/main.c **** 
  64:Core/Src/main.c **** /* Private function prototypes -----------------------------------------------*/
  65:Core/Src/main.c **** void SystemClock_Config(void);
  66:Core/Src/main.c **** static void MX_GPIO_Init(void);
  67:Core/Src/main.c **** static void MX_DMA_Init(void);
  68:Core/Src/main.c **** static void MX_USART2_UART_Init(void);
  69:Core/Src/main.c **** static void MX_ADC_Init(void);
  70:Core/Src/main.c **** static void MX_TIM2_Init(void);
  71:Core/Src/main.c **** static void MX_TIM9_Init(void);
  72:Core/Src/main.c **** static void MX_TIM11_Init(void);
  73:Core/Src/main.c **** /* USER CODE BEGIN PFP */
  74:Core/Src/main.c **** void ledUpdate(uint16_t adcValue, TIM_HandleTypeDef *htim, uint32_t Channel);
  75:Core/Src/main.c **** /* USER CODE END PFP */
  76:Core/Src/main.c **** 
  77:Core/Src/main.c **** /* Private user code ---------------------------------------------------------*/
  78:Core/Src/main.c **** /* USER CODE BEGIN 0 */
  79:Core/Src/main.c **** 
  80:Core/Src/main.c **** /* USER CODE END 0 */
  81:Core/Src/main.c **** 
  82:Core/Src/main.c **** /**
  83:Core/Src/main.c ****   * @brief  The application entry point.
  84:Core/Src/main.c ****   * @retval int
  85:Core/Src/main.c ****   */
  86:Core/Src/main.c **** int main(void)
  87:Core/Src/main.c **** {
  88:Core/Src/main.c ****   /* USER CODE BEGIN 1 */
  89:Core/Src/main.c **** 
  90:Core/Src/main.c ****   /* USER CODE END 1 */
ARM GAS  C:\Users\cedri\AppData\Local\Temp\ccZqcsPj.s 			page 3


  91:Core/Src/main.c **** 
  92:Core/Src/main.c ****   /* MCU Configuration--------------------------------------------------------*/
  93:Core/Src/main.c **** 
  94:Core/Src/main.c ****   /* Reset of all peripherals, Initializes the Flash interface and the Systick. */
  95:Core/Src/main.c ****   HAL_Init();
  96:Core/Src/main.c **** 
  97:Core/Src/main.c ****   /* USER CODE BEGIN Init */
  98:Core/Src/main.c **** 
  99:Core/Src/main.c ****   /* USER CODE END Init */
 100:Core/Src/main.c **** 
 101:Core/Src/main.c ****   /* Configure the system clock */
 102:Core/Src/main.c ****   SystemClock_Config();
 103:Core/Src/main.c **** 
 104:Core/Src/main.c ****   /* USER CODE BEGIN SysInit */
 105:Core/Src/main.c **** 
 106:Core/Src/main.c ****   /* USER CODE END SysInit */
 107:Core/Src/main.c **** 
 108:Core/Src/main.c ****   /* Initialize all configured peripherals */
 109:Core/Src/main.c ****   MX_GPIO_Init();
 110:Core/Src/main.c ****   MX_DMA_Init();
 111:Core/Src/main.c ****   MX_USART2_UART_Init();
 112:Core/Src/main.c ****   MX_ADC_Init();
 113:Core/Src/main.c ****   MX_TIM2_Init();
 114:Core/Src/main.c ****   MX_TIM9_Init();
 115:Core/Src/main.c ****   MX_TIM11_Init();
 116:Core/Src/main.c ****   /* USER CODE BEGIN 2 */
 117:Core/Src/main.c ****   HAL_TIM_Base_Start_IT(&htim2);
 118:Core/Src/main.c ****   HAL_TIM_PWM_Start(&htim11, TIM_CHANNEL_1);
 119:Core/Src/main.c ****   HAL_TIM_PWM_Start(&htim9, TIM_CHANNEL_2);
 120:Core/Src/main.c ****   printf("Starting\r\n");
 121:Core/Src/main.c ****   /* USER CODE END 2 */
 122:Core/Src/main.c **** 
 123:Core/Src/main.c ****   /* Infinite loop */
 124:Core/Src/main.c ****   /* USER CODE BEGIN WHILE */
 125:Core/Src/main.c ****   while (1)
 126:Core/Src/main.c ****   {
 127:Core/Src/main.c ****     /* USER CODE END WHILE */
 128:Core/Src/main.c **** 
 129:Core/Src/main.c ****     /* USER CODE BEGIN 3 */
 130:Core/Src/main.c ****   }
 131:Core/Src/main.c ****   /* USER CODE END 3 */
 132:Core/Src/main.c **** }
 133:Core/Src/main.c **** 
 134:Core/Src/main.c **** /**
 135:Core/Src/main.c ****   * @brief System Clock Configuration
 136:Core/Src/main.c ****   * @retval None
 137:Core/Src/main.c ****   */
 138:Core/Src/main.c **** void SystemClock_Config(void)
 139:Core/Src/main.c **** {
 140:Core/Src/main.c ****   RCC_OscInitTypeDef RCC_OscInitStruct = {0};
 141:Core/Src/main.c ****   RCC_ClkInitTypeDef RCC_ClkInitStruct = {0};
 142:Core/Src/main.c **** 
 143:Core/Src/main.c ****   /** Configure the main internal regulator output voltage
 144:Core/Src/main.c ****   */
 145:Core/Src/main.c ****   __HAL_PWR_VOLTAGESCALING_CONFIG(PWR_REGULATOR_VOLTAGE_SCALE1);
 146:Core/Src/main.c **** 
 147:Core/Src/main.c ****   /** Initializes the RCC Oscillators according to the specified parameters
ARM GAS  C:\Users\cedri\AppData\Local\Temp\ccZqcsPj.s 			page 4


 148:Core/Src/main.c ****   * in the RCC_OscInitTypeDef structure.
 149:Core/Src/main.c ****   */
 150:Core/Src/main.c ****   RCC_OscInitStruct.OscillatorType = RCC_OSCILLATORTYPE_HSI;
 151:Core/Src/main.c ****   RCC_OscInitStruct.HSIState = RCC_HSI_ON;
 152:Core/Src/main.c ****   RCC_OscInitStruct.HSICalibrationValue = RCC_HSICALIBRATION_DEFAULT;
 153:Core/Src/main.c ****   RCC_OscInitStruct.PLL.PLLState = RCC_PLL_ON;
 154:Core/Src/main.c ****   RCC_OscInitStruct.PLL.PLLSource = RCC_PLLSOURCE_HSI;
 155:Core/Src/main.c ****   RCC_OscInitStruct.PLL.PLLMUL = RCC_PLL_MUL6;
 156:Core/Src/main.c ****   RCC_OscInitStruct.PLL.PLLDIV = RCC_PLL_DIV3;
 157:Core/Src/main.c ****   if (HAL_RCC_OscConfig(&RCC_OscInitStruct) != HAL_OK)
 158:Core/Src/main.c ****   {
 159:Core/Src/main.c ****     Error_Handler();
 160:Core/Src/main.c ****   }
 161:Core/Src/main.c **** 
 162:Core/Src/main.c ****   /** Initializes the CPU, AHB and APB buses clocks
 163:Core/Src/main.c ****   */
 164:Core/Src/main.c ****   RCC_ClkInitStruct.ClockType = RCC_CLOCKTYPE_HCLK|RCC_CLOCKTYPE_SYSCLK
 165:Core/Src/main.c ****                               |RCC_CLOCKTYPE_PCLK1|RCC_CLOCKTYPE_PCLK2;
 166:Core/Src/main.c ****   RCC_ClkInitStruct.SYSCLKSource = RCC_SYSCLKSOURCE_PLLCLK;
 167:Core/Src/main.c ****   RCC_ClkInitStruct.AHBCLKDivider = RCC_SYSCLK_DIV1;
 168:Core/Src/main.c ****   RCC_ClkInitStruct.APB1CLKDivider = RCC_HCLK_DIV1;
 169:Core/Src/main.c ****   RCC_ClkInitStruct.APB2CLKDivider = RCC_HCLK_DIV1;
 170:Core/Src/main.c **** 
 171:Core/Src/main.c ****   if (HAL_RCC_ClockConfig(&RCC_ClkInitStruct, FLASH_LATENCY_1) != HAL_OK)
 172:Core/Src/main.c ****   {
 173:Core/Src/main.c ****     Error_Handler();
 174:Core/Src/main.c ****   }
 175:Core/Src/main.c **** }
 176:Core/Src/main.c **** 
 177:Core/Src/main.c **** /**
 178:Core/Src/main.c ****   * @brief ADC Initialization Function
 179:Core/Src/main.c ****   * @param None
 180:Core/Src/main.c ****   * @retval None
 181:Core/Src/main.c ****   */
 182:Core/Src/main.c **** static void MX_ADC_Init(void)
 183:Core/Src/main.c **** {
 184:Core/Src/main.c **** 
 185:Core/Src/main.c ****   /* USER CODE BEGIN ADC_Init 0 */
 186:Core/Src/main.c **** 
 187:Core/Src/main.c ****   /* USER CODE END ADC_Init 0 */
 188:Core/Src/main.c **** 
 189:Core/Src/main.c ****   ADC_ChannelConfTypeDef sConfig = {0};
 190:Core/Src/main.c **** 
 191:Core/Src/main.c ****   /* USER CODE BEGIN ADC_Init 1 */
 192:Core/Src/main.c **** 
 193:Core/Src/main.c ****   /* USER CODE END ADC_Init 1 */
 194:Core/Src/main.c **** 
 195:Core/Src/main.c ****   /** Configure the global features of the ADC (Clock, Resolution, Data Alignment and number of con
 196:Core/Src/main.c ****   */
 197:Core/Src/main.c ****   hadc.Instance = ADC1;
 198:Core/Src/main.c ****   hadc.Init.ClockPrescaler = ADC_CLOCK_ASYNC_DIV1;
 199:Core/Src/main.c ****   hadc.Init.Resolution = ADC_RESOLUTION_12B;
 200:Core/Src/main.c ****   hadc.Init.DataAlign = ADC_DATAALIGN_RIGHT;
 201:Core/Src/main.c ****   hadc.Init.ScanConvMode = ADC_SCAN_ENABLE;
 202:Core/Src/main.c ****   hadc.Init.EOCSelection = ADC_EOC_SEQ_CONV;
 203:Core/Src/main.c ****   hadc.Init.LowPowerAutoWait = ADC_AUTOWAIT_DISABLE;
 204:Core/Src/main.c ****   hadc.Init.LowPowerAutoPowerOff = ADC_AUTOPOWEROFF_DISABLE;
ARM GAS  C:\Users\cedri\AppData\Local\Temp\ccZqcsPj.s 			page 5


 205:Core/Src/main.c ****   hadc.Init.ChannelsBank = ADC_CHANNELS_BANK_A;
 206:Core/Src/main.c ****   hadc.Init.ContinuousConvMode = DISABLE;
 207:Core/Src/main.c ****   hadc.Init.NbrOfConversion = 2;
 208:Core/Src/main.c ****   hadc.Init.DiscontinuousConvMode = DISABLE;
 209:Core/Src/main.c ****   hadc.Init.ExternalTrigConv = ADC_SOFTWARE_START;
 210:Core/Src/main.c ****   hadc.Init.ExternalTrigConvEdge = ADC_EXTERNALTRIGCONVEDGE_NONE;
 211:Core/Src/main.c ****   hadc.Init.DMAContinuousRequests = ENABLE;
 212:Core/Src/main.c ****   if (HAL_ADC_Init(&hadc) != HAL_OK)
 213:Core/Src/main.c ****   {
 214:Core/Src/main.c ****     Error_Handler();
 215:Core/Src/main.c ****   }
 216:Core/Src/main.c **** 
 217:Core/Src/main.c ****   /** Configure for the selected ADC regular channel its corresponding rank in the sequencer and it
 218:Core/Src/main.c ****   */
 219:Core/Src/main.c ****   sConfig.Channel = ADC_CHANNEL_0;
 220:Core/Src/main.c ****   sConfig.Rank = ADC_REGULAR_RANK_1;
 221:Core/Src/main.c ****   sConfig.SamplingTime = ADC_SAMPLETIME_4CYCLES;
 222:Core/Src/main.c ****   if (HAL_ADC_ConfigChannel(&hadc, &sConfig) != HAL_OK)
 223:Core/Src/main.c ****   {
 224:Core/Src/main.c ****     Error_Handler();
 225:Core/Src/main.c ****   }
 226:Core/Src/main.c **** 
 227:Core/Src/main.c ****   /** Configure for the selected ADC regular channel its corresponding rank in the sequencer and it
 228:Core/Src/main.c ****   */
 229:Core/Src/main.c ****   sConfig.Channel = ADC_CHANNEL_1;
 230:Core/Src/main.c ****   sConfig.Rank = ADC_REGULAR_RANK_2;
 231:Core/Src/main.c ****   if (HAL_ADC_ConfigChannel(&hadc, &sConfig) != HAL_OK)
 232:Core/Src/main.c ****   {
 233:Core/Src/main.c ****     Error_Handler();
 234:Core/Src/main.c ****   }
 235:Core/Src/main.c ****   /* USER CODE BEGIN ADC_Init 2 */
 236:Core/Src/main.c **** 
 237:Core/Src/main.c ****   /* USER CODE END ADC_Init 2 */
 238:Core/Src/main.c **** 
 239:Core/Src/main.c **** }
 240:Core/Src/main.c **** 
 241:Core/Src/main.c **** /**
 242:Core/Src/main.c ****   * @brief TIM2 Initialization Function
 243:Core/Src/main.c ****   * @param None
 244:Core/Src/main.c ****   * @retval None
 245:Core/Src/main.c ****   */
 246:Core/Src/main.c **** static void MX_TIM2_Init(void)
 247:Core/Src/main.c **** {
 248:Core/Src/main.c **** 
 249:Core/Src/main.c ****   /* USER CODE BEGIN TIM2_Init 0 */
 250:Core/Src/main.c **** 
 251:Core/Src/main.c ****   /* USER CODE END TIM2_Init 0 */
 252:Core/Src/main.c **** 
 253:Core/Src/main.c ****   TIM_ClockConfigTypeDef sClockSourceConfig = {0};
 254:Core/Src/main.c ****   TIM_MasterConfigTypeDef sMasterConfig = {0};
 255:Core/Src/main.c **** 
 256:Core/Src/main.c ****   /* USER CODE BEGIN TIM2_Init 1 */
 257:Core/Src/main.c **** 
 258:Core/Src/main.c ****   /* USER CODE END TIM2_Init 1 */
 259:Core/Src/main.c ****   htim2.Instance = TIM2;
 260:Core/Src/main.c ****   htim2.Init.Prescaler = 3199;
 261:Core/Src/main.c ****   htim2.Init.CounterMode = TIM_COUNTERMODE_UP;
ARM GAS  C:\Users\cedri\AppData\Local\Temp\ccZqcsPj.s 			page 6


 262:Core/Src/main.c ****   htim2.Init.Period = 49;
 263:Core/Src/main.c ****   htim2.Init.ClockDivision = TIM_CLOCKDIVISION_DIV1;
 264:Core/Src/main.c ****   htim2.Init.AutoReloadPreload = TIM_AUTORELOAD_PRELOAD_DISABLE;
 265:Core/Src/main.c ****   if (HAL_TIM_Base_Init(&htim2) != HAL_OK)
 266:Core/Src/main.c ****   {
 267:Core/Src/main.c ****     Error_Handler();
 268:Core/Src/main.c ****   }
 269:Core/Src/main.c ****   sClockSourceConfig.ClockSource = TIM_CLOCKSOURCE_INTERNAL;
 270:Core/Src/main.c ****   if (HAL_TIM_ConfigClockSource(&htim2, &sClockSourceConfig) != HAL_OK)
 271:Core/Src/main.c ****   {
 272:Core/Src/main.c ****     Error_Handler();
 273:Core/Src/main.c ****   }
 274:Core/Src/main.c ****   sMasterConfig.MasterOutputTrigger = TIM_TRGO_RESET;
 275:Core/Src/main.c ****   sMasterConfig.MasterSlaveMode = TIM_MASTERSLAVEMODE_DISABLE;
 276:Core/Src/main.c ****   if (HAL_TIMEx_MasterConfigSynchronization(&htim2, &sMasterConfig) != HAL_OK)
 277:Core/Src/main.c ****   {
 278:Core/Src/main.c ****     Error_Handler();
 279:Core/Src/main.c ****   }
 280:Core/Src/main.c ****   /* USER CODE BEGIN TIM2_Init 2 */
 281:Core/Src/main.c **** 
 282:Core/Src/main.c ****   /* USER CODE END TIM2_Init 2 */
 283:Core/Src/main.c **** 
 284:Core/Src/main.c **** }
 285:Core/Src/main.c **** 
 286:Core/Src/main.c **** /**
 287:Core/Src/main.c ****   * @brief TIM9 Initialization Function
 288:Core/Src/main.c ****   * @param None
 289:Core/Src/main.c ****   * @retval None
 290:Core/Src/main.c ****   */
 291:Core/Src/main.c **** static void MX_TIM9_Init(void)
 292:Core/Src/main.c **** {
 293:Core/Src/main.c **** 
 294:Core/Src/main.c ****   /* USER CODE BEGIN TIM9_Init 0 */
 295:Core/Src/main.c **** 
 296:Core/Src/main.c ****   /* USER CODE END TIM9_Init 0 */
 297:Core/Src/main.c **** 
 298:Core/Src/main.c ****   TIM_MasterConfigTypeDef sMasterConfig = {0};
 299:Core/Src/main.c ****   TIM_OC_InitTypeDef sConfigOC = {0};
 300:Core/Src/main.c **** 
 301:Core/Src/main.c ****   /* USER CODE BEGIN TIM9_Init 1 */
 302:Core/Src/main.c **** 
 303:Core/Src/main.c ****   /* USER CODE END TIM9_Init 1 */
 304:Core/Src/main.c ****   htim9.Instance = TIM9;
 305:Core/Src/main.c ****   htim9.Init.Prescaler = 0;
 306:Core/Src/main.c ****   htim9.Init.CounterMode = TIM_COUNTERMODE_UP;
 307:Core/Src/main.c ****   htim9.Init.Period = 65535;
 308:Core/Src/main.c ****   htim9.Init.ClockDivision = TIM_CLOCKDIVISION_DIV1;
 309:Core/Src/main.c ****   htim9.Init.AutoReloadPreload = TIM_AUTORELOAD_PRELOAD_DISABLE;
 310:Core/Src/main.c ****   if (HAL_TIM_PWM_Init(&htim9) != HAL_OK)
 311:Core/Src/main.c ****   {
 312:Core/Src/main.c ****     Error_Handler();
 313:Core/Src/main.c ****   }
 314:Core/Src/main.c ****   sMasterConfig.MasterOutputTrigger = TIM_TRGO_RESET;
 315:Core/Src/main.c ****   sMasterConfig.MasterSlaveMode = TIM_MASTERSLAVEMODE_DISABLE;
 316:Core/Src/main.c ****   if (HAL_TIMEx_MasterConfigSynchronization(&htim9, &sMasterConfig) != HAL_OK)
 317:Core/Src/main.c ****   {
 318:Core/Src/main.c ****     Error_Handler();
ARM GAS  C:\Users\cedri\AppData\Local\Temp\ccZqcsPj.s 			page 7


 319:Core/Src/main.c ****   }
 320:Core/Src/main.c ****   sConfigOC.OCMode = TIM_OCMODE_PWM1;
 321:Core/Src/main.c ****   sConfigOC.Pulse = 0;
 322:Core/Src/main.c ****   sConfigOC.OCPolarity = TIM_OCPOLARITY_HIGH;
 323:Core/Src/main.c ****   sConfigOC.OCFastMode = TIM_OCFAST_DISABLE;
 324:Core/Src/main.c ****   if (HAL_TIM_PWM_ConfigChannel(&htim9, &sConfigOC, TIM_CHANNEL_2) != HAL_OK)
 325:Core/Src/main.c ****   {
 326:Core/Src/main.c ****     Error_Handler();
 327:Core/Src/main.c ****   }
 328:Core/Src/main.c ****   /* USER CODE BEGIN TIM9_Init 2 */
 329:Core/Src/main.c **** 
 330:Core/Src/main.c ****   /* USER CODE END TIM9_Init 2 */
 331:Core/Src/main.c ****   HAL_TIM_MspPostInit(&htim9);
 332:Core/Src/main.c **** 
 333:Core/Src/main.c **** }
 334:Core/Src/main.c **** 
 335:Core/Src/main.c **** /**
 336:Core/Src/main.c ****   * @brief TIM11 Initialization Function
 337:Core/Src/main.c ****   * @param None
 338:Core/Src/main.c ****   * @retval None
 339:Core/Src/main.c ****   */
 340:Core/Src/main.c **** static void MX_TIM11_Init(void)
 341:Core/Src/main.c **** {
 342:Core/Src/main.c **** 
 343:Core/Src/main.c ****   /* USER CODE BEGIN TIM11_Init 0 */
 344:Core/Src/main.c **** 
 345:Core/Src/main.c ****   /* USER CODE END TIM11_Init 0 */
 346:Core/Src/main.c **** 
 347:Core/Src/main.c ****   TIM_OC_InitTypeDef sConfigOC = {0};
 348:Core/Src/main.c **** 
 349:Core/Src/main.c ****   /* USER CODE BEGIN TIM11_Init 1 */
 350:Core/Src/main.c **** 
 351:Core/Src/main.c ****   /* USER CODE END TIM11_Init 1 */
 352:Core/Src/main.c ****   htim11.Instance = TIM11;
 353:Core/Src/main.c ****   htim11.Init.Prescaler = 0;
 354:Core/Src/main.c ****   htim11.Init.CounterMode = TIM_COUNTERMODE_UP;
 355:Core/Src/main.c ****   htim11.Init.Period = 65535;
 356:Core/Src/main.c ****   htim11.Init.ClockDivision = TIM_CLOCKDIVISION_DIV1;
 357:Core/Src/main.c ****   htim11.Init.AutoReloadPreload = TIM_AUTORELOAD_PRELOAD_DISABLE;
 358:Core/Src/main.c ****   if (HAL_TIM_PWM_Init(&htim11) != HAL_OK)
 359:Core/Src/main.c ****   {
 360:Core/Src/main.c ****     Error_Handler();
 361:Core/Src/main.c ****   }
 362:Core/Src/main.c ****   sConfigOC.OCMode = TIM_OCMODE_PWM1;
 363:Core/Src/main.c ****   sConfigOC.Pulse = 0;
 364:Core/Src/main.c ****   sConfigOC.OCPolarity = TIM_OCPOLARITY_HIGH;
 365:Core/Src/main.c ****   sConfigOC.OCFastMode = TIM_OCFAST_DISABLE;
 366:Core/Src/main.c ****   if (HAL_TIM_PWM_ConfigChannel(&htim11, &sConfigOC, TIM_CHANNEL_1) != HAL_OK)
 367:Core/Src/main.c ****   {
 368:Core/Src/main.c ****     Error_Handler();
 369:Core/Src/main.c ****   }
 370:Core/Src/main.c ****   /* USER CODE BEGIN TIM11_Init 2 */
 371:Core/Src/main.c **** 
 372:Core/Src/main.c ****   /* USER CODE END TIM11_Init 2 */
 373:Core/Src/main.c ****   HAL_TIM_MspPostInit(&htim11);
 374:Core/Src/main.c **** 
 375:Core/Src/main.c **** }
ARM GAS  C:\Users\cedri\AppData\Local\Temp\ccZqcsPj.s 			page 8


 376:Core/Src/main.c **** 
 377:Core/Src/main.c **** /**
 378:Core/Src/main.c ****   * @brief USART2 Initialization Function
 379:Core/Src/main.c ****   * @param None
 380:Core/Src/main.c ****   * @retval None
 381:Core/Src/main.c ****   */
 382:Core/Src/main.c **** static void MX_USART2_UART_Init(void)
 383:Core/Src/main.c **** {
 384:Core/Src/main.c **** 
 385:Core/Src/main.c ****   /* USER CODE BEGIN USART2_Init 0 */
 386:Core/Src/main.c **** 
 387:Core/Src/main.c ****   /* USER CODE END USART2_Init 0 */
 388:Core/Src/main.c **** 
 389:Core/Src/main.c ****   /* USER CODE BEGIN USART2_Init 1 */
 390:Core/Src/main.c **** 
 391:Core/Src/main.c ****   /* USER CODE END USART2_Init 1 */
 392:Core/Src/main.c ****   huart2.Instance = USART2;
 393:Core/Src/main.c ****   huart2.Init.BaudRate = 115200;
 394:Core/Src/main.c ****   huart2.Init.WordLength = UART_WORDLENGTH_8B;
 395:Core/Src/main.c ****   huart2.Init.StopBits = UART_STOPBITS_1;
 396:Core/Src/main.c ****   huart2.Init.Parity = UART_PARITY_NONE;
 397:Core/Src/main.c ****   huart2.Init.Mode = UART_MODE_TX_RX;
 398:Core/Src/main.c ****   huart2.Init.HwFlowCtl = UART_HWCONTROL_NONE;
 399:Core/Src/main.c ****   huart2.Init.OverSampling = UART_OVERSAMPLING_16;
 400:Core/Src/main.c ****   if (HAL_UART_Init(&huart2) != HAL_OK)
 401:Core/Src/main.c ****   {
 402:Core/Src/main.c ****     Error_Handler();
 403:Core/Src/main.c ****   }
 404:Core/Src/main.c ****   /* USER CODE BEGIN USART2_Init 2 */
 405:Core/Src/main.c **** 
 406:Core/Src/main.c ****   /* USER CODE END USART2_Init 2 */
 407:Core/Src/main.c **** 
 408:Core/Src/main.c **** }
 409:Core/Src/main.c **** 
 410:Core/Src/main.c **** /**
 411:Core/Src/main.c ****   * Enable DMA controller clock
 412:Core/Src/main.c ****   */
 413:Core/Src/main.c **** static void MX_DMA_Init(void)
 414:Core/Src/main.c **** {
 415:Core/Src/main.c **** 
 416:Core/Src/main.c ****   /* DMA controller clock enable */
 417:Core/Src/main.c ****   __HAL_RCC_DMA1_CLK_ENABLE();
 418:Core/Src/main.c **** 
 419:Core/Src/main.c ****   /* DMA interrupt init */
 420:Core/Src/main.c ****   /* DMA1_Channel1_IRQn interrupt configuration */
 421:Core/Src/main.c ****   HAL_NVIC_SetPriority(DMA1_Channel1_IRQn, 0, 0);
 422:Core/Src/main.c ****   HAL_NVIC_EnableIRQ(DMA1_Channel1_IRQn);
 423:Core/Src/main.c **** 
 424:Core/Src/main.c **** }
 425:Core/Src/main.c **** 
 426:Core/Src/main.c **** /**
 427:Core/Src/main.c ****   * @brief GPIO Initialization Function
 428:Core/Src/main.c ****   * @param None
 429:Core/Src/main.c ****   * @retval None
 430:Core/Src/main.c ****   */
 431:Core/Src/main.c **** static void MX_GPIO_Init(void)
 432:Core/Src/main.c **** {
ARM GAS  C:\Users\cedri\AppData\Local\Temp\ccZqcsPj.s 			page 9


  26              		.loc 1 432 1 view -0
  27              		.cfi_startproc
  28              		@ args = 0, pretend = 0, frame = 40
  29              		@ frame_needed = 0, uses_anonymous_args = 0
  30 0000 70B5     		push	{r4, r5, r6, lr}
  31              	.LCFI0:
  32              		.cfi_def_cfa_offset 16
  33              		.cfi_offset 4, -16
  34              		.cfi_offset 5, -12
  35              		.cfi_offset 6, -8
  36              		.cfi_offset 14, -4
  37 0002 8AB0     		sub	sp, sp, #40
  38              	.LCFI1:
  39              		.cfi_def_cfa_offset 56
 433:Core/Src/main.c ****   GPIO_InitTypeDef GPIO_InitStruct = {0};
  40              		.loc 1 433 3 view .LVU1
  41              		.loc 1 433 20 is_stmt 0 view .LVU2
  42 0004 0024     		movs	r4, #0
  43 0006 0594     		str	r4, [sp, #20]
  44 0008 0694     		str	r4, [sp, #24]
  45 000a 0794     		str	r4, [sp, #28]
  46 000c 0894     		str	r4, [sp, #32]
  47 000e 0994     		str	r4, [sp, #36]
 434:Core/Src/main.c **** /* USER CODE BEGIN MX_GPIO_Init_1 */
 435:Core/Src/main.c **** /* USER CODE END MX_GPIO_Init_1 */
 436:Core/Src/main.c **** 
 437:Core/Src/main.c ****   /* GPIO Ports Clock Enable */
 438:Core/Src/main.c ****   __HAL_RCC_GPIOC_CLK_ENABLE();
  48              		.loc 1 438 3 is_stmt 1 view .LVU3
  49              	.LBB4:
  50              		.loc 1 438 3 view .LVU4
  51              		.loc 1 438 3 view .LVU5
  52 0010 2D4B     		ldr	r3, .L3
  53 0012 DA69     		ldr	r2, [r3, #28]
  54 0014 42F00402 		orr	r2, r2, #4
  55 0018 DA61     		str	r2, [r3, #28]
  56              		.loc 1 438 3 view .LVU6
  57 001a DA69     		ldr	r2, [r3, #28]
  58 001c 02F00402 		and	r2, r2, #4
  59 0020 0192     		str	r2, [sp, #4]
  60              		.loc 1 438 3 view .LVU7
  61 0022 019A     		ldr	r2, [sp, #4]
  62              	.LBE4:
  63              		.loc 1 438 3 view .LVU8
 439:Core/Src/main.c ****   __HAL_RCC_GPIOH_CLK_ENABLE();
  64              		.loc 1 439 3 view .LVU9
  65              	.LBB5:
  66              		.loc 1 439 3 view .LVU10
  67              		.loc 1 439 3 view .LVU11
  68 0024 DA69     		ldr	r2, [r3, #28]
  69 0026 42F02002 		orr	r2, r2, #32
  70 002a DA61     		str	r2, [r3, #28]
  71              		.loc 1 439 3 view .LVU12
  72 002c DA69     		ldr	r2, [r3, #28]
  73 002e 02F02002 		and	r2, r2, #32
  74 0032 0292     		str	r2, [sp, #8]
  75              		.loc 1 439 3 view .LVU13
ARM GAS  C:\Users\cedri\AppData\Local\Temp\ccZqcsPj.s 			page 10


  76 0034 029A     		ldr	r2, [sp, #8]
  77              	.LBE5:
  78              		.loc 1 439 3 view .LVU14
 440:Core/Src/main.c ****   __HAL_RCC_GPIOA_CLK_ENABLE();
  79              		.loc 1 440 3 view .LVU15
  80              	.LBB6:
  81              		.loc 1 440 3 view .LVU16
  82              		.loc 1 440 3 view .LVU17
  83 0036 DA69     		ldr	r2, [r3, #28]
  84 0038 42F00102 		orr	r2, r2, #1
  85 003c DA61     		str	r2, [r3, #28]
  86              		.loc 1 440 3 view .LVU18
  87 003e DA69     		ldr	r2, [r3, #28]
  88 0040 02F00102 		and	r2, r2, #1
  89 0044 0392     		str	r2, [sp, #12]
  90              		.loc 1 440 3 view .LVU19
  91 0046 039A     		ldr	r2, [sp, #12]
  92              	.LBE6:
  93              		.loc 1 440 3 view .LVU20
 441:Core/Src/main.c ****   __HAL_RCC_GPIOB_CLK_ENABLE();
  94              		.loc 1 441 3 view .LVU21
  95              	.LBB7:
  96              		.loc 1 441 3 view .LVU22
  97              		.loc 1 441 3 view .LVU23
  98 0048 DA69     		ldr	r2, [r3, #28]
  99 004a 42F00202 		orr	r2, r2, #2
 100 004e DA61     		str	r2, [r3, #28]
 101              		.loc 1 441 3 view .LVU24
 102 0050 DB69     		ldr	r3, [r3, #28]
 103 0052 03F00203 		and	r3, r3, #2
 104 0056 0493     		str	r3, [sp, #16]
 105              		.loc 1 441 3 view .LVU25
 106 0058 049B     		ldr	r3, [sp, #16]
 107              	.LBE7:
 108              		.loc 1 441 3 view .LVU26
 442:Core/Src/main.c **** 
 443:Core/Src/main.c ****   /*Configure GPIO pin Output Level */
 444:Core/Src/main.c ****   HAL_GPIO_WritePin(LD2_GPIO_Port, LD2_Pin, GPIO_PIN_RESET);
 109              		.loc 1 444 3 view .LVU27
 110 005a 1C4D     		ldr	r5, .L3+4
 111 005c 2246     		mov	r2, r4
 112 005e 2021     		movs	r1, #32
 113 0060 2846     		mov	r0, r5
 114 0062 FFF7FEFF 		bl	HAL_GPIO_WritePin
 115              	.LVL0:
 445:Core/Src/main.c **** 
 446:Core/Src/main.c ****   /*Configure GPIO pins : B1_Pin BTN_4_Pin BTN_3_Pin */
 447:Core/Src/main.c ****   GPIO_InitStruct.Pin = B1_Pin|BTN_4_Pin|BTN_3_Pin;
 116              		.loc 1 447 3 view .LVU28
 117              		.loc 1 447 23 is_stmt 0 view .LVU29
 118 0066 42F26003 		movw	r3, #8288
 119 006a 0593     		str	r3, [sp, #20]
 448:Core/Src/main.c ****   GPIO_InitStruct.Mode = GPIO_MODE_IT_RISING;
 120              		.loc 1 448 3 is_stmt 1 view .LVU30
 121              		.loc 1 448 24 is_stmt 0 view .LVU31
 122 006c 4FF48816 		mov	r6, #1114112
 123 0070 0696     		str	r6, [sp, #24]
ARM GAS  C:\Users\cedri\AppData\Local\Temp\ccZqcsPj.s 			page 11


 449:Core/Src/main.c ****   GPIO_InitStruct.Pull = GPIO_NOPULL;
 124              		.loc 1 449 3 is_stmt 1 view .LVU32
 125              		.loc 1 449 24 is_stmt 0 view .LVU33
 126 0072 0794     		str	r4, [sp, #28]
 450:Core/Src/main.c ****   HAL_GPIO_Init(GPIOC, &GPIO_InitStruct);
 127              		.loc 1 450 3 is_stmt 1 view .LVU34
 128 0074 05A9     		add	r1, sp, #20
 129 0076 1648     		ldr	r0, .L3+8
 130 0078 FFF7FEFF 		bl	HAL_GPIO_Init
 131              	.LVL1:
 451:Core/Src/main.c **** 
 452:Core/Src/main.c ****   /*Configure GPIO pin : LD2_Pin */
 453:Core/Src/main.c ****   GPIO_InitStruct.Pin = LD2_Pin;
 132              		.loc 1 453 3 view .LVU35
 133              		.loc 1 453 23 is_stmt 0 view .LVU36
 134 007c 2023     		movs	r3, #32
 135 007e 0593     		str	r3, [sp, #20]
 454:Core/Src/main.c ****   GPIO_InitStruct.Mode = GPIO_MODE_OUTPUT_PP;
 136              		.loc 1 454 3 is_stmt 1 view .LVU37
 137              		.loc 1 454 24 is_stmt 0 view .LVU38
 138 0080 0123     		movs	r3, #1
 139 0082 0693     		str	r3, [sp, #24]
 455:Core/Src/main.c ****   GPIO_InitStruct.Pull = GPIO_NOPULL;
 140              		.loc 1 455 3 is_stmt 1 view .LVU39
 141              		.loc 1 455 24 is_stmt 0 view .LVU40
 142 0084 0794     		str	r4, [sp, #28]
 456:Core/Src/main.c ****   GPIO_InitStruct.Speed = GPIO_SPEED_FREQ_LOW;
 143              		.loc 1 456 3 is_stmt 1 view .LVU41
 144              		.loc 1 456 25 is_stmt 0 view .LVU42
 145 0086 0894     		str	r4, [sp, #32]
 457:Core/Src/main.c ****   HAL_GPIO_Init(LD2_GPIO_Port, &GPIO_InitStruct);
 146              		.loc 1 457 3 is_stmt 1 view .LVU43
 147 0088 05A9     		add	r1, sp, #20
 148 008a 2846     		mov	r0, r5
 149 008c FFF7FEFF 		bl	HAL_GPIO_Init
 150              	.LVL2:
 458:Core/Src/main.c **** 
 459:Core/Src/main.c ****   /*Configure GPIO pins : BTN_1_Pin BTN_2_Pin */
 460:Core/Src/main.c ****   GPIO_InitStruct.Pin = BTN_1_Pin|BTN_2_Pin;
 151              		.loc 1 460 3 view .LVU44
 152              		.loc 1 460 23 is_stmt 0 view .LVU45
 153 0090 4FF4C053 		mov	r3, #6144
 154 0094 0593     		str	r3, [sp, #20]
 461:Core/Src/main.c ****   GPIO_InitStruct.Mode = GPIO_MODE_IT_RISING;
 155              		.loc 1 461 3 is_stmt 1 view .LVU46
 156              		.loc 1 461 24 is_stmt 0 view .LVU47
 157 0096 0696     		str	r6, [sp, #24]
 462:Core/Src/main.c ****   GPIO_InitStruct.Pull = GPIO_NOPULL;
 158              		.loc 1 462 3 is_stmt 1 view .LVU48
 159              		.loc 1 462 24 is_stmt 0 view .LVU49
 160 0098 0794     		str	r4, [sp, #28]
 463:Core/Src/main.c ****   HAL_GPIO_Init(GPIOA, &GPIO_InitStruct);
 161              		.loc 1 463 3 is_stmt 1 view .LVU50
 162 009a 05A9     		add	r1, sp, #20
 163 009c 2846     		mov	r0, r5
 164 009e FFF7FEFF 		bl	HAL_GPIO_Init
 165              	.LVL3:
ARM GAS  C:\Users\cedri\AppData\Local\Temp\ccZqcsPj.s 			page 12


 464:Core/Src/main.c **** 
 465:Core/Src/main.c ****   /* EXTI interrupt init*/
 466:Core/Src/main.c ****   HAL_NVIC_SetPriority(EXTI9_5_IRQn, 0, 0);
 166              		.loc 1 466 3 view .LVU51
 167 00a2 2246     		mov	r2, r4
 168 00a4 2146     		mov	r1, r4
 169 00a6 1720     		movs	r0, #23
 170 00a8 FFF7FEFF 		bl	HAL_NVIC_SetPriority
 171              	.LVL4:
 467:Core/Src/main.c ****   HAL_NVIC_EnableIRQ(EXTI9_5_IRQn);
 172              		.loc 1 467 3 view .LVU52
 173 00ac 1720     		movs	r0, #23
 174 00ae FFF7FEFF 		bl	HAL_NVIC_EnableIRQ
 175              	.LVL5:
 468:Core/Src/main.c **** 
 469:Core/Src/main.c ****   HAL_NVIC_SetPriority(EXTI15_10_IRQn, 0, 0);
 176              		.loc 1 469 3 view .LVU53
 177 00b2 2246     		mov	r2, r4
 178 00b4 2146     		mov	r1, r4
 179 00b6 2820     		movs	r0, #40
 180 00b8 FFF7FEFF 		bl	HAL_NVIC_SetPriority
 181              	.LVL6:
 470:Core/Src/main.c ****   HAL_NVIC_EnableIRQ(EXTI15_10_IRQn);
 182              		.loc 1 470 3 view .LVU54
 183 00bc 2820     		movs	r0, #40
 184 00be FFF7FEFF 		bl	HAL_NVIC_EnableIRQ
 185              	.LVL7:
 471:Core/Src/main.c **** 
 472:Core/Src/main.c **** /* USER CODE BEGIN MX_GPIO_Init_2 */
 473:Core/Src/main.c **** /* USER CODE END MX_GPIO_Init_2 */
 474:Core/Src/main.c **** }
 186              		.loc 1 474 1 is_stmt 0 view .LVU55
 187 00c2 0AB0     		add	sp, sp, #40
 188              	.LCFI2:
 189              		.cfi_def_cfa_offset 16
 190              		@ sp needed
 191 00c4 70BD     		pop	{r4, r5, r6, pc}
 192              	.L4:
 193 00c6 00BF     		.align	2
 194              	.L3:
 195 00c8 00380240 		.word	1073887232
 196 00cc 00000240 		.word	1073872896
 197 00d0 00080240 		.word	1073874944
 198              		.cfi_endproc
 199              	.LFE83:
 201              		.section	.text.MX_DMA_Init,"ax",%progbits
 202              		.align	1
 203              		.syntax unified
 204              		.thumb
 205              		.thumb_func
 207              	MX_DMA_Init:
 208              	.LFB82:
 414:Core/Src/main.c **** 
 209              		.loc 1 414 1 is_stmt 1 view -0
 210              		.cfi_startproc
 211              		@ args = 0, pretend = 0, frame = 8
 212              		@ frame_needed = 0, uses_anonymous_args = 0
ARM GAS  C:\Users\cedri\AppData\Local\Temp\ccZqcsPj.s 			page 13


 213 0000 00B5     		push	{lr}
 214              	.LCFI3:
 215              		.cfi_def_cfa_offset 4
 216              		.cfi_offset 14, -4
 217 0002 83B0     		sub	sp, sp, #12
 218              	.LCFI4:
 219              		.cfi_def_cfa_offset 16
 417:Core/Src/main.c **** 
 220              		.loc 1 417 3 view .LVU57
 221              	.LBB8:
 417:Core/Src/main.c **** 
 222              		.loc 1 417 3 view .LVU58
 417:Core/Src/main.c **** 
 223              		.loc 1 417 3 view .LVU59
 224 0004 0A4B     		ldr	r3, .L7
 225 0006 DA69     		ldr	r2, [r3, #28]
 226 0008 42F08072 		orr	r2, r2, #16777216
 227 000c DA61     		str	r2, [r3, #28]
 417:Core/Src/main.c **** 
 228              		.loc 1 417 3 view .LVU60
 229 000e DB69     		ldr	r3, [r3, #28]
 230 0010 03F08073 		and	r3, r3, #16777216
 231 0014 0193     		str	r3, [sp, #4]
 417:Core/Src/main.c **** 
 232              		.loc 1 417 3 view .LVU61
 233 0016 019B     		ldr	r3, [sp, #4]
 234              	.LBE8:
 417:Core/Src/main.c **** 
 235              		.loc 1 417 3 view .LVU62
 421:Core/Src/main.c ****   HAL_NVIC_EnableIRQ(DMA1_Channel1_IRQn);
 236              		.loc 1 421 3 view .LVU63
 237 0018 0022     		movs	r2, #0
 238 001a 1146     		mov	r1, r2
 239 001c 0B20     		movs	r0, #11
 240 001e FFF7FEFF 		bl	HAL_NVIC_SetPriority
 241              	.LVL8:
 422:Core/Src/main.c **** 
 242              		.loc 1 422 3 view .LVU64
 243 0022 0B20     		movs	r0, #11
 244 0024 FFF7FEFF 		bl	HAL_NVIC_EnableIRQ
 245              	.LVL9:
 424:Core/Src/main.c **** 
 246              		.loc 1 424 1 is_stmt 0 view .LVU65
 247 0028 03B0     		add	sp, sp, #12
 248              	.LCFI5:
 249              		.cfi_def_cfa_offset 4
 250              		@ sp needed
 251 002a 5DF804FB 		ldr	pc, [sp], #4
 252              	.L8:
 253 002e 00BF     		.align	2
 254              	.L7:
 255 0030 00380240 		.word	1073887232
 256              		.cfi_endproc
 257              	.LFE82:
 259              		.section	.text.__io_putchar,"ax",%progbits
 260              		.align	1
 261              		.global	__io_putchar
ARM GAS  C:\Users\cedri\AppData\Local\Temp\ccZqcsPj.s 			page 14


 262              		.syntax unified
 263              		.thumb
 264              		.thumb_func
 266              	__io_putchar:
 267              	.LVL10:
 268              	.LFB84:
 475:Core/Src/main.c **** 
 476:Core/Src/main.c **** /* USER CODE BEGIN 4 */
 477:Core/Src/main.c **** int __io_putchar(int ch) {
 269              		.loc 1 477 26 is_stmt 1 view -0
 270              		.cfi_startproc
 271              		@ args = 0, pretend = 0, frame = 0
 272              		@ frame_needed = 0, uses_anonymous_args = 0
 273              		@ link register save eliminated.
 478:Core/Src/main.c ****     ITM_SendChar(ch);
 274              		.loc 1 478 5 view .LVU67
 275              	.LBB11:
 276              	.LBI11:
 277              		.file 2 "Drivers/CMSIS/Include/core_cm3.h"
   1:Drivers/CMSIS/Include/core_cm3.h **** /**************************************************************************//**
   2:Drivers/CMSIS/Include/core_cm3.h ****  * @file     core_cm3.h
   3:Drivers/CMSIS/Include/core_cm3.h ****  * @brief    CMSIS Cortex-M3 Core Peripheral Access Layer Header File
   4:Drivers/CMSIS/Include/core_cm3.h ****  * @version  V5.0.8
   5:Drivers/CMSIS/Include/core_cm3.h ****  * @date     04. June 2018
   6:Drivers/CMSIS/Include/core_cm3.h ****  ******************************************************************************/
   7:Drivers/CMSIS/Include/core_cm3.h **** /*
   8:Drivers/CMSIS/Include/core_cm3.h ****  * Copyright (c) 2009-2018 Arm Limited. All rights reserved.
   9:Drivers/CMSIS/Include/core_cm3.h ****  *
  10:Drivers/CMSIS/Include/core_cm3.h ****  * SPDX-License-Identifier: Apache-2.0
  11:Drivers/CMSIS/Include/core_cm3.h ****  *
  12:Drivers/CMSIS/Include/core_cm3.h ****  * Licensed under the Apache License, Version 2.0 (the License); you may
  13:Drivers/CMSIS/Include/core_cm3.h ****  * not use this file except in compliance with the License.
  14:Drivers/CMSIS/Include/core_cm3.h ****  * You may obtain a copy of the License at
  15:Drivers/CMSIS/Include/core_cm3.h ****  *
  16:Drivers/CMSIS/Include/core_cm3.h ****  * www.apache.org/licenses/LICENSE-2.0
  17:Drivers/CMSIS/Include/core_cm3.h ****  *
  18:Drivers/CMSIS/Include/core_cm3.h ****  * Unless required by applicable law or agreed to in writing, software
  19:Drivers/CMSIS/Include/core_cm3.h ****  * distributed under the License is distributed on an AS IS BASIS, WITHOUT
  20:Drivers/CMSIS/Include/core_cm3.h ****  * WARRANTIES OR CONDITIONS OF ANY KIND, either express or implied.
  21:Drivers/CMSIS/Include/core_cm3.h ****  * See the License for the specific language governing permissions and
  22:Drivers/CMSIS/Include/core_cm3.h ****  * limitations under the License.
  23:Drivers/CMSIS/Include/core_cm3.h ****  */
  24:Drivers/CMSIS/Include/core_cm3.h **** 
  25:Drivers/CMSIS/Include/core_cm3.h **** #if   defined ( __ICCARM__ )
  26:Drivers/CMSIS/Include/core_cm3.h ****   #pragma system_include         /* treat file as system include file for MISRA check */
  27:Drivers/CMSIS/Include/core_cm3.h **** #elif defined (__clang__)
  28:Drivers/CMSIS/Include/core_cm3.h ****   #pragma clang system_header   /* treat file as system include file */
  29:Drivers/CMSIS/Include/core_cm3.h **** #endif
  30:Drivers/CMSIS/Include/core_cm3.h **** 
  31:Drivers/CMSIS/Include/core_cm3.h **** #ifndef __CORE_CM3_H_GENERIC
  32:Drivers/CMSIS/Include/core_cm3.h **** #define __CORE_CM3_H_GENERIC
  33:Drivers/CMSIS/Include/core_cm3.h **** 
  34:Drivers/CMSIS/Include/core_cm3.h **** #include <stdint.h>
  35:Drivers/CMSIS/Include/core_cm3.h **** 
  36:Drivers/CMSIS/Include/core_cm3.h **** #ifdef __cplusplus
  37:Drivers/CMSIS/Include/core_cm3.h ****  extern "C" {
  38:Drivers/CMSIS/Include/core_cm3.h **** #endif
ARM GAS  C:\Users\cedri\AppData\Local\Temp\ccZqcsPj.s 			page 15


  39:Drivers/CMSIS/Include/core_cm3.h **** 
  40:Drivers/CMSIS/Include/core_cm3.h **** /**
  41:Drivers/CMSIS/Include/core_cm3.h ****   \page CMSIS_MISRA_Exceptions  MISRA-C:2004 Compliance Exceptions
  42:Drivers/CMSIS/Include/core_cm3.h ****   CMSIS violates the following MISRA-C:2004 rules:
  43:Drivers/CMSIS/Include/core_cm3.h **** 
  44:Drivers/CMSIS/Include/core_cm3.h ****    \li Required Rule 8.5, object/function definition in header file.<br>
  45:Drivers/CMSIS/Include/core_cm3.h ****      Function definitions in header files are used to allow 'inlining'.
  46:Drivers/CMSIS/Include/core_cm3.h **** 
  47:Drivers/CMSIS/Include/core_cm3.h ****    \li Required Rule 18.4, declaration of union type or object of union type: '{...}'.<br>
  48:Drivers/CMSIS/Include/core_cm3.h ****      Unions are used for effective representation of core registers.
  49:Drivers/CMSIS/Include/core_cm3.h **** 
  50:Drivers/CMSIS/Include/core_cm3.h ****    \li Advisory Rule 19.7, Function-like macro defined.<br>
  51:Drivers/CMSIS/Include/core_cm3.h ****      Function-like macros are used to allow more efficient code.
  52:Drivers/CMSIS/Include/core_cm3.h ****  */
  53:Drivers/CMSIS/Include/core_cm3.h **** 
  54:Drivers/CMSIS/Include/core_cm3.h **** 
  55:Drivers/CMSIS/Include/core_cm3.h **** /*******************************************************************************
  56:Drivers/CMSIS/Include/core_cm3.h ****  *                 CMSIS definitions
  57:Drivers/CMSIS/Include/core_cm3.h ****  ******************************************************************************/
  58:Drivers/CMSIS/Include/core_cm3.h **** /**
  59:Drivers/CMSIS/Include/core_cm3.h ****   \ingroup Cortex_M3
  60:Drivers/CMSIS/Include/core_cm3.h ****   @{
  61:Drivers/CMSIS/Include/core_cm3.h ****  */
  62:Drivers/CMSIS/Include/core_cm3.h **** 
  63:Drivers/CMSIS/Include/core_cm3.h **** #include "cmsis_version.h"
  64:Drivers/CMSIS/Include/core_cm3.h **** 
  65:Drivers/CMSIS/Include/core_cm3.h **** /*  CMSIS CM3 definitions */
  66:Drivers/CMSIS/Include/core_cm3.h **** #define __CM3_CMSIS_VERSION_MAIN  (__CM_CMSIS_VERSION_MAIN)              /*!< \deprecated [31:16] C
  67:Drivers/CMSIS/Include/core_cm3.h **** #define __CM3_CMSIS_VERSION_SUB   (__CM_CMSIS_VERSION_SUB)               /*!< \deprecated [15:0]  C
  68:Drivers/CMSIS/Include/core_cm3.h **** #define __CM3_CMSIS_VERSION       ((__CM3_CMSIS_VERSION_MAIN << 16U) | \
  69:Drivers/CMSIS/Include/core_cm3.h ****                                     __CM3_CMSIS_VERSION_SUB           )  /*!< \deprecated CMSIS HAL
  70:Drivers/CMSIS/Include/core_cm3.h **** 
  71:Drivers/CMSIS/Include/core_cm3.h **** #define __CORTEX_M                (3U)                                   /*!< Cortex-M Core */
  72:Drivers/CMSIS/Include/core_cm3.h **** 
  73:Drivers/CMSIS/Include/core_cm3.h **** /** __FPU_USED indicates whether an FPU is used or not.
  74:Drivers/CMSIS/Include/core_cm3.h ****     This core does not support an FPU at all
  75:Drivers/CMSIS/Include/core_cm3.h **** */
  76:Drivers/CMSIS/Include/core_cm3.h **** #define __FPU_USED       0U
  77:Drivers/CMSIS/Include/core_cm3.h **** 
  78:Drivers/CMSIS/Include/core_cm3.h **** #if defined ( __CC_ARM )
  79:Drivers/CMSIS/Include/core_cm3.h ****   #if defined __TARGET_FPU_VFP
  80:Drivers/CMSIS/Include/core_cm3.h ****     #error "Compiler generates FPU instructions for a device without an FPU (check __FPU_PRESENT)"
  81:Drivers/CMSIS/Include/core_cm3.h ****   #endif
  82:Drivers/CMSIS/Include/core_cm3.h **** 
  83:Drivers/CMSIS/Include/core_cm3.h **** #elif defined (__ARMCC_VERSION) && (__ARMCC_VERSION >= 6010050)
  84:Drivers/CMSIS/Include/core_cm3.h ****   #if defined __ARM_PCS_VFP
  85:Drivers/CMSIS/Include/core_cm3.h ****     #error "Compiler generates FPU instructions for a device without an FPU (check __FPU_PRESENT)"
  86:Drivers/CMSIS/Include/core_cm3.h ****   #endif
  87:Drivers/CMSIS/Include/core_cm3.h **** 
  88:Drivers/CMSIS/Include/core_cm3.h **** #elif defined ( __GNUC__ )
  89:Drivers/CMSIS/Include/core_cm3.h ****   #if defined (__VFP_FP__) && !defined(__SOFTFP__)
  90:Drivers/CMSIS/Include/core_cm3.h ****     #error "Compiler generates FPU instructions for a device without an FPU (check __FPU_PRESENT)"
  91:Drivers/CMSIS/Include/core_cm3.h ****   #endif
  92:Drivers/CMSIS/Include/core_cm3.h **** 
  93:Drivers/CMSIS/Include/core_cm3.h **** #elif defined ( __ICCARM__ )
  94:Drivers/CMSIS/Include/core_cm3.h ****   #if defined __ARMVFP__
  95:Drivers/CMSIS/Include/core_cm3.h ****     #error "Compiler generates FPU instructions for a device without an FPU (check __FPU_PRESENT)"
ARM GAS  C:\Users\cedri\AppData\Local\Temp\ccZqcsPj.s 			page 16


  96:Drivers/CMSIS/Include/core_cm3.h ****   #endif
  97:Drivers/CMSIS/Include/core_cm3.h **** 
  98:Drivers/CMSIS/Include/core_cm3.h **** #elif defined ( __TI_ARM__ )
  99:Drivers/CMSIS/Include/core_cm3.h ****   #if defined __TI_VFP_SUPPORT__
 100:Drivers/CMSIS/Include/core_cm3.h ****     #error "Compiler generates FPU instructions for a device without an FPU (check __FPU_PRESENT)"
 101:Drivers/CMSIS/Include/core_cm3.h ****   #endif
 102:Drivers/CMSIS/Include/core_cm3.h **** 
 103:Drivers/CMSIS/Include/core_cm3.h **** #elif defined ( __TASKING__ )
 104:Drivers/CMSIS/Include/core_cm3.h ****   #if defined __FPU_VFP__
 105:Drivers/CMSIS/Include/core_cm3.h ****     #error "Compiler generates FPU instructions for a device without an FPU (check __FPU_PRESENT)"
 106:Drivers/CMSIS/Include/core_cm3.h ****   #endif
 107:Drivers/CMSIS/Include/core_cm3.h **** 
 108:Drivers/CMSIS/Include/core_cm3.h **** #elif defined ( __CSMC__ )
 109:Drivers/CMSIS/Include/core_cm3.h ****   #if ( __CSMC__ & 0x400U)
 110:Drivers/CMSIS/Include/core_cm3.h ****     #error "Compiler generates FPU instructions for a device without an FPU (check __FPU_PRESENT)"
 111:Drivers/CMSIS/Include/core_cm3.h ****   #endif
 112:Drivers/CMSIS/Include/core_cm3.h **** 
 113:Drivers/CMSIS/Include/core_cm3.h **** #endif
 114:Drivers/CMSIS/Include/core_cm3.h **** 
 115:Drivers/CMSIS/Include/core_cm3.h **** #include "cmsis_compiler.h"               /* CMSIS compiler specific defines */
 116:Drivers/CMSIS/Include/core_cm3.h **** 
 117:Drivers/CMSIS/Include/core_cm3.h **** 
 118:Drivers/CMSIS/Include/core_cm3.h **** #ifdef __cplusplus
 119:Drivers/CMSIS/Include/core_cm3.h **** }
 120:Drivers/CMSIS/Include/core_cm3.h **** #endif
 121:Drivers/CMSIS/Include/core_cm3.h **** 
 122:Drivers/CMSIS/Include/core_cm3.h **** #endif /* __CORE_CM3_H_GENERIC */
 123:Drivers/CMSIS/Include/core_cm3.h **** 
 124:Drivers/CMSIS/Include/core_cm3.h **** #ifndef __CMSIS_GENERIC
 125:Drivers/CMSIS/Include/core_cm3.h **** 
 126:Drivers/CMSIS/Include/core_cm3.h **** #ifndef __CORE_CM3_H_DEPENDANT
 127:Drivers/CMSIS/Include/core_cm3.h **** #define __CORE_CM3_H_DEPENDANT
 128:Drivers/CMSIS/Include/core_cm3.h **** 
 129:Drivers/CMSIS/Include/core_cm3.h **** #ifdef __cplusplus
 130:Drivers/CMSIS/Include/core_cm3.h ****  extern "C" {
 131:Drivers/CMSIS/Include/core_cm3.h **** #endif
 132:Drivers/CMSIS/Include/core_cm3.h **** 
 133:Drivers/CMSIS/Include/core_cm3.h **** /* check device defines and use defaults */
 134:Drivers/CMSIS/Include/core_cm3.h **** #if defined __CHECK_DEVICE_DEFINES
 135:Drivers/CMSIS/Include/core_cm3.h ****   #ifndef __CM3_REV
 136:Drivers/CMSIS/Include/core_cm3.h ****     #define __CM3_REV               0x0200U
 137:Drivers/CMSIS/Include/core_cm3.h ****     #warning "__CM3_REV not defined in device header file; using default!"
 138:Drivers/CMSIS/Include/core_cm3.h ****   #endif
 139:Drivers/CMSIS/Include/core_cm3.h **** 
 140:Drivers/CMSIS/Include/core_cm3.h ****   #ifndef __MPU_PRESENT
 141:Drivers/CMSIS/Include/core_cm3.h ****     #define __MPU_PRESENT             0U
 142:Drivers/CMSIS/Include/core_cm3.h ****     #warning "__MPU_PRESENT not defined in device header file; using default!"
 143:Drivers/CMSIS/Include/core_cm3.h ****   #endif
 144:Drivers/CMSIS/Include/core_cm3.h **** 
 145:Drivers/CMSIS/Include/core_cm3.h ****   #ifndef __NVIC_PRIO_BITS
 146:Drivers/CMSIS/Include/core_cm3.h ****     #define __NVIC_PRIO_BITS          3U
 147:Drivers/CMSIS/Include/core_cm3.h ****     #warning "__NVIC_PRIO_BITS not defined in device header file; using default!"
 148:Drivers/CMSIS/Include/core_cm3.h ****   #endif
 149:Drivers/CMSIS/Include/core_cm3.h **** 
 150:Drivers/CMSIS/Include/core_cm3.h ****   #ifndef __Vendor_SysTickConfig
 151:Drivers/CMSIS/Include/core_cm3.h ****     #define __Vendor_SysTickConfig    0U
 152:Drivers/CMSIS/Include/core_cm3.h ****     #warning "__Vendor_SysTickConfig not defined in device header file; using default!"
ARM GAS  C:\Users\cedri\AppData\Local\Temp\ccZqcsPj.s 			page 17


 153:Drivers/CMSIS/Include/core_cm3.h ****   #endif
 154:Drivers/CMSIS/Include/core_cm3.h **** #endif
 155:Drivers/CMSIS/Include/core_cm3.h **** 
 156:Drivers/CMSIS/Include/core_cm3.h **** /* IO definitions (access restrictions to peripheral registers) */
 157:Drivers/CMSIS/Include/core_cm3.h **** /**
 158:Drivers/CMSIS/Include/core_cm3.h ****     \defgroup CMSIS_glob_defs CMSIS Global Defines
 159:Drivers/CMSIS/Include/core_cm3.h **** 
 160:Drivers/CMSIS/Include/core_cm3.h ****     <strong>IO Type Qualifiers</strong> are used
 161:Drivers/CMSIS/Include/core_cm3.h ****     \li to specify the access to peripheral variables.
 162:Drivers/CMSIS/Include/core_cm3.h ****     \li for automatic generation of peripheral register debug information.
 163:Drivers/CMSIS/Include/core_cm3.h **** */
 164:Drivers/CMSIS/Include/core_cm3.h **** #ifdef __cplusplus
 165:Drivers/CMSIS/Include/core_cm3.h ****   #define   __I     volatile             /*!< Defines 'read only' permissions */
 166:Drivers/CMSIS/Include/core_cm3.h **** #else
 167:Drivers/CMSIS/Include/core_cm3.h ****   #define   __I     volatile const       /*!< Defines 'read only' permissions */
 168:Drivers/CMSIS/Include/core_cm3.h **** #endif
 169:Drivers/CMSIS/Include/core_cm3.h **** #define     __O     volatile             /*!< Defines 'write only' permissions */
 170:Drivers/CMSIS/Include/core_cm3.h **** #define     __IO    volatile             /*!< Defines 'read / write' permissions */
 171:Drivers/CMSIS/Include/core_cm3.h **** 
 172:Drivers/CMSIS/Include/core_cm3.h **** /* following defines should be used for structure members */
 173:Drivers/CMSIS/Include/core_cm3.h **** #define     __IM     volatile const      /*! Defines 'read only' structure member permissions */
 174:Drivers/CMSIS/Include/core_cm3.h **** #define     __OM     volatile            /*! Defines 'write only' structure member permissions */
 175:Drivers/CMSIS/Include/core_cm3.h **** #define     __IOM    volatile            /*! Defines 'read / write' structure member permissions */
 176:Drivers/CMSIS/Include/core_cm3.h **** 
 177:Drivers/CMSIS/Include/core_cm3.h **** /*@} end of group Cortex_M3 */
 178:Drivers/CMSIS/Include/core_cm3.h **** 
 179:Drivers/CMSIS/Include/core_cm3.h **** 
 180:Drivers/CMSIS/Include/core_cm3.h **** 
 181:Drivers/CMSIS/Include/core_cm3.h **** /*******************************************************************************
 182:Drivers/CMSIS/Include/core_cm3.h ****  *                 Register Abstraction
 183:Drivers/CMSIS/Include/core_cm3.h ****   Core Register contain:
 184:Drivers/CMSIS/Include/core_cm3.h ****   - Core Register
 185:Drivers/CMSIS/Include/core_cm3.h ****   - Core NVIC Register
 186:Drivers/CMSIS/Include/core_cm3.h ****   - Core SCB Register
 187:Drivers/CMSIS/Include/core_cm3.h ****   - Core SysTick Register
 188:Drivers/CMSIS/Include/core_cm3.h ****   - Core Debug Register
 189:Drivers/CMSIS/Include/core_cm3.h ****   - Core MPU Register
 190:Drivers/CMSIS/Include/core_cm3.h ****  ******************************************************************************/
 191:Drivers/CMSIS/Include/core_cm3.h **** /**
 192:Drivers/CMSIS/Include/core_cm3.h ****   \defgroup CMSIS_core_register Defines and Type Definitions
 193:Drivers/CMSIS/Include/core_cm3.h ****   \brief Type definitions and defines for Cortex-M processor based devices.
 194:Drivers/CMSIS/Include/core_cm3.h **** */
 195:Drivers/CMSIS/Include/core_cm3.h **** 
 196:Drivers/CMSIS/Include/core_cm3.h **** /**
 197:Drivers/CMSIS/Include/core_cm3.h ****   \ingroup    CMSIS_core_register
 198:Drivers/CMSIS/Include/core_cm3.h ****   \defgroup   CMSIS_CORE  Status and Control Registers
 199:Drivers/CMSIS/Include/core_cm3.h ****   \brief      Core Register type definitions.
 200:Drivers/CMSIS/Include/core_cm3.h ****   @{
 201:Drivers/CMSIS/Include/core_cm3.h ****  */
 202:Drivers/CMSIS/Include/core_cm3.h **** 
 203:Drivers/CMSIS/Include/core_cm3.h **** /**
 204:Drivers/CMSIS/Include/core_cm3.h ****   \brief  Union type to access the Application Program Status Register (APSR).
 205:Drivers/CMSIS/Include/core_cm3.h ****  */
 206:Drivers/CMSIS/Include/core_cm3.h **** typedef union
 207:Drivers/CMSIS/Include/core_cm3.h **** {
 208:Drivers/CMSIS/Include/core_cm3.h ****   struct
 209:Drivers/CMSIS/Include/core_cm3.h ****   {
ARM GAS  C:\Users\cedri\AppData\Local\Temp\ccZqcsPj.s 			page 18


 210:Drivers/CMSIS/Include/core_cm3.h ****     uint32_t _reserved0:27;              /*!< bit:  0..26  Reserved */
 211:Drivers/CMSIS/Include/core_cm3.h ****     uint32_t Q:1;                        /*!< bit:     27  Saturation condition flag */
 212:Drivers/CMSIS/Include/core_cm3.h ****     uint32_t V:1;                        /*!< bit:     28  Overflow condition code flag */
 213:Drivers/CMSIS/Include/core_cm3.h ****     uint32_t C:1;                        /*!< bit:     29  Carry condition code flag */
 214:Drivers/CMSIS/Include/core_cm3.h ****     uint32_t Z:1;                        /*!< bit:     30  Zero condition code flag */
 215:Drivers/CMSIS/Include/core_cm3.h ****     uint32_t N:1;                        /*!< bit:     31  Negative condition code flag */
 216:Drivers/CMSIS/Include/core_cm3.h ****   } b;                                   /*!< Structure used for bit  access */
 217:Drivers/CMSIS/Include/core_cm3.h ****   uint32_t w;                            /*!< Type      used for word access */
 218:Drivers/CMSIS/Include/core_cm3.h **** } APSR_Type;
 219:Drivers/CMSIS/Include/core_cm3.h **** 
 220:Drivers/CMSIS/Include/core_cm3.h **** /* APSR Register Definitions */
 221:Drivers/CMSIS/Include/core_cm3.h **** #define APSR_N_Pos                         31U                                            /*!< APSR
 222:Drivers/CMSIS/Include/core_cm3.h **** #define APSR_N_Msk                         (1UL << APSR_N_Pos)                            /*!< APSR
 223:Drivers/CMSIS/Include/core_cm3.h **** 
 224:Drivers/CMSIS/Include/core_cm3.h **** #define APSR_Z_Pos                         30U                                            /*!< APSR
 225:Drivers/CMSIS/Include/core_cm3.h **** #define APSR_Z_Msk                         (1UL << APSR_Z_Pos)                            /*!< APSR
 226:Drivers/CMSIS/Include/core_cm3.h **** 
 227:Drivers/CMSIS/Include/core_cm3.h **** #define APSR_C_Pos                         29U                                            /*!< APSR
 228:Drivers/CMSIS/Include/core_cm3.h **** #define APSR_C_Msk                         (1UL << APSR_C_Pos)                            /*!< APSR
 229:Drivers/CMSIS/Include/core_cm3.h **** 
 230:Drivers/CMSIS/Include/core_cm3.h **** #define APSR_V_Pos                         28U                                            /*!< APSR
 231:Drivers/CMSIS/Include/core_cm3.h **** #define APSR_V_Msk                         (1UL << APSR_V_Pos)                            /*!< APSR
 232:Drivers/CMSIS/Include/core_cm3.h **** 
 233:Drivers/CMSIS/Include/core_cm3.h **** #define APSR_Q_Pos                         27U                                            /*!< APSR
 234:Drivers/CMSIS/Include/core_cm3.h **** #define APSR_Q_Msk                         (1UL << APSR_Q_Pos)                            /*!< APSR
 235:Drivers/CMSIS/Include/core_cm3.h **** 
 236:Drivers/CMSIS/Include/core_cm3.h **** 
 237:Drivers/CMSIS/Include/core_cm3.h **** /**
 238:Drivers/CMSIS/Include/core_cm3.h ****   \brief  Union type to access the Interrupt Program Status Register (IPSR).
 239:Drivers/CMSIS/Include/core_cm3.h ****  */
 240:Drivers/CMSIS/Include/core_cm3.h **** typedef union
 241:Drivers/CMSIS/Include/core_cm3.h **** {
 242:Drivers/CMSIS/Include/core_cm3.h ****   struct
 243:Drivers/CMSIS/Include/core_cm3.h ****   {
 244:Drivers/CMSIS/Include/core_cm3.h ****     uint32_t ISR:9;                      /*!< bit:  0.. 8  Exception number */
 245:Drivers/CMSIS/Include/core_cm3.h ****     uint32_t _reserved0:23;              /*!< bit:  9..31  Reserved */
 246:Drivers/CMSIS/Include/core_cm3.h ****   } b;                                   /*!< Structure used for bit  access */
 247:Drivers/CMSIS/Include/core_cm3.h ****   uint32_t w;                            /*!< Type      used for word access */
 248:Drivers/CMSIS/Include/core_cm3.h **** } IPSR_Type;
 249:Drivers/CMSIS/Include/core_cm3.h **** 
 250:Drivers/CMSIS/Include/core_cm3.h **** /* IPSR Register Definitions */
 251:Drivers/CMSIS/Include/core_cm3.h **** #define IPSR_ISR_Pos                        0U                                            /*!< IPSR
 252:Drivers/CMSIS/Include/core_cm3.h **** #define IPSR_ISR_Msk                       (0x1FFUL /*<< IPSR_ISR_Pos*/)                  /*!< IPSR
 253:Drivers/CMSIS/Include/core_cm3.h **** 
 254:Drivers/CMSIS/Include/core_cm3.h **** 
 255:Drivers/CMSIS/Include/core_cm3.h **** /**
 256:Drivers/CMSIS/Include/core_cm3.h ****   \brief  Union type to access the Special-Purpose Program Status Registers (xPSR).
 257:Drivers/CMSIS/Include/core_cm3.h ****  */
 258:Drivers/CMSIS/Include/core_cm3.h **** typedef union
 259:Drivers/CMSIS/Include/core_cm3.h **** {
 260:Drivers/CMSIS/Include/core_cm3.h ****   struct
 261:Drivers/CMSIS/Include/core_cm3.h ****   {
 262:Drivers/CMSIS/Include/core_cm3.h ****     uint32_t ISR:9;                      /*!< bit:  0.. 8  Exception number */
 263:Drivers/CMSIS/Include/core_cm3.h ****     uint32_t _reserved0:1;               /*!< bit:      9  Reserved */
 264:Drivers/CMSIS/Include/core_cm3.h ****     uint32_t ICI_IT_1:6;                 /*!< bit: 10..15  ICI/IT part 1 */
 265:Drivers/CMSIS/Include/core_cm3.h ****     uint32_t _reserved1:8;               /*!< bit: 16..23  Reserved */
 266:Drivers/CMSIS/Include/core_cm3.h ****     uint32_t T:1;                        /*!< bit:     24  Thumb bit */
ARM GAS  C:\Users\cedri\AppData\Local\Temp\ccZqcsPj.s 			page 19


 267:Drivers/CMSIS/Include/core_cm3.h ****     uint32_t ICI_IT_2:2;                 /*!< bit: 25..26  ICI/IT part 2 */
 268:Drivers/CMSIS/Include/core_cm3.h ****     uint32_t Q:1;                        /*!< bit:     27  Saturation condition flag */
 269:Drivers/CMSIS/Include/core_cm3.h ****     uint32_t V:1;                        /*!< bit:     28  Overflow condition code flag */
 270:Drivers/CMSIS/Include/core_cm3.h ****     uint32_t C:1;                        /*!< bit:     29  Carry condition code flag */
 271:Drivers/CMSIS/Include/core_cm3.h ****     uint32_t Z:1;                        /*!< bit:     30  Zero condition code flag */
 272:Drivers/CMSIS/Include/core_cm3.h ****     uint32_t N:1;                        /*!< bit:     31  Negative condition code flag */
 273:Drivers/CMSIS/Include/core_cm3.h ****   } b;                                   /*!< Structure used for bit  access */
 274:Drivers/CMSIS/Include/core_cm3.h ****   uint32_t w;                            /*!< Type      used for word access */
 275:Drivers/CMSIS/Include/core_cm3.h **** } xPSR_Type;
 276:Drivers/CMSIS/Include/core_cm3.h **** 
 277:Drivers/CMSIS/Include/core_cm3.h **** /* xPSR Register Definitions */
 278:Drivers/CMSIS/Include/core_cm3.h **** #define xPSR_N_Pos                         31U                                            /*!< xPSR
 279:Drivers/CMSIS/Include/core_cm3.h **** #define xPSR_N_Msk                         (1UL << xPSR_N_Pos)                            /*!< xPSR
 280:Drivers/CMSIS/Include/core_cm3.h **** 
 281:Drivers/CMSIS/Include/core_cm3.h **** #define xPSR_Z_Pos                         30U                                            /*!< xPSR
 282:Drivers/CMSIS/Include/core_cm3.h **** #define xPSR_Z_Msk                         (1UL << xPSR_Z_Pos)                            /*!< xPSR
 283:Drivers/CMSIS/Include/core_cm3.h **** 
 284:Drivers/CMSIS/Include/core_cm3.h **** #define xPSR_C_Pos                         29U                                            /*!< xPSR
 285:Drivers/CMSIS/Include/core_cm3.h **** #define xPSR_C_Msk                         (1UL << xPSR_C_Pos)                            /*!< xPSR
 286:Drivers/CMSIS/Include/core_cm3.h **** 
 287:Drivers/CMSIS/Include/core_cm3.h **** #define xPSR_V_Pos                         28U                                            /*!< xPSR
 288:Drivers/CMSIS/Include/core_cm3.h **** #define xPSR_V_Msk                         (1UL << xPSR_V_Pos)                            /*!< xPSR
 289:Drivers/CMSIS/Include/core_cm3.h **** 
 290:Drivers/CMSIS/Include/core_cm3.h **** #define xPSR_Q_Pos                         27U                                            /*!< xPSR
 291:Drivers/CMSIS/Include/core_cm3.h **** #define xPSR_Q_Msk                         (1UL << xPSR_Q_Pos)                            /*!< xPSR
 292:Drivers/CMSIS/Include/core_cm3.h **** 
 293:Drivers/CMSIS/Include/core_cm3.h **** #define xPSR_ICI_IT_2_Pos                  25U                                            /*!< xPSR
 294:Drivers/CMSIS/Include/core_cm3.h **** #define xPSR_ICI_IT_2_Msk                  (3UL << xPSR_ICI_IT_2_Pos)                     /*!< xPSR
 295:Drivers/CMSIS/Include/core_cm3.h **** 
 296:Drivers/CMSIS/Include/core_cm3.h **** #define xPSR_T_Pos                         24U                                            /*!< xPSR
 297:Drivers/CMSIS/Include/core_cm3.h **** #define xPSR_T_Msk                         (1UL << xPSR_T_Pos)                            /*!< xPSR
 298:Drivers/CMSIS/Include/core_cm3.h **** 
 299:Drivers/CMSIS/Include/core_cm3.h **** #define xPSR_ICI_IT_1_Pos                  10U                                            /*!< xPSR
 300:Drivers/CMSIS/Include/core_cm3.h **** #define xPSR_ICI_IT_1_Msk                  (0x3FUL << xPSR_ICI_IT_1_Pos)                  /*!< xPSR
 301:Drivers/CMSIS/Include/core_cm3.h **** 
 302:Drivers/CMSIS/Include/core_cm3.h **** #define xPSR_ISR_Pos                        0U                                            /*!< xPSR
 303:Drivers/CMSIS/Include/core_cm3.h **** #define xPSR_ISR_Msk                       (0x1FFUL /*<< xPSR_ISR_Pos*/)                  /*!< xPSR
 304:Drivers/CMSIS/Include/core_cm3.h **** 
 305:Drivers/CMSIS/Include/core_cm3.h **** 
 306:Drivers/CMSIS/Include/core_cm3.h **** /**
 307:Drivers/CMSIS/Include/core_cm3.h ****   \brief  Union type to access the Control Registers (CONTROL).
 308:Drivers/CMSIS/Include/core_cm3.h ****  */
 309:Drivers/CMSIS/Include/core_cm3.h **** typedef union
 310:Drivers/CMSIS/Include/core_cm3.h **** {
 311:Drivers/CMSIS/Include/core_cm3.h ****   struct
 312:Drivers/CMSIS/Include/core_cm3.h ****   {
 313:Drivers/CMSIS/Include/core_cm3.h ****     uint32_t nPRIV:1;                    /*!< bit:      0  Execution privilege in Thread mode */
 314:Drivers/CMSIS/Include/core_cm3.h ****     uint32_t SPSEL:1;                    /*!< bit:      1  Stack to be used */
 315:Drivers/CMSIS/Include/core_cm3.h ****     uint32_t _reserved1:30;              /*!< bit:  2..31  Reserved */
 316:Drivers/CMSIS/Include/core_cm3.h ****   } b;                                   /*!< Structure used for bit  access */
 317:Drivers/CMSIS/Include/core_cm3.h ****   uint32_t w;                            /*!< Type      used for word access */
 318:Drivers/CMSIS/Include/core_cm3.h **** } CONTROL_Type;
 319:Drivers/CMSIS/Include/core_cm3.h **** 
 320:Drivers/CMSIS/Include/core_cm3.h **** /* CONTROL Register Definitions */
 321:Drivers/CMSIS/Include/core_cm3.h **** #define CONTROL_SPSEL_Pos                   1U                                            /*!< CONT
 322:Drivers/CMSIS/Include/core_cm3.h **** #define CONTROL_SPSEL_Msk                  (1UL << CONTROL_SPSEL_Pos)                     /*!< CONT
 323:Drivers/CMSIS/Include/core_cm3.h **** 
ARM GAS  C:\Users\cedri\AppData\Local\Temp\ccZqcsPj.s 			page 20


 324:Drivers/CMSIS/Include/core_cm3.h **** #define CONTROL_nPRIV_Pos                   0U                                            /*!< CONT
 325:Drivers/CMSIS/Include/core_cm3.h **** #define CONTROL_nPRIV_Msk                  (1UL /*<< CONTROL_nPRIV_Pos*/)                 /*!< CONT
 326:Drivers/CMSIS/Include/core_cm3.h **** 
 327:Drivers/CMSIS/Include/core_cm3.h **** /*@} end of group CMSIS_CORE */
 328:Drivers/CMSIS/Include/core_cm3.h **** 
 329:Drivers/CMSIS/Include/core_cm3.h **** 
 330:Drivers/CMSIS/Include/core_cm3.h **** /**
 331:Drivers/CMSIS/Include/core_cm3.h ****   \ingroup    CMSIS_core_register
 332:Drivers/CMSIS/Include/core_cm3.h ****   \defgroup   CMSIS_NVIC  Nested Vectored Interrupt Controller (NVIC)
 333:Drivers/CMSIS/Include/core_cm3.h ****   \brief      Type definitions for the NVIC Registers
 334:Drivers/CMSIS/Include/core_cm3.h ****   @{
 335:Drivers/CMSIS/Include/core_cm3.h ****  */
 336:Drivers/CMSIS/Include/core_cm3.h **** 
 337:Drivers/CMSIS/Include/core_cm3.h **** /**
 338:Drivers/CMSIS/Include/core_cm3.h ****   \brief  Structure type to access the Nested Vectored Interrupt Controller (NVIC).
 339:Drivers/CMSIS/Include/core_cm3.h ****  */
 340:Drivers/CMSIS/Include/core_cm3.h **** typedef struct
 341:Drivers/CMSIS/Include/core_cm3.h **** {
 342:Drivers/CMSIS/Include/core_cm3.h ****   __IOM uint32_t ISER[8U];               /*!< Offset: 0x000 (R/W)  Interrupt Set Enable Register */
 343:Drivers/CMSIS/Include/core_cm3.h ****         uint32_t RESERVED0[24U];
 344:Drivers/CMSIS/Include/core_cm3.h ****   __IOM uint32_t ICER[8U];               /*!< Offset: 0x080 (R/W)  Interrupt Clear Enable Register 
 345:Drivers/CMSIS/Include/core_cm3.h ****         uint32_t RSERVED1[24U];
 346:Drivers/CMSIS/Include/core_cm3.h ****   __IOM uint32_t ISPR[8U];               /*!< Offset: 0x100 (R/W)  Interrupt Set Pending Register *
 347:Drivers/CMSIS/Include/core_cm3.h ****         uint32_t RESERVED2[24U];
 348:Drivers/CMSIS/Include/core_cm3.h ****   __IOM uint32_t ICPR[8U];               /*!< Offset: 0x180 (R/W)  Interrupt Clear Pending Register
 349:Drivers/CMSIS/Include/core_cm3.h ****         uint32_t RESERVED3[24U];
 350:Drivers/CMSIS/Include/core_cm3.h ****   __IOM uint32_t IABR[8U];               /*!< Offset: 0x200 (R/W)  Interrupt Active bit Register */
 351:Drivers/CMSIS/Include/core_cm3.h ****         uint32_t RESERVED4[56U];
 352:Drivers/CMSIS/Include/core_cm3.h ****   __IOM uint8_t  IP[240U];               /*!< Offset: 0x300 (R/W)  Interrupt Priority Register (8Bi
 353:Drivers/CMSIS/Include/core_cm3.h ****         uint32_t RESERVED5[644U];
 354:Drivers/CMSIS/Include/core_cm3.h ****   __OM  uint32_t STIR;                   /*!< Offset: 0xE00 ( /W)  Software Trigger Interrupt Regis
 355:Drivers/CMSIS/Include/core_cm3.h **** }  NVIC_Type;
 356:Drivers/CMSIS/Include/core_cm3.h **** 
 357:Drivers/CMSIS/Include/core_cm3.h **** /* Software Triggered Interrupt Register Definitions */
 358:Drivers/CMSIS/Include/core_cm3.h **** #define NVIC_STIR_INTID_Pos                 0U                                         /*!< STIR: I
 359:Drivers/CMSIS/Include/core_cm3.h **** #define NVIC_STIR_INTID_Msk                (0x1FFUL /*<< NVIC_STIR_INTID_Pos*/)        /*!< STIR: I
 360:Drivers/CMSIS/Include/core_cm3.h **** 
 361:Drivers/CMSIS/Include/core_cm3.h **** /*@} end of group CMSIS_NVIC */
 362:Drivers/CMSIS/Include/core_cm3.h **** 
 363:Drivers/CMSIS/Include/core_cm3.h **** 
 364:Drivers/CMSIS/Include/core_cm3.h **** /**
 365:Drivers/CMSIS/Include/core_cm3.h ****   \ingroup  CMSIS_core_register
 366:Drivers/CMSIS/Include/core_cm3.h ****   \defgroup CMSIS_SCB     System Control Block (SCB)
 367:Drivers/CMSIS/Include/core_cm3.h ****   \brief    Type definitions for the System Control Block Registers
 368:Drivers/CMSIS/Include/core_cm3.h ****   @{
 369:Drivers/CMSIS/Include/core_cm3.h ****  */
 370:Drivers/CMSIS/Include/core_cm3.h **** 
 371:Drivers/CMSIS/Include/core_cm3.h **** /**
 372:Drivers/CMSIS/Include/core_cm3.h ****   \brief  Structure type to access the System Control Block (SCB).
 373:Drivers/CMSIS/Include/core_cm3.h ****  */
 374:Drivers/CMSIS/Include/core_cm3.h **** typedef struct
 375:Drivers/CMSIS/Include/core_cm3.h **** {
 376:Drivers/CMSIS/Include/core_cm3.h ****   __IM  uint32_t CPUID;                  /*!< Offset: 0x000 (R/ )  CPUID Base Register */
 377:Drivers/CMSIS/Include/core_cm3.h ****   __IOM uint32_t ICSR;                   /*!< Offset: 0x004 (R/W)  Interrupt Control and State Regi
 378:Drivers/CMSIS/Include/core_cm3.h ****   __IOM uint32_t VTOR;                   /*!< Offset: 0x008 (R/W)  Vector Table Offset Register */
 379:Drivers/CMSIS/Include/core_cm3.h ****   __IOM uint32_t AIRCR;                  /*!< Offset: 0x00C (R/W)  Application Interrupt and Reset 
 380:Drivers/CMSIS/Include/core_cm3.h ****   __IOM uint32_t SCR;                    /*!< Offset: 0x010 (R/W)  System Control Register */
ARM GAS  C:\Users\cedri\AppData\Local\Temp\ccZqcsPj.s 			page 21


 381:Drivers/CMSIS/Include/core_cm3.h ****   __IOM uint32_t CCR;                    /*!< Offset: 0x014 (R/W)  Configuration Control Register *
 382:Drivers/CMSIS/Include/core_cm3.h ****   __IOM uint8_t  SHP[12U];               /*!< Offset: 0x018 (R/W)  System Handlers Priority Registe
 383:Drivers/CMSIS/Include/core_cm3.h ****   __IOM uint32_t SHCSR;                  /*!< Offset: 0x024 (R/W)  System Handler Control and State
 384:Drivers/CMSIS/Include/core_cm3.h ****   __IOM uint32_t CFSR;                   /*!< Offset: 0x028 (R/W)  Configurable Fault Status Regist
 385:Drivers/CMSIS/Include/core_cm3.h ****   __IOM uint32_t HFSR;                   /*!< Offset: 0x02C (R/W)  HardFault Status Register */
 386:Drivers/CMSIS/Include/core_cm3.h ****   __IOM uint32_t DFSR;                   /*!< Offset: 0x030 (R/W)  Debug Fault Status Register */
 387:Drivers/CMSIS/Include/core_cm3.h ****   __IOM uint32_t MMFAR;                  /*!< Offset: 0x034 (R/W)  MemManage Fault Address Register
 388:Drivers/CMSIS/Include/core_cm3.h ****   __IOM uint32_t BFAR;                   /*!< Offset: 0x038 (R/W)  BusFault Address Register */
 389:Drivers/CMSIS/Include/core_cm3.h ****   __IOM uint32_t AFSR;                   /*!< Offset: 0x03C (R/W)  Auxiliary Fault Status Register 
 390:Drivers/CMSIS/Include/core_cm3.h ****   __IM  uint32_t PFR[2U];                /*!< Offset: 0x040 (R/ )  Processor Feature Register */
 391:Drivers/CMSIS/Include/core_cm3.h ****   __IM  uint32_t DFR;                    /*!< Offset: 0x048 (R/ )  Debug Feature Register */
 392:Drivers/CMSIS/Include/core_cm3.h ****   __IM  uint32_t ADR;                    /*!< Offset: 0x04C (R/ )  Auxiliary Feature Register */
 393:Drivers/CMSIS/Include/core_cm3.h ****   __IM  uint32_t MMFR[4U];               /*!< Offset: 0x050 (R/ )  Memory Model Feature Register */
 394:Drivers/CMSIS/Include/core_cm3.h ****   __IM  uint32_t ISAR[5U];               /*!< Offset: 0x060 (R/ )  Instruction Set Attributes Regis
 395:Drivers/CMSIS/Include/core_cm3.h ****         uint32_t RESERVED0[5U];
 396:Drivers/CMSIS/Include/core_cm3.h ****   __IOM uint32_t CPACR;                  /*!< Offset: 0x088 (R/W)  Coprocessor Access Control Regis
 397:Drivers/CMSIS/Include/core_cm3.h **** } SCB_Type;
 398:Drivers/CMSIS/Include/core_cm3.h **** 
 399:Drivers/CMSIS/Include/core_cm3.h **** /* SCB CPUID Register Definitions */
 400:Drivers/CMSIS/Include/core_cm3.h **** #define SCB_CPUID_IMPLEMENTER_Pos          24U                                            /*!< SCB 
 401:Drivers/CMSIS/Include/core_cm3.h **** #define SCB_CPUID_IMPLEMENTER_Msk          (0xFFUL << SCB_CPUID_IMPLEMENTER_Pos)          /*!< SCB 
 402:Drivers/CMSIS/Include/core_cm3.h **** 
 403:Drivers/CMSIS/Include/core_cm3.h **** #define SCB_CPUID_VARIANT_Pos              20U                                            /*!< SCB 
 404:Drivers/CMSIS/Include/core_cm3.h **** #define SCB_CPUID_VARIANT_Msk              (0xFUL << SCB_CPUID_VARIANT_Pos)               /*!< SCB 
 405:Drivers/CMSIS/Include/core_cm3.h **** 
 406:Drivers/CMSIS/Include/core_cm3.h **** #define SCB_CPUID_ARCHITECTURE_Pos         16U                                            /*!< SCB 
 407:Drivers/CMSIS/Include/core_cm3.h **** #define SCB_CPUID_ARCHITECTURE_Msk         (0xFUL << SCB_CPUID_ARCHITECTURE_Pos)          /*!< SCB 
 408:Drivers/CMSIS/Include/core_cm3.h **** 
 409:Drivers/CMSIS/Include/core_cm3.h **** #define SCB_CPUID_PARTNO_Pos                4U                                            /*!< SCB 
 410:Drivers/CMSIS/Include/core_cm3.h **** #define SCB_CPUID_PARTNO_Msk               (0xFFFUL << SCB_CPUID_PARTNO_Pos)              /*!< SCB 
 411:Drivers/CMSIS/Include/core_cm3.h **** 
 412:Drivers/CMSIS/Include/core_cm3.h **** #define SCB_CPUID_REVISION_Pos              0U                                            /*!< SCB 
 413:Drivers/CMSIS/Include/core_cm3.h **** #define SCB_CPUID_REVISION_Msk             (0xFUL /*<< SCB_CPUID_REVISION_Pos*/)          /*!< SCB 
 414:Drivers/CMSIS/Include/core_cm3.h **** 
 415:Drivers/CMSIS/Include/core_cm3.h **** /* SCB Interrupt Control State Register Definitions */
 416:Drivers/CMSIS/Include/core_cm3.h **** #define SCB_ICSR_NMIPENDSET_Pos            31U                                            /*!< SCB 
 417:Drivers/CMSIS/Include/core_cm3.h **** #define SCB_ICSR_NMIPENDSET_Msk            (1UL << SCB_ICSR_NMIPENDSET_Pos)               /*!< SCB 
 418:Drivers/CMSIS/Include/core_cm3.h **** 
 419:Drivers/CMSIS/Include/core_cm3.h **** #define SCB_ICSR_PENDSVSET_Pos             28U                                            /*!< SCB 
 420:Drivers/CMSIS/Include/core_cm3.h **** #define SCB_ICSR_PENDSVSET_Msk             (1UL << SCB_ICSR_PENDSVSET_Pos)                /*!< SCB 
 421:Drivers/CMSIS/Include/core_cm3.h **** 
 422:Drivers/CMSIS/Include/core_cm3.h **** #define SCB_ICSR_PENDSVCLR_Pos             27U                                            /*!< SCB 
 423:Drivers/CMSIS/Include/core_cm3.h **** #define SCB_ICSR_PENDSVCLR_Msk             (1UL << SCB_ICSR_PENDSVCLR_Pos)                /*!< SCB 
 424:Drivers/CMSIS/Include/core_cm3.h **** 
 425:Drivers/CMSIS/Include/core_cm3.h **** #define SCB_ICSR_PENDSTSET_Pos             26U                                            /*!< SCB 
 426:Drivers/CMSIS/Include/core_cm3.h **** #define SCB_ICSR_PENDSTSET_Msk             (1UL << SCB_ICSR_PENDSTSET_Pos)                /*!< SCB 
 427:Drivers/CMSIS/Include/core_cm3.h **** 
 428:Drivers/CMSIS/Include/core_cm3.h **** #define SCB_ICSR_PENDSTCLR_Pos             25U                                            /*!< SCB 
 429:Drivers/CMSIS/Include/core_cm3.h **** #define SCB_ICSR_PENDSTCLR_Msk             (1UL << SCB_ICSR_PENDSTCLR_Pos)                /*!< SCB 
 430:Drivers/CMSIS/Include/core_cm3.h **** 
 431:Drivers/CMSIS/Include/core_cm3.h **** #define SCB_ICSR_ISRPREEMPT_Pos            23U                                            /*!< SCB 
 432:Drivers/CMSIS/Include/core_cm3.h **** #define SCB_ICSR_ISRPREEMPT_Msk            (1UL << SCB_ICSR_ISRPREEMPT_Pos)               /*!< SCB 
 433:Drivers/CMSIS/Include/core_cm3.h **** 
 434:Drivers/CMSIS/Include/core_cm3.h **** #define SCB_ICSR_ISRPENDING_Pos            22U                                            /*!< SCB 
 435:Drivers/CMSIS/Include/core_cm3.h **** #define SCB_ICSR_ISRPENDING_Msk            (1UL << SCB_ICSR_ISRPENDING_Pos)               /*!< SCB 
 436:Drivers/CMSIS/Include/core_cm3.h **** 
 437:Drivers/CMSIS/Include/core_cm3.h **** #define SCB_ICSR_VECTPENDING_Pos           12U                                            /*!< SCB 
ARM GAS  C:\Users\cedri\AppData\Local\Temp\ccZqcsPj.s 			page 22


 438:Drivers/CMSIS/Include/core_cm3.h **** #define SCB_ICSR_VECTPENDING_Msk           (0x1FFUL << SCB_ICSR_VECTPENDING_Pos)          /*!< SCB 
 439:Drivers/CMSIS/Include/core_cm3.h **** 
 440:Drivers/CMSIS/Include/core_cm3.h **** #define SCB_ICSR_RETTOBASE_Pos             11U                                            /*!< SCB 
 441:Drivers/CMSIS/Include/core_cm3.h **** #define SCB_ICSR_RETTOBASE_Msk             (1UL << SCB_ICSR_RETTOBASE_Pos)                /*!< SCB 
 442:Drivers/CMSIS/Include/core_cm3.h **** 
 443:Drivers/CMSIS/Include/core_cm3.h **** #define SCB_ICSR_VECTACTIVE_Pos             0U                                            /*!< SCB 
 444:Drivers/CMSIS/Include/core_cm3.h **** #define SCB_ICSR_VECTACTIVE_Msk            (0x1FFUL /*<< SCB_ICSR_VECTACTIVE_Pos*/)       /*!< SCB 
 445:Drivers/CMSIS/Include/core_cm3.h **** 
 446:Drivers/CMSIS/Include/core_cm3.h **** /* SCB Vector Table Offset Register Definitions */
 447:Drivers/CMSIS/Include/core_cm3.h **** #if defined (__CM3_REV) && (__CM3_REV < 0x0201U)                   /* core r2p1 */
 448:Drivers/CMSIS/Include/core_cm3.h **** #define SCB_VTOR_TBLBASE_Pos               29U                                            /*!< SCB 
 449:Drivers/CMSIS/Include/core_cm3.h **** #define SCB_VTOR_TBLBASE_Msk               (1UL << SCB_VTOR_TBLBASE_Pos)                  /*!< SCB 
 450:Drivers/CMSIS/Include/core_cm3.h **** 
 451:Drivers/CMSIS/Include/core_cm3.h **** #define SCB_VTOR_TBLOFF_Pos                 7U                                            /*!< SCB 
 452:Drivers/CMSIS/Include/core_cm3.h **** #define SCB_VTOR_TBLOFF_Msk                (0x3FFFFFUL << SCB_VTOR_TBLOFF_Pos)            /*!< SCB 
 453:Drivers/CMSIS/Include/core_cm3.h **** #else
 454:Drivers/CMSIS/Include/core_cm3.h **** #define SCB_VTOR_TBLOFF_Pos                 7U                                            /*!< SCB 
 455:Drivers/CMSIS/Include/core_cm3.h **** #define SCB_VTOR_TBLOFF_Msk                (0x1FFFFFFUL << SCB_VTOR_TBLOFF_Pos)           /*!< SCB 
 456:Drivers/CMSIS/Include/core_cm3.h **** #endif
 457:Drivers/CMSIS/Include/core_cm3.h **** 
 458:Drivers/CMSIS/Include/core_cm3.h **** /* SCB Application Interrupt and Reset Control Register Definitions */
 459:Drivers/CMSIS/Include/core_cm3.h **** #define SCB_AIRCR_VECTKEY_Pos              16U                                            /*!< SCB 
 460:Drivers/CMSIS/Include/core_cm3.h **** #define SCB_AIRCR_VECTKEY_Msk              (0xFFFFUL << SCB_AIRCR_VECTKEY_Pos)            /*!< SCB 
 461:Drivers/CMSIS/Include/core_cm3.h **** 
 462:Drivers/CMSIS/Include/core_cm3.h **** #define SCB_AIRCR_VECTKEYSTAT_Pos          16U                                            /*!< SCB 
 463:Drivers/CMSIS/Include/core_cm3.h **** #define SCB_AIRCR_VECTKEYSTAT_Msk          (0xFFFFUL << SCB_AIRCR_VECTKEYSTAT_Pos)        /*!< SCB 
 464:Drivers/CMSIS/Include/core_cm3.h **** 
 465:Drivers/CMSIS/Include/core_cm3.h **** #define SCB_AIRCR_ENDIANESS_Pos            15U                                            /*!< SCB 
 466:Drivers/CMSIS/Include/core_cm3.h **** #define SCB_AIRCR_ENDIANESS_Msk            (1UL << SCB_AIRCR_ENDIANESS_Pos)               /*!< SCB 
 467:Drivers/CMSIS/Include/core_cm3.h **** 
 468:Drivers/CMSIS/Include/core_cm3.h **** #define SCB_AIRCR_PRIGROUP_Pos              8U                                            /*!< SCB 
 469:Drivers/CMSIS/Include/core_cm3.h **** #define SCB_AIRCR_PRIGROUP_Msk             (7UL << SCB_AIRCR_PRIGROUP_Pos)                /*!< SCB 
 470:Drivers/CMSIS/Include/core_cm3.h **** 
 471:Drivers/CMSIS/Include/core_cm3.h **** #define SCB_AIRCR_SYSRESETREQ_Pos           2U                                            /*!< SCB 
 472:Drivers/CMSIS/Include/core_cm3.h **** #define SCB_AIRCR_SYSRESETREQ_Msk          (1UL << SCB_AIRCR_SYSRESETREQ_Pos)             /*!< SCB 
 473:Drivers/CMSIS/Include/core_cm3.h **** 
 474:Drivers/CMSIS/Include/core_cm3.h **** #define SCB_AIRCR_VECTCLRACTIVE_Pos         1U                                            /*!< SCB 
 475:Drivers/CMSIS/Include/core_cm3.h **** #define SCB_AIRCR_VECTCLRACTIVE_Msk        (1UL << SCB_AIRCR_VECTCLRACTIVE_Pos)           /*!< SCB 
 476:Drivers/CMSIS/Include/core_cm3.h **** 
 477:Drivers/CMSIS/Include/core_cm3.h **** #define SCB_AIRCR_VECTRESET_Pos             0U                                            /*!< SCB 
 478:Drivers/CMSIS/Include/core_cm3.h **** #define SCB_AIRCR_VECTRESET_Msk            (1UL /*<< SCB_AIRCR_VECTRESET_Pos*/)           /*!< SCB 
 479:Drivers/CMSIS/Include/core_cm3.h **** 
 480:Drivers/CMSIS/Include/core_cm3.h **** /* SCB System Control Register Definitions */
 481:Drivers/CMSIS/Include/core_cm3.h **** #define SCB_SCR_SEVONPEND_Pos               4U                                            /*!< SCB 
 482:Drivers/CMSIS/Include/core_cm3.h **** #define SCB_SCR_SEVONPEND_Msk              (1UL << SCB_SCR_SEVONPEND_Pos)                 /*!< SCB 
 483:Drivers/CMSIS/Include/core_cm3.h **** 
 484:Drivers/CMSIS/Include/core_cm3.h **** #define SCB_SCR_SLEEPDEEP_Pos               2U                                            /*!< SCB 
 485:Drivers/CMSIS/Include/core_cm3.h **** #define SCB_SCR_SLEEPDEEP_Msk              (1UL << SCB_SCR_SLEEPDEEP_Pos)                 /*!< SCB 
 486:Drivers/CMSIS/Include/core_cm3.h **** 
 487:Drivers/CMSIS/Include/core_cm3.h **** #define SCB_SCR_SLEEPONEXIT_Pos             1U                                            /*!< SCB 
 488:Drivers/CMSIS/Include/core_cm3.h **** #define SCB_SCR_SLEEPONEXIT_Msk            (1UL << SCB_SCR_SLEEPONEXIT_Pos)               /*!< SCB 
 489:Drivers/CMSIS/Include/core_cm3.h **** 
 490:Drivers/CMSIS/Include/core_cm3.h **** /* SCB Configuration Control Register Definitions */
 491:Drivers/CMSIS/Include/core_cm3.h **** #define SCB_CCR_STKALIGN_Pos                9U                                            /*!< SCB 
 492:Drivers/CMSIS/Include/core_cm3.h **** #define SCB_CCR_STKALIGN_Msk               (1UL << SCB_CCR_STKALIGN_Pos)                  /*!< SCB 
 493:Drivers/CMSIS/Include/core_cm3.h **** 
 494:Drivers/CMSIS/Include/core_cm3.h **** #define SCB_CCR_BFHFNMIGN_Pos               8U                                            /*!< SCB 
ARM GAS  C:\Users\cedri\AppData\Local\Temp\ccZqcsPj.s 			page 23


 495:Drivers/CMSIS/Include/core_cm3.h **** #define SCB_CCR_BFHFNMIGN_Msk              (1UL << SCB_CCR_BFHFNMIGN_Pos)                 /*!< SCB 
 496:Drivers/CMSIS/Include/core_cm3.h **** 
 497:Drivers/CMSIS/Include/core_cm3.h **** #define SCB_CCR_DIV_0_TRP_Pos               4U                                            /*!< SCB 
 498:Drivers/CMSIS/Include/core_cm3.h **** #define SCB_CCR_DIV_0_TRP_Msk              (1UL << SCB_CCR_DIV_0_TRP_Pos)                 /*!< SCB 
 499:Drivers/CMSIS/Include/core_cm3.h **** 
 500:Drivers/CMSIS/Include/core_cm3.h **** #define SCB_CCR_UNALIGN_TRP_Pos             3U                                            /*!< SCB 
 501:Drivers/CMSIS/Include/core_cm3.h **** #define SCB_CCR_UNALIGN_TRP_Msk            (1UL << SCB_CCR_UNALIGN_TRP_Pos)               /*!< SCB 
 502:Drivers/CMSIS/Include/core_cm3.h **** 
 503:Drivers/CMSIS/Include/core_cm3.h **** #define SCB_CCR_USERSETMPEND_Pos            1U                                            /*!< SCB 
 504:Drivers/CMSIS/Include/core_cm3.h **** #define SCB_CCR_USERSETMPEND_Msk           (1UL << SCB_CCR_USERSETMPEND_Pos)              /*!< SCB 
 505:Drivers/CMSIS/Include/core_cm3.h **** 
 506:Drivers/CMSIS/Include/core_cm3.h **** #define SCB_CCR_NONBASETHRDENA_Pos          0U                                            /*!< SCB 
 507:Drivers/CMSIS/Include/core_cm3.h **** #define SCB_CCR_NONBASETHRDENA_Msk         (1UL /*<< SCB_CCR_NONBASETHRDENA_Pos*/)        /*!< SCB 
 508:Drivers/CMSIS/Include/core_cm3.h **** 
 509:Drivers/CMSIS/Include/core_cm3.h **** /* SCB System Handler Control and State Register Definitions */
 510:Drivers/CMSIS/Include/core_cm3.h **** #define SCB_SHCSR_USGFAULTENA_Pos          18U                                            /*!< SCB 
 511:Drivers/CMSIS/Include/core_cm3.h **** #define SCB_SHCSR_USGFAULTENA_Msk          (1UL << SCB_SHCSR_USGFAULTENA_Pos)             /*!< SCB 
 512:Drivers/CMSIS/Include/core_cm3.h **** 
 513:Drivers/CMSIS/Include/core_cm3.h **** #define SCB_SHCSR_BUSFAULTENA_Pos          17U                                            /*!< SCB 
 514:Drivers/CMSIS/Include/core_cm3.h **** #define SCB_SHCSR_BUSFAULTENA_Msk          (1UL << SCB_SHCSR_BUSFAULTENA_Pos)             /*!< SCB 
 515:Drivers/CMSIS/Include/core_cm3.h **** 
 516:Drivers/CMSIS/Include/core_cm3.h **** #define SCB_SHCSR_MEMFAULTENA_Pos          16U                                            /*!< SCB 
 517:Drivers/CMSIS/Include/core_cm3.h **** #define SCB_SHCSR_MEMFAULTENA_Msk          (1UL << SCB_SHCSR_MEMFAULTENA_Pos)             /*!< SCB 
 518:Drivers/CMSIS/Include/core_cm3.h **** 
 519:Drivers/CMSIS/Include/core_cm3.h **** #define SCB_SHCSR_SVCALLPENDED_Pos         15U                                            /*!< SCB 
 520:Drivers/CMSIS/Include/core_cm3.h **** #define SCB_SHCSR_SVCALLPENDED_Msk         (1UL << SCB_SHCSR_SVCALLPENDED_Pos)            /*!< SCB 
 521:Drivers/CMSIS/Include/core_cm3.h **** 
 522:Drivers/CMSIS/Include/core_cm3.h **** #define SCB_SHCSR_BUSFAULTPENDED_Pos       14U                                            /*!< SCB 
 523:Drivers/CMSIS/Include/core_cm3.h **** #define SCB_SHCSR_BUSFAULTPENDED_Msk       (1UL << SCB_SHCSR_BUSFAULTPENDED_Pos)          /*!< SCB 
 524:Drivers/CMSIS/Include/core_cm3.h **** 
 525:Drivers/CMSIS/Include/core_cm3.h **** #define SCB_SHCSR_MEMFAULTPENDED_Pos       13U                                            /*!< SCB 
 526:Drivers/CMSIS/Include/core_cm3.h **** #define SCB_SHCSR_MEMFAULTPENDED_Msk       (1UL << SCB_SHCSR_MEMFAULTPENDED_Pos)          /*!< SCB 
 527:Drivers/CMSIS/Include/core_cm3.h **** 
 528:Drivers/CMSIS/Include/core_cm3.h **** #define SCB_SHCSR_USGFAULTPENDED_Pos       12U                                            /*!< SCB 
 529:Drivers/CMSIS/Include/core_cm3.h **** #define SCB_SHCSR_USGFAULTPENDED_Msk       (1UL << SCB_SHCSR_USGFAULTPENDED_Pos)          /*!< SCB 
 530:Drivers/CMSIS/Include/core_cm3.h **** 
 531:Drivers/CMSIS/Include/core_cm3.h **** #define SCB_SHCSR_SYSTICKACT_Pos           11U                                            /*!< SCB 
 532:Drivers/CMSIS/Include/core_cm3.h **** #define SCB_SHCSR_SYSTICKACT_Msk           (1UL << SCB_SHCSR_SYSTICKACT_Pos)              /*!< SCB 
 533:Drivers/CMSIS/Include/core_cm3.h **** 
 534:Drivers/CMSIS/Include/core_cm3.h **** #define SCB_SHCSR_PENDSVACT_Pos            10U                                            /*!< SCB 
 535:Drivers/CMSIS/Include/core_cm3.h **** #define SCB_SHCSR_PENDSVACT_Msk            (1UL << SCB_SHCSR_PENDSVACT_Pos)               /*!< SCB 
 536:Drivers/CMSIS/Include/core_cm3.h **** 
 537:Drivers/CMSIS/Include/core_cm3.h **** #define SCB_SHCSR_MONITORACT_Pos            8U                                            /*!< SCB 
 538:Drivers/CMSIS/Include/core_cm3.h **** #define SCB_SHCSR_MONITORACT_Msk           (1UL << SCB_SHCSR_MONITORACT_Pos)              /*!< SCB 
 539:Drivers/CMSIS/Include/core_cm3.h **** 
 540:Drivers/CMSIS/Include/core_cm3.h **** #define SCB_SHCSR_SVCALLACT_Pos             7U                                            /*!< SCB 
 541:Drivers/CMSIS/Include/core_cm3.h **** #define SCB_SHCSR_SVCALLACT_Msk            (1UL << SCB_SHCSR_SVCALLACT_Pos)               /*!< SCB 
 542:Drivers/CMSIS/Include/core_cm3.h **** 
 543:Drivers/CMSIS/Include/core_cm3.h **** #define SCB_SHCSR_USGFAULTACT_Pos           3U                                            /*!< SCB 
 544:Drivers/CMSIS/Include/core_cm3.h **** #define SCB_SHCSR_USGFAULTACT_Msk          (1UL << SCB_SHCSR_USGFAULTACT_Pos)             /*!< SCB 
 545:Drivers/CMSIS/Include/core_cm3.h **** 
 546:Drivers/CMSIS/Include/core_cm3.h **** #define SCB_SHCSR_BUSFAULTACT_Pos           1U                                            /*!< SCB 
 547:Drivers/CMSIS/Include/core_cm3.h **** #define SCB_SHCSR_BUSFAULTACT_Msk          (1UL << SCB_SHCSR_BUSFAULTACT_Pos)             /*!< SCB 
 548:Drivers/CMSIS/Include/core_cm3.h **** 
 549:Drivers/CMSIS/Include/core_cm3.h **** #define SCB_SHCSR_MEMFAULTACT_Pos           0U                                            /*!< SCB 
 550:Drivers/CMSIS/Include/core_cm3.h **** #define SCB_SHCSR_MEMFAULTACT_Msk          (1UL /*<< SCB_SHCSR_MEMFAULTACT_Pos*/)         /*!< SCB 
 551:Drivers/CMSIS/Include/core_cm3.h **** 
ARM GAS  C:\Users\cedri\AppData\Local\Temp\ccZqcsPj.s 			page 24


 552:Drivers/CMSIS/Include/core_cm3.h **** /* SCB Configurable Fault Status Register Definitions */
 553:Drivers/CMSIS/Include/core_cm3.h **** #define SCB_CFSR_USGFAULTSR_Pos            16U                                            /*!< SCB 
 554:Drivers/CMSIS/Include/core_cm3.h **** #define SCB_CFSR_USGFAULTSR_Msk            (0xFFFFUL << SCB_CFSR_USGFAULTSR_Pos)          /*!< SCB 
 555:Drivers/CMSIS/Include/core_cm3.h **** 
 556:Drivers/CMSIS/Include/core_cm3.h **** #define SCB_CFSR_BUSFAULTSR_Pos             8U                                            /*!< SCB 
 557:Drivers/CMSIS/Include/core_cm3.h **** #define SCB_CFSR_BUSFAULTSR_Msk            (0xFFUL << SCB_CFSR_BUSFAULTSR_Pos)            /*!< SCB 
 558:Drivers/CMSIS/Include/core_cm3.h **** 
 559:Drivers/CMSIS/Include/core_cm3.h **** #define SCB_CFSR_MEMFAULTSR_Pos             0U                                            /*!< SCB 
 560:Drivers/CMSIS/Include/core_cm3.h **** #define SCB_CFSR_MEMFAULTSR_Msk            (0xFFUL /*<< SCB_CFSR_MEMFAULTSR_Pos*/)        /*!< SCB 
 561:Drivers/CMSIS/Include/core_cm3.h **** 
 562:Drivers/CMSIS/Include/core_cm3.h **** /* MemManage Fault Status Register (part of SCB Configurable Fault Status Register) */
 563:Drivers/CMSIS/Include/core_cm3.h **** #define SCB_CFSR_MMARVALID_Pos             (SCB_SHCSR_MEMFAULTACT_Pos + 7U)               /*!< SCB 
 564:Drivers/CMSIS/Include/core_cm3.h **** #define SCB_CFSR_MMARVALID_Msk             (1UL << SCB_CFSR_MMARVALID_Pos)                /*!< SCB 
 565:Drivers/CMSIS/Include/core_cm3.h **** 
 566:Drivers/CMSIS/Include/core_cm3.h **** #define SCB_CFSR_MSTKERR_Pos               (SCB_SHCSR_MEMFAULTACT_Pos + 4U)               /*!< SCB 
 567:Drivers/CMSIS/Include/core_cm3.h **** #define SCB_CFSR_MSTKERR_Msk               (1UL << SCB_CFSR_MSTKERR_Pos)                  /*!< SCB 
 568:Drivers/CMSIS/Include/core_cm3.h **** 
 569:Drivers/CMSIS/Include/core_cm3.h **** #define SCB_CFSR_MUNSTKERR_Pos             (SCB_SHCSR_MEMFAULTACT_Pos + 3U)               /*!< SCB 
 570:Drivers/CMSIS/Include/core_cm3.h **** #define SCB_CFSR_MUNSTKERR_Msk             (1UL << SCB_CFSR_MUNSTKERR_Pos)                /*!< SCB 
 571:Drivers/CMSIS/Include/core_cm3.h **** 
 572:Drivers/CMSIS/Include/core_cm3.h **** #define SCB_CFSR_DACCVIOL_Pos              (SCB_SHCSR_MEMFAULTACT_Pos + 1U)               /*!< SCB 
 573:Drivers/CMSIS/Include/core_cm3.h **** #define SCB_CFSR_DACCVIOL_Msk              (1UL << SCB_CFSR_DACCVIOL_Pos)                 /*!< SCB 
 574:Drivers/CMSIS/Include/core_cm3.h **** 
 575:Drivers/CMSIS/Include/core_cm3.h **** #define SCB_CFSR_IACCVIOL_Pos              (SCB_SHCSR_MEMFAULTACT_Pos + 0U)               /*!< SCB 
 576:Drivers/CMSIS/Include/core_cm3.h **** #define SCB_CFSR_IACCVIOL_Msk              (1UL /*<< SCB_CFSR_IACCVIOL_Pos*/)             /*!< SCB 
 577:Drivers/CMSIS/Include/core_cm3.h **** 
 578:Drivers/CMSIS/Include/core_cm3.h **** /* BusFault Status Register (part of SCB Configurable Fault Status Register) */
 579:Drivers/CMSIS/Include/core_cm3.h **** #define SCB_CFSR_BFARVALID_Pos            (SCB_CFSR_BUSFAULTSR_Pos + 7U)                  /*!< SCB 
 580:Drivers/CMSIS/Include/core_cm3.h **** #define SCB_CFSR_BFARVALID_Msk            (1UL << SCB_CFSR_BFARVALID_Pos)                 /*!< SCB 
 581:Drivers/CMSIS/Include/core_cm3.h **** 
 582:Drivers/CMSIS/Include/core_cm3.h **** #define SCB_CFSR_STKERR_Pos               (SCB_CFSR_BUSFAULTSR_Pos + 4U)                  /*!< SCB 
 583:Drivers/CMSIS/Include/core_cm3.h **** #define SCB_CFSR_STKERR_Msk               (1UL << SCB_CFSR_STKERR_Pos)                    /*!< SCB 
 584:Drivers/CMSIS/Include/core_cm3.h **** 
 585:Drivers/CMSIS/Include/core_cm3.h **** #define SCB_CFSR_UNSTKERR_Pos             (SCB_CFSR_BUSFAULTSR_Pos + 3U)                  /*!< SCB 
 586:Drivers/CMSIS/Include/core_cm3.h **** #define SCB_CFSR_UNSTKERR_Msk             (1UL << SCB_CFSR_UNSTKERR_Pos)                  /*!< SCB 
 587:Drivers/CMSIS/Include/core_cm3.h **** 
 588:Drivers/CMSIS/Include/core_cm3.h **** #define SCB_CFSR_IMPRECISERR_Pos          (SCB_CFSR_BUSFAULTSR_Pos + 2U)                  /*!< SCB 
 589:Drivers/CMSIS/Include/core_cm3.h **** #define SCB_CFSR_IMPRECISERR_Msk          (1UL << SCB_CFSR_IMPRECISERR_Pos)               /*!< SCB 
 590:Drivers/CMSIS/Include/core_cm3.h **** 
 591:Drivers/CMSIS/Include/core_cm3.h **** #define SCB_CFSR_PRECISERR_Pos            (SCB_CFSR_BUSFAULTSR_Pos + 1U)                  /*!< SCB 
 592:Drivers/CMSIS/Include/core_cm3.h **** #define SCB_CFSR_PRECISERR_Msk            (1UL << SCB_CFSR_PRECISERR_Pos)                 /*!< SCB 
 593:Drivers/CMSIS/Include/core_cm3.h **** 
 594:Drivers/CMSIS/Include/core_cm3.h **** #define SCB_CFSR_IBUSERR_Pos              (SCB_CFSR_BUSFAULTSR_Pos + 0U)                  /*!< SCB 
 595:Drivers/CMSIS/Include/core_cm3.h **** #define SCB_CFSR_IBUSERR_Msk              (1UL << SCB_CFSR_IBUSERR_Pos)                   /*!< SCB 
 596:Drivers/CMSIS/Include/core_cm3.h **** 
 597:Drivers/CMSIS/Include/core_cm3.h **** /* UsageFault Status Register (part of SCB Configurable Fault Status Register) */
 598:Drivers/CMSIS/Include/core_cm3.h **** #define SCB_CFSR_DIVBYZERO_Pos            (SCB_CFSR_USGFAULTSR_Pos + 9U)                  /*!< SCB 
 599:Drivers/CMSIS/Include/core_cm3.h **** #define SCB_CFSR_DIVBYZERO_Msk            (1UL << SCB_CFSR_DIVBYZERO_Pos)                 /*!< SCB 
 600:Drivers/CMSIS/Include/core_cm3.h **** 
 601:Drivers/CMSIS/Include/core_cm3.h **** #define SCB_CFSR_UNALIGNED_Pos            (SCB_CFSR_USGFAULTSR_Pos + 8U)                  /*!< SCB 
 602:Drivers/CMSIS/Include/core_cm3.h **** #define SCB_CFSR_UNALIGNED_Msk            (1UL << SCB_CFSR_UNALIGNED_Pos)                 /*!< SCB 
 603:Drivers/CMSIS/Include/core_cm3.h **** 
 604:Drivers/CMSIS/Include/core_cm3.h **** #define SCB_CFSR_NOCP_Pos                 (SCB_CFSR_USGFAULTSR_Pos + 3U)                  /*!< SCB 
 605:Drivers/CMSIS/Include/core_cm3.h **** #define SCB_CFSR_NOCP_Msk                 (1UL << SCB_CFSR_NOCP_Pos)                      /*!< SCB 
 606:Drivers/CMSIS/Include/core_cm3.h **** 
 607:Drivers/CMSIS/Include/core_cm3.h **** #define SCB_CFSR_INVPC_Pos                (SCB_CFSR_USGFAULTSR_Pos + 2U)                  /*!< SCB 
 608:Drivers/CMSIS/Include/core_cm3.h **** #define SCB_CFSR_INVPC_Msk                (1UL << SCB_CFSR_INVPC_Pos)                     /*!< SCB 
ARM GAS  C:\Users\cedri\AppData\Local\Temp\ccZqcsPj.s 			page 25


 609:Drivers/CMSIS/Include/core_cm3.h **** 
 610:Drivers/CMSIS/Include/core_cm3.h **** #define SCB_CFSR_INVSTATE_Pos             (SCB_CFSR_USGFAULTSR_Pos + 1U)                  /*!< SCB 
 611:Drivers/CMSIS/Include/core_cm3.h **** #define SCB_CFSR_INVSTATE_Msk             (1UL << SCB_CFSR_INVSTATE_Pos)                  /*!< SCB 
 612:Drivers/CMSIS/Include/core_cm3.h **** 
 613:Drivers/CMSIS/Include/core_cm3.h **** #define SCB_CFSR_UNDEFINSTR_Pos           (SCB_CFSR_USGFAULTSR_Pos + 0U)                  /*!< SCB 
 614:Drivers/CMSIS/Include/core_cm3.h **** #define SCB_CFSR_UNDEFINSTR_Msk           (1UL << SCB_CFSR_UNDEFINSTR_Pos)                /*!< SCB 
 615:Drivers/CMSIS/Include/core_cm3.h **** 
 616:Drivers/CMSIS/Include/core_cm3.h **** /* SCB Hard Fault Status Register Definitions */
 617:Drivers/CMSIS/Include/core_cm3.h **** #define SCB_HFSR_DEBUGEVT_Pos              31U                                            /*!< SCB 
 618:Drivers/CMSIS/Include/core_cm3.h **** #define SCB_HFSR_DEBUGEVT_Msk              (1UL << SCB_HFSR_DEBUGEVT_Pos)                 /*!< SCB 
 619:Drivers/CMSIS/Include/core_cm3.h **** 
 620:Drivers/CMSIS/Include/core_cm3.h **** #define SCB_HFSR_FORCED_Pos                30U                                            /*!< SCB 
 621:Drivers/CMSIS/Include/core_cm3.h **** #define SCB_HFSR_FORCED_Msk                (1UL << SCB_HFSR_FORCED_Pos)                   /*!< SCB 
 622:Drivers/CMSIS/Include/core_cm3.h **** 
 623:Drivers/CMSIS/Include/core_cm3.h **** #define SCB_HFSR_VECTTBL_Pos                1U                                            /*!< SCB 
 624:Drivers/CMSIS/Include/core_cm3.h **** #define SCB_HFSR_VECTTBL_Msk               (1UL << SCB_HFSR_VECTTBL_Pos)                  /*!< SCB 
 625:Drivers/CMSIS/Include/core_cm3.h **** 
 626:Drivers/CMSIS/Include/core_cm3.h **** /* SCB Debug Fault Status Register Definitions */
 627:Drivers/CMSIS/Include/core_cm3.h **** #define SCB_DFSR_EXTERNAL_Pos               4U                                            /*!< SCB 
 628:Drivers/CMSIS/Include/core_cm3.h **** #define SCB_DFSR_EXTERNAL_Msk              (1UL << SCB_DFSR_EXTERNAL_Pos)                 /*!< SCB 
 629:Drivers/CMSIS/Include/core_cm3.h **** 
 630:Drivers/CMSIS/Include/core_cm3.h **** #define SCB_DFSR_VCATCH_Pos                 3U                                            /*!< SCB 
 631:Drivers/CMSIS/Include/core_cm3.h **** #define SCB_DFSR_VCATCH_Msk                (1UL << SCB_DFSR_VCATCH_Pos)                   /*!< SCB 
 632:Drivers/CMSIS/Include/core_cm3.h **** 
 633:Drivers/CMSIS/Include/core_cm3.h **** #define SCB_DFSR_DWTTRAP_Pos                2U                                            /*!< SCB 
 634:Drivers/CMSIS/Include/core_cm3.h **** #define SCB_DFSR_DWTTRAP_Msk               (1UL << SCB_DFSR_DWTTRAP_Pos)                  /*!< SCB 
 635:Drivers/CMSIS/Include/core_cm3.h **** 
 636:Drivers/CMSIS/Include/core_cm3.h **** #define SCB_DFSR_BKPT_Pos                   1U                                            /*!< SCB 
 637:Drivers/CMSIS/Include/core_cm3.h **** #define SCB_DFSR_BKPT_Msk                  (1UL << SCB_DFSR_BKPT_Pos)                     /*!< SCB 
 638:Drivers/CMSIS/Include/core_cm3.h **** 
 639:Drivers/CMSIS/Include/core_cm3.h **** #define SCB_DFSR_HALTED_Pos                 0U                                            /*!< SCB 
 640:Drivers/CMSIS/Include/core_cm3.h **** #define SCB_DFSR_HALTED_Msk                (1UL /*<< SCB_DFSR_HALTED_Pos*/)               /*!< SCB 
 641:Drivers/CMSIS/Include/core_cm3.h **** 
 642:Drivers/CMSIS/Include/core_cm3.h **** /*@} end of group CMSIS_SCB */
 643:Drivers/CMSIS/Include/core_cm3.h **** 
 644:Drivers/CMSIS/Include/core_cm3.h **** 
 645:Drivers/CMSIS/Include/core_cm3.h **** /**
 646:Drivers/CMSIS/Include/core_cm3.h ****   \ingroup  CMSIS_core_register
 647:Drivers/CMSIS/Include/core_cm3.h ****   \defgroup CMSIS_SCnSCB System Controls not in SCB (SCnSCB)
 648:Drivers/CMSIS/Include/core_cm3.h ****   \brief    Type definitions for the System Control and ID Register not in the SCB
 649:Drivers/CMSIS/Include/core_cm3.h ****   @{
 650:Drivers/CMSIS/Include/core_cm3.h ****  */
 651:Drivers/CMSIS/Include/core_cm3.h **** 
 652:Drivers/CMSIS/Include/core_cm3.h **** /**
 653:Drivers/CMSIS/Include/core_cm3.h ****   \brief  Structure type to access the System Control and ID Register not in the SCB.
 654:Drivers/CMSIS/Include/core_cm3.h ****  */
 655:Drivers/CMSIS/Include/core_cm3.h **** typedef struct
 656:Drivers/CMSIS/Include/core_cm3.h **** {
 657:Drivers/CMSIS/Include/core_cm3.h ****         uint32_t RESERVED0[1U];
 658:Drivers/CMSIS/Include/core_cm3.h ****   __IM  uint32_t ICTR;                   /*!< Offset: 0x004 (R/ )  Interrupt Controller Type Regist
 659:Drivers/CMSIS/Include/core_cm3.h **** #if defined (__CM3_REV) && (__CM3_REV >= 0x200U)
 660:Drivers/CMSIS/Include/core_cm3.h ****   __IOM uint32_t ACTLR;                  /*!< Offset: 0x008 (R/W)  Auxiliary Control Register */
 661:Drivers/CMSIS/Include/core_cm3.h **** #else
 662:Drivers/CMSIS/Include/core_cm3.h ****         uint32_t RESERVED1[1U];
 663:Drivers/CMSIS/Include/core_cm3.h **** #endif
 664:Drivers/CMSIS/Include/core_cm3.h **** } SCnSCB_Type;
 665:Drivers/CMSIS/Include/core_cm3.h **** 
ARM GAS  C:\Users\cedri\AppData\Local\Temp\ccZqcsPj.s 			page 26


 666:Drivers/CMSIS/Include/core_cm3.h **** /* Interrupt Controller Type Register Definitions */
 667:Drivers/CMSIS/Include/core_cm3.h **** #define SCnSCB_ICTR_INTLINESNUM_Pos         0U                                         /*!< ICTR: I
 668:Drivers/CMSIS/Include/core_cm3.h **** #define SCnSCB_ICTR_INTLINESNUM_Msk        (0xFUL /*<< SCnSCB_ICTR_INTLINESNUM_Pos*/)  /*!< ICTR: I
 669:Drivers/CMSIS/Include/core_cm3.h **** 
 670:Drivers/CMSIS/Include/core_cm3.h **** /* Auxiliary Control Register Definitions */
 671:Drivers/CMSIS/Include/core_cm3.h **** 
 672:Drivers/CMSIS/Include/core_cm3.h **** #define SCnSCB_ACTLR_DISFOLD_Pos            2U                                         /*!< ACTLR: 
 673:Drivers/CMSIS/Include/core_cm3.h **** #define SCnSCB_ACTLR_DISFOLD_Msk           (1UL << SCnSCB_ACTLR_DISFOLD_Pos)           /*!< ACTLR: 
 674:Drivers/CMSIS/Include/core_cm3.h **** 
 675:Drivers/CMSIS/Include/core_cm3.h **** #define SCnSCB_ACTLR_DISDEFWBUF_Pos         1U                                         /*!< ACTLR: 
 676:Drivers/CMSIS/Include/core_cm3.h **** #define SCnSCB_ACTLR_DISDEFWBUF_Msk        (1UL << SCnSCB_ACTLR_DISDEFWBUF_Pos)        /*!< ACTLR: 
 677:Drivers/CMSIS/Include/core_cm3.h **** 
 678:Drivers/CMSIS/Include/core_cm3.h **** #define SCnSCB_ACTLR_DISMCYCINT_Pos         0U                                         /*!< ACTLR: 
 679:Drivers/CMSIS/Include/core_cm3.h **** #define SCnSCB_ACTLR_DISMCYCINT_Msk        (1UL /*<< SCnSCB_ACTLR_DISMCYCINT_Pos*/)    /*!< ACTLR: 
 680:Drivers/CMSIS/Include/core_cm3.h **** 
 681:Drivers/CMSIS/Include/core_cm3.h **** /*@} end of group CMSIS_SCnotSCB */
 682:Drivers/CMSIS/Include/core_cm3.h **** 
 683:Drivers/CMSIS/Include/core_cm3.h **** 
 684:Drivers/CMSIS/Include/core_cm3.h **** /**
 685:Drivers/CMSIS/Include/core_cm3.h ****   \ingroup  CMSIS_core_register
 686:Drivers/CMSIS/Include/core_cm3.h ****   \defgroup CMSIS_SysTick     System Tick Timer (SysTick)
 687:Drivers/CMSIS/Include/core_cm3.h ****   \brief    Type definitions for the System Timer Registers.
 688:Drivers/CMSIS/Include/core_cm3.h ****   @{
 689:Drivers/CMSIS/Include/core_cm3.h ****  */
 690:Drivers/CMSIS/Include/core_cm3.h **** 
 691:Drivers/CMSIS/Include/core_cm3.h **** /**
 692:Drivers/CMSIS/Include/core_cm3.h ****   \brief  Structure type to access the System Timer (SysTick).
 693:Drivers/CMSIS/Include/core_cm3.h ****  */
 694:Drivers/CMSIS/Include/core_cm3.h **** typedef struct
 695:Drivers/CMSIS/Include/core_cm3.h **** {
 696:Drivers/CMSIS/Include/core_cm3.h ****   __IOM uint32_t CTRL;                   /*!< Offset: 0x000 (R/W)  SysTick Control and Status Regis
 697:Drivers/CMSIS/Include/core_cm3.h ****   __IOM uint32_t LOAD;                   /*!< Offset: 0x004 (R/W)  SysTick Reload Value Register */
 698:Drivers/CMSIS/Include/core_cm3.h ****   __IOM uint32_t VAL;                    /*!< Offset: 0x008 (R/W)  SysTick Current Value Register *
 699:Drivers/CMSIS/Include/core_cm3.h ****   __IM  uint32_t CALIB;                  /*!< Offset: 0x00C (R/ )  SysTick Calibration Register */
 700:Drivers/CMSIS/Include/core_cm3.h **** } SysTick_Type;
 701:Drivers/CMSIS/Include/core_cm3.h **** 
 702:Drivers/CMSIS/Include/core_cm3.h **** /* SysTick Control / Status Register Definitions */
 703:Drivers/CMSIS/Include/core_cm3.h **** #define SysTick_CTRL_COUNTFLAG_Pos         16U                                            /*!< SysT
 704:Drivers/CMSIS/Include/core_cm3.h **** #define SysTick_CTRL_COUNTFLAG_Msk         (1UL << SysTick_CTRL_COUNTFLAG_Pos)            /*!< SysT
 705:Drivers/CMSIS/Include/core_cm3.h **** 
 706:Drivers/CMSIS/Include/core_cm3.h **** #define SysTick_CTRL_CLKSOURCE_Pos          2U                                            /*!< SysT
 707:Drivers/CMSIS/Include/core_cm3.h **** #define SysTick_CTRL_CLKSOURCE_Msk         (1UL << SysTick_CTRL_CLKSOURCE_Pos)            /*!< SysT
 708:Drivers/CMSIS/Include/core_cm3.h **** 
 709:Drivers/CMSIS/Include/core_cm3.h **** #define SysTick_CTRL_TICKINT_Pos            1U                                            /*!< SysT
 710:Drivers/CMSIS/Include/core_cm3.h **** #define SysTick_CTRL_TICKINT_Msk           (1UL << SysTick_CTRL_TICKINT_Pos)              /*!< SysT
 711:Drivers/CMSIS/Include/core_cm3.h **** 
 712:Drivers/CMSIS/Include/core_cm3.h **** #define SysTick_CTRL_ENABLE_Pos             0U                                            /*!< SysT
 713:Drivers/CMSIS/Include/core_cm3.h **** #define SysTick_CTRL_ENABLE_Msk            (1UL /*<< SysTick_CTRL_ENABLE_Pos*/)           /*!< SysT
 714:Drivers/CMSIS/Include/core_cm3.h **** 
 715:Drivers/CMSIS/Include/core_cm3.h **** /* SysTick Reload Register Definitions */
 716:Drivers/CMSIS/Include/core_cm3.h **** #define SysTick_LOAD_RELOAD_Pos             0U                                            /*!< SysT
 717:Drivers/CMSIS/Include/core_cm3.h **** #define SysTick_LOAD_RELOAD_Msk            (0xFFFFFFUL /*<< SysTick_LOAD_RELOAD_Pos*/)    /*!< SysT
 718:Drivers/CMSIS/Include/core_cm3.h **** 
 719:Drivers/CMSIS/Include/core_cm3.h **** /* SysTick Current Register Definitions */
 720:Drivers/CMSIS/Include/core_cm3.h **** #define SysTick_VAL_CURRENT_Pos             0U                                            /*!< SysT
 721:Drivers/CMSIS/Include/core_cm3.h **** #define SysTick_VAL_CURRENT_Msk            (0xFFFFFFUL /*<< SysTick_VAL_CURRENT_Pos*/)    /*!< SysT
 722:Drivers/CMSIS/Include/core_cm3.h **** 
ARM GAS  C:\Users\cedri\AppData\Local\Temp\ccZqcsPj.s 			page 27


 723:Drivers/CMSIS/Include/core_cm3.h **** /* SysTick Calibration Register Definitions */
 724:Drivers/CMSIS/Include/core_cm3.h **** #define SysTick_CALIB_NOREF_Pos            31U                                            /*!< SysT
 725:Drivers/CMSIS/Include/core_cm3.h **** #define SysTick_CALIB_NOREF_Msk            (1UL << SysTick_CALIB_NOREF_Pos)               /*!< SysT
 726:Drivers/CMSIS/Include/core_cm3.h **** 
 727:Drivers/CMSIS/Include/core_cm3.h **** #define SysTick_CALIB_SKEW_Pos             30U                                            /*!< SysT
 728:Drivers/CMSIS/Include/core_cm3.h **** #define SysTick_CALIB_SKEW_Msk             (1UL << SysTick_CALIB_SKEW_Pos)                /*!< SysT
 729:Drivers/CMSIS/Include/core_cm3.h **** 
 730:Drivers/CMSIS/Include/core_cm3.h **** #define SysTick_CALIB_TENMS_Pos             0U                                            /*!< SysT
 731:Drivers/CMSIS/Include/core_cm3.h **** #define SysTick_CALIB_TENMS_Msk            (0xFFFFFFUL /*<< SysTick_CALIB_TENMS_Pos*/)    /*!< SysT
 732:Drivers/CMSIS/Include/core_cm3.h **** 
 733:Drivers/CMSIS/Include/core_cm3.h **** /*@} end of group CMSIS_SysTick */
 734:Drivers/CMSIS/Include/core_cm3.h **** 
 735:Drivers/CMSIS/Include/core_cm3.h **** 
 736:Drivers/CMSIS/Include/core_cm3.h **** /**
 737:Drivers/CMSIS/Include/core_cm3.h ****   \ingroup  CMSIS_core_register
 738:Drivers/CMSIS/Include/core_cm3.h ****   \defgroup CMSIS_ITM     Instrumentation Trace Macrocell (ITM)
 739:Drivers/CMSIS/Include/core_cm3.h ****   \brief    Type definitions for the Instrumentation Trace Macrocell (ITM)
 740:Drivers/CMSIS/Include/core_cm3.h ****   @{
 741:Drivers/CMSIS/Include/core_cm3.h ****  */
 742:Drivers/CMSIS/Include/core_cm3.h **** 
 743:Drivers/CMSIS/Include/core_cm3.h **** /**
 744:Drivers/CMSIS/Include/core_cm3.h ****   \brief  Structure type to access the Instrumentation Trace Macrocell Register (ITM).
 745:Drivers/CMSIS/Include/core_cm3.h ****  */
 746:Drivers/CMSIS/Include/core_cm3.h **** typedef struct
 747:Drivers/CMSIS/Include/core_cm3.h **** {
 748:Drivers/CMSIS/Include/core_cm3.h ****   __OM  union
 749:Drivers/CMSIS/Include/core_cm3.h ****   {
 750:Drivers/CMSIS/Include/core_cm3.h ****     __OM  uint8_t    u8;                 /*!< Offset: 0x000 ( /W)  ITM Stimulus Port 8-bit */
 751:Drivers/CMSIS/Include/core_cm3.h ****     __OM  uint16_t   u16;                /*!< Offset: 0x000 ( /W)  ITM Stimulus Port 16-bit */
 752:Drivers/CMSIS/Include/core_cm3.h ****     __OM  uint32_t   u32;                /*!< Offset: 0x000 ( /W)  ITM Stimulus Port 32-bit */
 753:Drivers/CMSIS/Include/core_cm3.h ****   }  PORT [32U];                         /*!< Offset: 0x000 ( /W)  ITM Stimulus Port Registers */
 754:Drivers/CMSIS/Include/core_cm3.h ****         uint32_t RESERVED0[864U];
 755:Drivers/CMSIS/Include/core_cm3.h ****   __IOM uint32_t TER;                    /*!< Offset: 0xE00 (R/W)  ITM Trace Enable Register */
 756:Drivers/CMSIS/Include/core_cm3.h ****         uint32_t RESERVED1[15U];
 757:Drivers/CMSIS/Include/core_cm3.h ****   __IOM uint32_t TPR;                    /*!< Offset: 0xE40 (R/W)  ITM Trace Privilege Register */
 758:Drivers/CMSIS/Include/core_cm3.h ****         uint32_t RESERVED2[15U];
 759:Drivers/CMSIS/Include/core_cm3.h ****   __IOM uint32_t TCR;                    /*!< Offset: 0xE80 (R/W)  ITM Trace Control Register */
 760:Drivers/CMSIS/Include/core_cm3.h ****         uint32_t RESERVED3[29U];
 761:Drivers/CMSIS/Include/core_cm3.h ****   __OM  uint32_t IWR;                    /*!< Offset: 0xEF8 ( /W)  ITM Integration Write Register *
 762:Drivers/CMSIS/Include/core_cm3.h ****   __IM  uint32_t IRR;                    /*!< Offset: 0xEFC (R/ )  ITM Integration Read Register */
 763:Drivers/CMSIS/Include/core_cm3.h ****   __IOM uint32_t IMCR;                   /*!< Offset: 0xF00 (R/W)  ITM Integration Mode Control Reg
 764:Drivers/CMSIS/Include/core_cm3.h ****         uint32_t RESERVED4[43U];
 765:Drivers/CMSIS/Include/core_cm3.h ****   __OM  uint32_t LAR;                    /*!< Offset: 0xFB0 ( /W)  ITM Lock Access Register */
 766:Drivers/CMSIS/Include/core_cm3.h ****   __IM  uint32_t LSR;                    /*!< Offset: 0xFB4 (R/ )  ITM Lock Status Register */
 767:Drivers/CMSIS/Include/core_cm3.h ****         uint32_t RESERVED5[6U];
 768:Drivers/CMSIS/Include/core_cm3.h ****   __IM  uint32_t PID4;                   /*!< Offset: 0xFD0 (R/ )  ITM Peripheral Identification Re
 769:Drivers/CMSIS/Include/core_cm3.h ****   __IM  uint32_t PID5;                   /*!< Offset: 0xFD4 (R/ )  ITM Peripheral Identification Re
 770:Drivers/CMSIS/Include/core_cm3.h ****   __IM  uint32_t PID6;                   /*!< Offset: 0xFD8 (R/ )  ITM Peripheral Identification Re
 771:Drivers/CMSIS/Include/core_cm3.h ****   __IM  uint32_t PID7;                   /*!< Offset: 0xFDC (R/ )  ITM Peripheral Identification Re
 772:Drivers/CMSIS/Include/core_cm3.h ****   __IM  uint32_t PID0;                   /*!< Offset: 0xFE0 (R/ )  ITM Peripheral Identification Re
 773:Drivers/CMSIS/Include/core_cm3.h ****   __IM  uint32_t PID1;                   /*!< Offset: 0xFE4 (R/ )  ITM Peripheral Identification Re
 774:Drivers/CMSIS/Include/core_cm3.h ****   __IM  uint32_t PID2;                   /*!< Offset: 0xFE8 (R/ )  ITM Peripheral Identification Re
 775:Drivers/CMSIS/Include/core_cm3.h ****   __IM  uint32_t PID3;                   /*!< Offset: 0xFEC (R/ )  ITM Peripheral Identification Re
 776:Drivers/CMSIS/Include/core_cm3.h ****   __IM  uint32_t CID0;                   /*!< Offset: 0xFF0 (R/ )  ITM Component  Identification Re
 777:Drivers/CMSIS/Include/core_cm3.h ****   __IM  uint32_t CID1;                   /*!< Offset: 0xFF4 (R/ )  ITM Component  Identification Re
 778:Drivers/CMSIS/Include/core_cm3.h ****   __IM  uint32_t CID2;                   /*!< Offset: 0xFF8 (R/ )  ITM Component  Identification Re
 779:Drivers/CMSIS/Include/core_cm3.h ****   __IM  uint32_t CID3;                   /*!< Offset: 0xFFC (R/ )  ITM Component  Identification Re
ARM GAS  C:\Users\cedri\AppData\Local\Temp\ccZqcsPj.s 			page 28


 780:Drivers/CMSIS/Include/core_cm3.h **** } ITM_Type;
 781:Drivers/CMSIS/Include/core_cm3.h **** 
 782:Drivers/CMSIS/Include/core_cm3.h **** /* ITM Trace Privilege Register Definitions */
 783:Drivers/CMSIS/Include/core_cm3.h **** #define ITM_TPR_PRIVMASK_Pos                0U                                            /*!< ITM 
 784:Drivers/CMSIS/Include/core_cm3.h **** #define ITM_TPR_PRIVMASK_Msk               (0xFFFFFFFFUL /*<< ITM_TPR_PRIVMASK_Pos*/)     /*!< ITM 
 785:Drivers/CMSIS/Include/core_cm3.h **** 
 786:Drivers/CMSIS/Include/core_cm3.h **** /* ITM Trace Control Register Definitions */
 787:Drivers/CMSIS/Include/core_cm3.h **** #define ITM_TCR_BUSY_Pos                   23U                                            /*!< ITM 
 788:Drivers/CMSIS/Include/core_cm3.h **** #define ITM_TCR_BUSY_Msk                   (1UL << ITM_TCR_BUSY_Pos)                      /*!< ITM 
 789:Drivers/CMSIS/Include/core_cm3.h **** 
 790:Drivers/CMSIS/Include/core_cm3.h **** #define ITM_TCR_TraceBusID_Pos             16U                                            /*!< ITM 
 791:Drivers/CMSIS/Include/core_cm3.h **** #define ITM_TCR_TraceBusID_Msk             (0x7FUL << ITM_TCR_TraceBusID_Pos)             /*!< ITM 
 792:Drivers/CMSIS/Include/core_cm3.h **** 
 793:Drivers/CMSIS/Include/core_cm3.h **** #define ITM_TCR_GTSFREQ_Pos                10U                                            /*!< ITM 
 794:Drivers/CMSIS/Include/core_cm3.h **** #define ITM_TCR_GTSFREQ_Msk                (3UL << ITM_TCR_GTSFREQ_Pos)                   /*!< ITM 
 795:Drivers/CMSIS/Include/core_cm3.h **** 
 796:Drivers/CMSIS/Include/core_cm3.h **** #define ITM_TCR_TSPrescale_Pos              8U                                            /*!< ITM 
 797:Drivers/CMSIS/Include/core_cm3.h **** #define ITM_TCR_TSPrescale_Msk             (3UL << ITM_TCR_TSPrescale_Pos)                /*!< ITM 
 798:Drivers/CMSIS/Include/core_cm3.h **** 
 799:Drivers/CMSIS/Include/core_cm3.h **** #define ITM_TCR_SWOENA_Pos                  4U                                            /*!< ITM 
 800:Drivers/CMSIS/Include/core_cm3.h **** #define ITM_TCR_SWOENA_Msk                 (1UL << ITM_TCR_SWOENA_Pos)                    /*!< ITM 
 801:Drivers/CMSIS/Include/core_cm3.h **** 
 802:Drivers/CMSIS/Include/core_cm3.h **** #define ITM_TCR_DWTENA_Pos                  3U                                            /*!< ITM 
 803:Drivers/CMSIS/Include/core_cm3.h **** #define ITM_TCR_DWTENA_Msk                 (1UL << ITM_TCR_DWTENA_Pos)                    /*!< ITM 
 804:Drivers/CMSIS/Include/core_cm3.h **** 
 805:Drivers/CMSIS/Include/core_cm3.h **** #define ITM_TCR_SYNCENA_Pos                 2U                                            /*!< ITM 
 806:Drivers/CMSIS/Include/core_cm3.h **** #define ITM_TCR_SYNCENA_Msk                (1UL << ITM_TCR_SYNCENA_Pos)                   /*!< ITM 
 807:Drivers/CMSIS/Include/core_cm3.h **** 
 808:Drivers/CMSIS/Include/core_cm3.h **** #define ITM_TCR_TSENA_Pos                   1U                                            /*!< ITM 
 809:Drivers/CMSIS/Include/core_cm3.h **** #define ITM_TCR_TSENA_Msk                  (1UL << ITM_TCR_TSENA_Pos)                     /*!< ITM 
 810:Drivers/CMSIS/Include/core_cm3.h **** 
 811:Drivers/CMSIS/Include/core_cm3.h **** #define ITM_TCR_ITMENA_Pos                  0U                                            /*!< ITM 
 812:Drivers/CMSIS/Include/core_cm3.h **** #define ITM_TCR_ITMENA_Msk                 (1UL /*<< ITM_TCR_ITMENA_Pos*/)                /*!< ITM 
 813:Drivers/CMSIS/Include/core_cm3.h **** 
 814:Drivers/CMSIS/Include/core_cm3.h **** /* ITM Integration Write Register Definitions */
 815:Drivers/CMSIS/Include/core_cm3.h **** #define ITM_IWR_ATVALIDM_Pos                0U                                            /*!< ITM 
 816:Drivers/CMSIS/Include/core_cm3.h **** #define ITM_IWR_ATVALIDM_Msk               (1UL /*<< ITM_IWR_ATVALIDM_Pos*/)              /*!< ITM 
 817:Drivers/CMSIS/Include/core_cm3.h **** 
 818:Drivers/CMSIS/Include/core_cm3.h **** /* ITM Integration Read Register Definitions */
 819:Drivers/CMSIS/Include/core_cm3.h **** #define ITM_IRR_ATREADYM_Pos                0U                                            /*!< ITM 
 820:Drivers/CMSIS/Include/core_cm3.h **** #define ITM_IRR_ATREADYM_Msk               (1UL /*<< ITM_IRR_ATREADYM_Pos*/)              /*!< ITM 
 821:Drivers/CMSIS/Include/core_cm3.h **** 
 822:Drivers/CMSIS/Include/core_cm3.h **** /* ITM Integration Mode Control Register Definitions */
 823:Drivers/CMSIS/Include/core_cm3.h **** #define ITM_IMCR_INTEGRATION_Pos            0U                                            /*!< ITM 
 824:Drivers/CMSIS/Include/core_cm3.h **** #define ITM_IMCR_INTEGRATION_Msk           (1UL /*<< ITM_IMCR_INTEGRATION_Pos*/)          /*!< ITM 
 825:Drivers/CMSIS/Include/core_cm3.h **** 
 826:Drivers/CMSIS/Include/core_cm3.h **** /* ITM Lock Status Register Definitions */
 827:Drivers/CMSIS/Include/core_cm3.h **** #define ITM_LSR_ByteAcc_Pos                 2U                                            /*!< ITM 
 828:Drivers/CMSIS/Include/core_cm3.h **** #define ITM_LSR_ByteAcc_Msk                (1UL << ITM_LSR_ByteAcc_Pos)                   /*!< ITM 
 829:Drivers/CMSIS/Include/core_cm3.h **** 
 830:Drivers/CMSIS/Include/core_cm3.h **** #define ITM_LSR_Access_Pos                  1U                                            /*!< ITM 
 831:Drivers/CMSIS/Include/core_cm3.h **** #define ITM_LSR_Access_Msk                 (1UL << ITM_LSR_Access_Pos)                    /*!< ITM 
 832:Drivers/CMSIS/Include/core_cm3.h **** 
 833:Drivers/CMSIS/Include/core_cm3.h **** #define ITM_LSR_Present_Pos                 0U                                            /*!< ITM 
 834:Drivers/CMSIS/Include/core_cm3.h **** #define ITM_LSR_Present_Msk                (1UL /*<< ITM_LSR_Present_Pos*/)               /*!< ITM 
 835:Drivers/CMSIS/Include/core_cm3.h **** 
 836:Drivers/CMSIS/Include/core_cm3.h **** /*@}*/ /* end of group CMSIS_ITM */
ARM GAS  C:\Users\cedri\AppData\Local\Temp\ccZqcsPj.s 			page 29


 837:Drivers/CMSIS/Include/core_cm3.h **** 
 838:Drivers/CMSIS/Include/core_cm3.h **** 
 839:Drivers/CMSIS/Include/core_cm3.h **** /**
 840:Drivers/CMSIS/Include/core_cm3.h ****   \ingroup  CMSIS_core_register
 841:Drivers/CMSIS/Include/core_cm3.h ****   \defgroup CMSIS_DWT     Data Watchpoint and Trace (DWT)
 842:Drivers/CMSIS/Include/core_cm3.h ****   \brief    Type definitions for the Data Watchpoint and Trace (DWT)
 843:Drivers/CMSIS/Include/core_cm3.h ****   @{
 844:Drivers/CMSIS/Include/core_cm3.h ****  */
 845:Drivers/CMSIS/Include/core_cm3.h **** 
 846:Drivers/CMSIS/Include/core_cm3.h **** /**
 847:Drivers/CMSIS/Include/core_cm3.h ****   \brief  Structure type to access the Data Watchpoint and Trace Register (DWT).
 848:Drivers/CMSIS/Include/core_cm3.h ****  */
 849:Drivers/CMSIS/Include/core_cm3.h **** typedef struct
 850:Drivers/CMSIS/Include/core_cm3.h **** {
 851:Drivers/CMSIS/Include/core_cm3.h ****   __IOM uint32_t CTRL;                   /*!< Offset: 0x000 (R/W)  Control Register */
 852:Drivers/CMSIS/Include/core_cm3.h ****   __IOM uint32_t CYCCNT;                 /*!< Offset: 0x004 (R/W)  Cycle Count Register */
 853:Drivers/CMSIS/Include/core_cm3.h ****   __IOM uint32_t CPICNT;                 /*!< Offset: 0x008 (R/W)  CPI Count Register */
 854:Drivers/CMSIS/Include/core_cm3.h ****   __IOM uint32_t EXCCNT;                 /*!< Offset: 0x00C (R/W)  Exception Overhead Count Registe
 855:Drivers/CMSIS/Include/core_cm3.h ****   __IOM uint32_t SLEEPCNT;               /*!< Offset: 0x010 (R/W)  Sleep Count Register */
 856:Drivers/CMSIS/Include/core_cm3.h ****   __IOM uint32_t LSUCNT;                 /*!< Offset: 0x014 (R/W)  LSU Count Register */
 857:Drivers/CMSIS/Include/core_cm3.h ****   __IOM uint32_t FOLDCNT;                /*!< Offset: 0x018 (R/W)  Folded-instruction Count Registe
 858:Drivers/CMSIS/Include/core_cm3.h ****   __IM  uint32_t PCSR;                   /*!< Offset: 0x01C (R/ )  Program Counter Sample Register 
 859:Drivers/CMSIS/Include/core_cm3.h ****   __IOM uint32_t COMP0;                  /*!< Offset: 0x020 (R/W)  Comparator Register 0 */
 860:Drivers/CMSIS/Include/core_cm3.h ****   __IOM uint32_t MASK0;                  /*!< Offset: 0x024 (R/W)  Mask Register 0 */
 861:Drivers/CMSIS/Include/core_cm3.h ****   __IOM uint32_t FUNCTION0;              /*!< Offset: 0x028 (R/W)  Function Register 0 */
 862:Drivers/CMSIS/Include/core_cm3.h ****         uint32_t RESERVED0[1U];
 863:Drivers/CMSIS/Include/core_cm3.h ****   __IOM uint32_t COMP1;                  /*!< Offset: 0x030 (R/W)  Comparator Register 1 */
 864:Drivers/CMSIS/Include/core_cm3.h ****   __IOM uint32_t MASK1;                  /*!< Offset: 0x034 (R/W)  Mask Register 1 */
 865:Drivers/CMSIS/Include/core_cm3.h ****   __IOM uint32_t FUNCTION1;              /*!< Offset: 0x038 (R/W)  Function Register 1 */
 866:Drivers/CMSIS/Include/core_cm3.h ****         uint32_t RESERVED1[1U];
 867:Drivers/CMSIS/Include/core_cm3.h ****   __IOM uint32_t COMP2;                  /*!< Offset: 0x040 (R/W)  Comparator Register 2 */
 868:Drivers/CMSIS/Include/core_cm3.h ****   __IOM uint32_t MASK2;                  /*!< Offset: 0x044 (R/W)  Mask Register 2 */
 869:Drivers/CMSIS/Include/core_cm3.h ****   __IOM uint32_t FUNCTION2;              /*!< Offset: 0x048 (R/W)  Function Register 2 */
 870:Drivers/CMSIS/Include/core_cm3.h ****         uint32_t RESERVED2[1U];
 871:Drivers/CMSIS/Include/core_cm3.h ****   __IOM uint32_t COMP3;                  /*!< Offset: 0x050 (R/W)  Comparator Register 3 */
 872:Drivers/CMSIS/Include/core_cm3.h ****   __IOM uint32_t MASK3;                  /*!< Offset: 0x054 (R/W)  Mask Register 3 */
 873:Drivers/CMSIS/Include/core_cm3.h ****   __IOM uint32_t FUNCTION3;              /*!< Offset: 0x058 (R/W)  Function Register 3 */
 874:Drivers/CMSIS/Include/core_cm3.h **** } DWT_Type;
 875:Drivers/CMSIS/Include/core_cm3.h **** 
 876:Drivers/CMSIS/Include/core_cm3.h **** /* DWT Control Register Definitions */
 877:Drivers/CMSIS/Include/core_cm3.h **** #define DWT_CTRL_NUMCOMP_Pos               28U                                         /*!< DWT CTR
 878:Drivers/CMSIS/Include/core_cm3.h **** #define DWT_CTRL_NUMCOMP_Msk               (0xFUL << DWT_CTRL_NUMCOMP_Pos)             /*!< DWT CTR
 879:Drivers/CMSIS/Include/core_cm3.h **** 
 880:Drivers/CMSIS/Include/core_cm3.h **** #define DWT_CTRL_NOTRCPKT_Pos              27U                                         /*!< DWT CTR
 881:Drivers/CMSIS/Include/core_cm3.h **** #define DWT_CTRL_NOTRCPKT_Msk              (0x1UL << DWT_CTRL_NOTRCPKT_Pos)            /*!< DWT CTR
 882:Drivers/CMSIS/Include/core_cm3.h **** 
 883:Drivers/CMSIS/Include/core_cm3.h **** #define DWT_CTRL_NOEXTTRIG_Pos             26U                                         /*!< DWT CTR
 884:Drivers/CMSIS/Include/core_cm3.h **** #define DWT_CTRL_NOEXTTRIG_Msk             (0x1UL << DWT_CTRL_NOEXTTRIG_Pos)           /*!< DWT CTR
 885:Drivers/CMSIS/Include/core_cm3.h **** 
 886:Drivers/CMSIS/Include/core_cm3.h **** #define DWT_CTRL_NOCYCCNT_Pos              25U                                         /*!< DWT CTR
 887:Drivers/CMSIS/Include/core_cm3.h **** #define DWT_CTRL_NOCYCCNT_Msk              (0x1UL << DWT_CTRL_NOCYCCNT_Pos)            /*!< DWT CTR
 888:Drivers/CMSIS/Include/core_cm3.h **** 
 889:Drivers/CMSIS/Include/core_cm3.h **** #define DWT_CTRL_NOPRFCNT_Pos              24U                                         /*!< DWT CTR
 890:Drivers/CMSIS/Include/core_cm3.h **** #define DWT_CTRL_NOPRFCNT_Msk              (0x1UL << DWT_CTRL_NOPRFCNT_Pos)            /*!< DWT CTR
 891:Drivers/CMSIS/Include/core_cm3.h **** 
 892:Drivers/CMSIS/Include/core_cm3.h **** #define DWT_CTRL_CYCEVTENA_Pos             22U                                         /*!< DWT CTR
 893:Drivers/CMSIS/Include/core_cm3.h **** #define DWT_CTRL_CYCEVTENA_Msk             (0x1UL << DWT_CTRL_CYCEVTENA_Pos)           /*!< DWT CTR
ARM GAS  C:\Users\cedri\AppData\Local\Temp\ccZqcsPj.s 			page 30


 894:Drivers/CMSIS/Include/core_cm3.h **** 
 895:Drivers/CMSIS/Include/core_cm3.h **** #define DWT_CTRL_FOLDEVTENA_Pos            21U                                         /*!< DWT CTR
 896:Drivers/CMSIS/Include/core_cm3.h **** #define DWT_CTRL_FOLDEVTENA_Msk            (0x1UL << DWT_CTRL_FOLDEVTENA_Pos)          /*!< DWT CTR
 897:Drivers/CMSIS/Include/core_cm3.h **** 
 898:Drivers/CMSIS/Include/core_cm3.h **** #define DWT_CTRL_LSUEVTENA_Pos             20U                                         /*!< DWT CTR
 899:Drivers/CMSIS/Include/core_cm3.h **** #define DWT_CTRL_LSUEVTENA_Msk             (0x1UL << DWT_CTRL_LSUEVTENA_Pos)           /*!< DWT CTR
 900:Drivers/CMSIS/Include/core_cm3.h **** 
 901:Drivers/CMSIS/Include/core_cm3.h **** #define DWT_CTRL_SLEEPEVTENA_Pos           19U                                         /*!< DWT CTR
 902:Drivers/CMSIS/Include/core_cm3.h **** #define DWT_CTRL_SLEEPEVTENA_Msk           (0x1UL << DWT_CTRL_SLEEPEVTENA_Pos)         /*!< DWT CTR
 903:Drivers/CMSIS/Include/core_cm3.h **** 
 904:Drivers/CMSIS/Include/core_cm3.h **** #define DWT_CTRL_EXCEVTENA_Pos             18U                                         /*!< DWT CTR
 905:Drivers/CMSIS/Include/core_cm3.h **** #define DWT_CTRL_EXCEVTENA_Msk             (0x1UL << DWT_CTRL_EXCEVTENA_Pos)           /*!< DWT CTR
 906:Drivers/CMSIS/Include/core_cm3.h **** 
 907:Drivers/CMSIS/Include/core_cm3.h **** #define DWT_CTRL_CPIEVTENA_Pos             17U                                         /*!< DWT CTR
 908:Drivers/CMSIS/Include/core_cm3.h **** #define DWT_CTRL_CPIEVTENA_Msk             (0x1UL << DWT_CTRL_CPIEVTENA_Pos)           /*!< DWT CTR
 909:Drivers/CMSIS/Include/core_cm3.h **** 
 910:Drivers/CMSIS/Include/core_cm3.h **** #define DWT_CTRL_EXCTRCENA_Pos             16U                                         /*!< DWT CTR
 911:Drivers/CMSIS/Include/core_cm3.h **** #define DWT_CTRL_EXCTRCENA_Msk             (0x1UL << DWT_CTRL_EXCTRCENA_Pos)           /*!< DWT CTR
 912:Drivers/CMSIS/Include/core_cm3.h **** 
 913:Drivers/CMSIS/Include/core_cm3.h **** #define DWT_CTRL_PCSAMPLENA_Pos            12U                                         /*!< DWT CTR
 914:Drivers/CMSIS/Include/core_cm3.h **** #define DWT_CTRL_PCSAMPLENA_Msk            (0x1UL << DWT_CTRL_PCSAMPLENA_Pos)          /*!< DWT CTR
 915:Drivers/CMSIS/Include/core_cm3.h **** 
 916:Drivers/CMSIS/Include/core_cm3.h **** #define DWT_CTRL_SYNCTAP_Pos               10U                                         /*!< DWT CTR
 917:Drivers/CMSIS/Include/core_cm3.h **** #define DWT_CTRL_SYNCTAP_Msk               (0x3UL << DWT_CTRL_SYNCTAP_Pos)             /*!< DWT CTR
 918:Drivers/CMSIS/Include/core_cm3.h **** 
 919:Drivers/CMSIS/Include/core_cm3.h **** #define DWT_CTRL_CYCTAP_Pos                 9U                                         /*!< DWT CTR
 920:Drivers/CMSIS/Include/core_cm3.h **** #define DWT_CTRL_CYCTAP_Msk                (0x1UL << DWT_CTRL_CYCTAP_Pos)              /*!< DWT CTR
 921:Drivers/CMSIS/Include/core_cm3.h **** 
 922:Drivers/CMSIS/Include/core_cm3.h **** #define DWT_CTRL_POSTINIT_Pos               5U                                         /*!< DWT CTR
 923:Drivers/CMSIS/Include/core_cm3.h **** #define DWT_CTRL_POSTINIT_Msk              (0xFUL << DWT_CTRL_POSTINIT_Pos)            /*!< DWT CTR
 924:Drivers/CMSIS/Include/core_cm3.h **** 
 925:Drivers/CMSIS/Include/core_cm3.h **** #define DWT_CTRL_POSTPRESET_Pos             1U                                         /*!< DWT CTR
 926:Drivers/CMSIS/Include/core_cm3.h **** #define DWT_CTRL_POSTPRESET_Msk            (0xFUL << DWT_CTRL_POSTPRESET_Pos)          /*!< DWT CTR
 927:Drivers/CMSIS/Include/core_cm3.h **** 
 928:Drivers/CMSIS/Include/core_cm3.h **** #define DWT_CTRL_CYCCNTENA_Pos              0U                                         /*!< DWT CTR
 929:Drivers/CMSIS/Include/core_cm3.h **** #define DWT_CTRL_CYCCNTENA_Msk             (0x1UL /*<< DWT_CTRL_CYCCNTENA_Pos*/)       /*!< DWT CTR
 930:Drivers/CMSIS/Include/core_cm3.h **** 
 931:Drivers/CMSIS/Include/core_cm3.h **** /* DWT CPI Count Register Definitions */
 932:Drivers/CMSIS/Include/core_cm3.h **** #define DWT_CPICNT_CPICNT_Pos               0U                                         /*!< DWT CPI
 933:Drivers/CMSIS/Include/core_cm3.h **** #define DWT_CPICNT_CPICNT_Msk              (0xFFUL /*<< DWT_CPICNT_CPICNT_Pos*/)       /*!< DWT CPI
 934:Drivers/CMSIS/Include/core_cm3.h **** 
 935:Drivers/CMSIS/Include/core_cm3.h **** /* DWT Exception Overhead Count Register Definitions */
 936:Drivers/CMSIS/Include/core_cm3.h **** #define DWT_EXCCNT_EXCCNT_Pos               0U                                         /*!< DWT EXC
 937:Drivers/CMSIS/Include/core_cm3.h **** #define DWT_EXCCNT_EXCCNT_Msk              (0xFFUL /*<< DWT_EXCCNT_EXCCNT_Pos*/)       /*!< DWT EXC
 938:Drivers/CMSIS/Include/core_cm3.h **** 
 939:Drivers/CMSIS/Include/core_cm3.h **** /* DWT Sleep Count Register Definitions */
 940:Drivers/CMSIS/Include/core_cm3.h **** #define DWT_SLEEPCNT_SLEEPCNT_Pos           0U                                         /*!< DWT SLE
 941:Drivers/CMSIS/Include/core_cm3.h **** #define DWT_SLEEPCNT_SLEEPCNT_Msk          (0xFFUL /*<< DWT_SLEEPCNT_SLEEPCNT_Pos*/)   /*!< DWT SLE
 942:Drivers/CMSIS/Include/core_cm3.h **** 
 943:Drivers/CMSIS/Include/core_cm3.h **** /* DWT LSU Count Register Definitions */
 944:Drivers/CMSIS/Include/core_cm3.h **** #define DWT_LSUCNT_LSUCNT_Pos               0U                                         /*!< DWT LSU
 945:Drivers/CMSIS/Include/core_cm3.h **** #define DWT_LSUCNT_LSUCNT_Msk              (0xFFUL /*<< DWT_LSUCNT_LSUCNT_Pos*/)       /*!< DWT LSU
 946:Drivers/CMSIS/Include/core_cm3.h **** 
 947:Drivers/CMSIS/Include/core_cm3.h **** /* DWT Folded-instruction Count Register Definitions */
 948:Drivers/CMSIS/Include/core_cm3.h **** #define DWT_FOLDCNT_FOLDCNT_Pos             0U                                         /*!< DWT FOL
 949:Drivers/CMSIS/Include/core_cm3.h **** #define DWT_FOLDCNT_FOLDCNT_Msk            (0xFFUL /*<< DWT_FOLDCNT_FOLDCNT_Pos*/)     /*!< DWT FOL
 950:Drivers/CMSIS/Include/core_cm3.h **** 
ARM GAS  C:\Users\cedri\AppData\Local\Temp\ccZqcsPj.s 			page 31


 951:Drivers/CMSIS/Include/core_cm3.h **** /* DWT Comparator Mask Register Definitions */
 952:Drivers/CMSIS/Include/core_cm3.h **** #define DWT_MASK_MASK_Pos                   0U                                         /*!< DWT MAS
 953:Drivers/CMSIS/Include/core_cm3.h **** #define DWT_MASK_MASK_Msk                  (0x1FUL /*<< DWT_MASK_MASK_Pos*/)           /*!< DWT MAS
 954:Drivers/CMSIS/Include/core_cm3.h **** 
 955:Drivers/CMSIS/Include/core_cm3.h **** /* DWT Comparator Function Register Definitions */
 956:Drivers/CMSIS/Include/core_cm3.h **** #define DWT_FUNCTION_MATCHED_Pos           24U                                         /*!< DWT FUN
 957:Drivers/CMSIS/Include/core_cm3.h **** #define DWT_FUNCTION_MATCHED_Msk           (0x1UL << DWT_FUNCTION_MATCHED_Pos)         /*!< DWT FUN
 958:Drivers/CMSIS/Include/core_cm3.h **** 
 959:Drivers/CMSIS/Include/core_cm3.h **** #define DWT_FUNCTION_DATAVADDR1_Pos        16U                                         /*!< DWT FUN
 960:Drivers/CMSIS/Include/core_cm3.h **** #define DWT_FUNCTION_DATAVADDR1_Msk        (0xFUL << DWT_FUNCTION_DATAVADDR1_Pos)      /*!< DWT FUN
 961:Drivers/CMSIS/Include/core_cm3.h **** 
 962:Drivers/CMSIS/Include/core_cm3.h **** #define DWT_FUNCTION_DATAVADDR0_Pos        12U                                         /*!< DWT FUN
 963:Drivers/CMSIS/Include/core_cm3.h **** #define DWT_FUNCTION_DATAVADDR0_Msk        (0xFUL << DWT_FUNCTION_DATAVADDR0_Pos)      /*!< DWT FUN
 964:Drivers/CMSIS/Include/core_cm3.h **** 
 965:Drivers/CMSIS/Include/core_cm3.h **** #define DWT_FUNCTION_DATAVSIZE_Pos         10U                                         /*!< DWT FUN
 966:Drivers/CMSIS/Include/core_cm3.h **** #define DWT_FUNCTION_DATAVSIZE_Msk         (0x3UL << DWT_FUNCTION_DATAVSIZE_Pos)       /*!< DWT FUN
 967:Drivers/CMSIS/Include/core_cm3.h **** 
 968:Drivers/CMSIS/Include/core_cm3.h **** #define DWT_FUNCTION_LNK1ENA_Pos            9U                                         /*!< DWT FUN
 969:Drivers/CMSIS/Include/core_cm3.h **** #define DWT_FUNCTION_LNK1ENA_Msk           (0x1UL << DWT_FUNCTION_LNK1ENA_Pos)         /*!< DWT FUN
 970:Drivers/CMSIS/Include/core_cm3.h **** 
 971:Drivers/CMSIS/Include/core_cm3.h **** #define DWT_FUNCTION_DATAVMATCH_Pos         8U                                         /*!< DWT FUN
 972:Drivers/CMSIS/Include/core_cm3.h **** #define DWT_FUNCTION_DATAVMATCH_Msk        (0x1UL << DWT_FUNCTION_DATAVMATCH_Pos)      /*!< DWT FUN
 973:Drivers/CMSIS/Include/core_cm3.h **** 
 974:Drivers/CMSIS/Include/core_cm3.h **** #define DWT_FUNCTION_CYCMATCH_Pos           7U                                         /*!< DWT FUN
 975:Drivers/CMSIS/Include/core_cm3.h **** #define DWT_FUNCTION_CYCMATCH_Msk          (0x1UL << DWT_FUNCTION_CYCMATCH_Pos)        /*!< DWT FUN
 976:Drivers/CMSIS/Include/core_cm3.h **** 
 977:Drivers/CMSIS/Include/core_cm3.h **** #define DWT_FUNCTION_EMITRANGE_Pos          5U                                         /*!< DWT FUN
 978:Drivers/CMSIS/Include/core_cm3.h **** #define DWT_FUNCTION_EMITRANGE_Msk         (0x1UL << DWT_FUNCTION_EMITRANGE_Pos)       /*!< DWT FUN
 979:Drivers/CMSIS/Include/core_cm3.h **** 
 980:Drivers/CMSIS/Include/core_cm3.h **** #define DWT_FUNCTION_FUNCTION_Pos           0U                                         /*!< DWT FUN
 981:Drivers/CMSIS/Include/core_cm3.h **** #define DWT_FUNCTION_FUNCTION_Msk          (0xFUL /*<< DWT_FUNCTION_FUNCTION_Pos*/)    /*!< DWT FUN
 982:Drivers/CMSIS/Include/core_cm3.h **** 
 983:Drivers/CMSIS/Include/core_cm3.h **** /*@}*/ /* end of group CMSIS_DWT */
 984:Drivers/CMSIS/Include/core_cm3.h **** 
 985:Drivers/CMSIS/Include/core_cm3.h **** 
 986:Drivers/CMSIS/Include/core_cm3.h **** /**
 987:Drivers/CMSIS/Include/core_cm3.h ****   \ingroup  CMSIS_core_register
 988:Drivers/CMSIS/Include/core_cm3.h ****   \defgroup CMSIS_TPI     Trace Port Interface (TPI)
 989:Drivers/CMSIS/Include/core_cm3.h ****   \brief    Type definitions for the Trace Port Interface (TPI)
 990:Drivers/CMSIS/Include/core_cm3.h ****   @{
 991:Drivers/CMSIS/Include/core_cm3.h ****  */
 992:Drivers/CMSIS/Include/core_cm3.h **** 
 993:Drivers/CMSIS/Include/core_cm3.h **** /**
 994:Drivers/CMSIS/Include/core_cm3.h ****   \brief  Structure type to access the Trace Port Interface Register (TPI).
 995:Drivers/CMSIS/Include/core_cm3.h ****  */
 996:Drivers/CMSIS/Include/core_cm3.h **** typedef struct
 997:Drivers/CMSIS/Include/core_cm3.h **** {
 998:Drivers/CMSIS/Include/core_cm3.h ****   __IM  uint32_t SSPSR;                  /*!< Offset: 0x000 (R/ )  Supported Parallel Port Size Reg
 999:Drivers/CMSIS/Include/core_cm3.h ****   __IOM uint32_t CSPSR;                  /*!< Offset: 0x004 (R/W)  Current Parallel Port Size Regis
1000:Drivers/CMSIS/Include/core_cm3.h ****         uint32_t RESERVED0[2U];
1001:Drivers/CMSIS/Include/core_cm3.h ****   __IOM uint32_t ACPR;                   /*!< Offset: 0x010 (R/W)  Asynchronous Clock Prescaler Reg
1002:Drivers/CMSIS/Include/core_cm3.h ****         uint32_t RESERVED1[55U];
1003:Drivers/CMSIS/Include/core_cm3.h ****   __IOM uint32_t SPPR;                   /*!< Offset: 0x0F0 (R/W)  Selected Pin Protocol Register *
1004:Drivers/CMSIS/Include/core_cm3.h ****         uint32_t RESERVED2[131U];
1005:Drivers/CMSIS/Include/core_cm3.h ****   __IM  uint32_t FFSR;                   /*!< Offset: 0x300 (R/ )  Formatter and Flush Status Regis
1006:Drivers/CMSIS/Include/core_cm3.h ****   __IOM uint32_t FFCR;                   /*!< Offset: 0x304 (R/W)  Formatter and Flush Control Regi
1007:Drivers/CMSIS/Include/core_cm3.h ****   __IM  uint32_t FSCR;                   /*!< Offset: 0x308 (R/ )  Formatter Synchronization Counte
ARM GAS  C:\Users\cedri\AppData\Local\Temp\ccZqcsPj.s 			page 32


1008:Drivers/CMSIS/Include/core_cm3.h ****         uint32_t RESERVED3[759U];
1009:Drivers/CMSIS/Include/core_cm3.h ****   __IM  uint32_t TRIGGER;                /*!< Offset: 0xEE8 (R/ )  TRIGGER Register */
1010:Drivers/CMSIS/Include/core_cm3.h ****   __IM  uint32_t FIFO0;                  /*!< Offset: 0xEEC (R/ )  Integration ETM Data */
1011:Drivers/CMSIS/Include/core_cm3.h ****   __IM  uint32_t ITATBCTR2;              /*!< Offset: 0xEF0 (R/ )  ITATBCTR2 */
1012:Drivers/CMSIS/Include/core_cm3.h ****         uint32_t RESERVED4[1U];
1013:Drivers/CMSIS/Include/core_cm3.h ****   __IM  uint32_t ITATBCTR0;              /*!< Offset: 0xEF8 (R/ )  ITATBCTR0 */
1014:Drivers/CMSIS/Include/core_cm3.h ****   __IM  uint32_t FIFO1;                  /*!< Offset: 0xEFC (R/ )  Integration ITM Data */
1015:Drivers/CMSIS/Include/core_cm3.h ****   __IOM uint32_t ITCTRL;                 /*!< Offset: 0xF00 (R/W)  Integration Mode Control */
1016:Drivers/CMSIS/Include/core_cm3.h ****         uint32_t RESERVED5[39U];
1017:Drivers/CMSIS/Include/core_cm3.h ****   __IOM uint32_t CLAIMSET;               /*!< Offset: 0xFA0 (R/W)  Claim tag set */
1018:Drivers/CMSIS/Include/core_cm3.h ****   __IOM uint32_t CLAIMCLR;               /*!< Offset: 0xFA4 (R/W)  Claim tag clear */
1019:Drivers/CMSIS/Include/core_cm3.h ****         uint32_t RESERVED7[8U];
1020:Drivers/CMSIS/Include/core_cm3.h ****   __IM  uint32_t DEVID;                  /*!< Offset: 0xFC8 (R/ )  TPIU_DEVID */
1021:Drivers/CMSIS/Include/core_cm3.h ****   __IM  uint32_t DEVTYPE;                /*!< Offset: 0xFCC (R/ )  TPIU_DEVTYPE */
1022:Drivers/CMSIS/Include/core_cm3.h **** } TPI_Type;
1023:Drivers/CMSIS/Include/core_cm3.h **** 
1024:Drivers/CMSIS/Include/core_cm3.h **** /* TPI Asynchronous Clock Prescaler Register Definitions */
1025:Drivers/CMSIS/Include/core_cm3.h **** #define TPI_ACPR_PRESCALER_Pos              0U                                         /*!< TPI ACP
1026:Drivers/CMSIS/Include/core_cm3.h **** #define TPI_ACPR_PRESCALER_Msk             (0x1FFFUL /*<< TPI_ACPR_PRESCALER_Pos*/)    /*!< TPI ACP
1027:Drivers/CMSIS/Include/core_cm3.h **** 
1028:Drivers/CMSIS/Include/core_cm3.h **** /* TPI Selected Pin Protocol Register Definitions */
1029:Drivers/CMSIS/Include/core_cm3.h **** #define TPI_SPPR_TXMODE_Pos                 0U                                         /*!< TPI SPP
1030:Drivers/CMSIS/Include/core_cm3.h **** #define TPI_SPPR_TXMODE_Msk                (0x3UL /*<< TPI_SPPR_TXMODE_Pos*/)          /*!< TPI SPP
1031:Drivers/CMSIS/Include/core_cm3.h **** 
1032:Drivers/CMSIS/Include/core_cm3.h **** /* TPI Formatter and Flush Status Register Definitions */
1033:Drivers/CMSIS/Include/core_cm3.h **** #define TPI_FFSR_FtNonStop_Pos              3U                                         /*!< TPI FFS
1034:Drivers/CMSIS/Include/core_cm3.h **** #define TPI_FFSR_FtNonStop_Msk             (0x1UL << TPI_FFSR_FtNonStop_Pos)           /*!< TPI FFS
1035:Drivers/CMSIS/Include/core_cm3.h **** 
1036:Drivers/CMSIS/Include/core_cm3.h **** #define TPI_FFSR_TCPresent_Pos              2U                                         /*!< TPI FFS
1037:Drivers/CMSIS/Include/core_cm3.h **** #define TPI_FFSR_TCPresent_Msk             (0x1UL << TPI_FFSR_TCPresent_Pos)           /*!< TPI FFS
1038:Drivers/CMSIS/Include/core_cm3.h **** 
1039:Drivers/CMSIS/Include/core_cm3.h **** #define TPI_FFSR_FtStopped_Pos              1U                                         /*!< TPI FFS
1040:Drivers/CMSIS/Include/core_cm3.h **** #define TPI_FFSR_FtStopped_Msk             (0x1UL << TPI_FFSR_FtStopped_Pos)           /*!< TPI FFS
1041:Drivers/CMSIS/Include/core_cm3.h **** 
1042:Drivers/CMSIS/Include/core_cm3.h **** #define TPI_FFSR_FlInProg_Pos               0U                                         /*!< TPI FFS
1043:Drivers/CMSIS/Include/core_cm3.h **** #define TPI_FFSR_FlInProg_Msk              (0x1UL /*<< TPI_FFSR_FlInProg_Pos*/)        /*!< TPI FFS
1044:Drivers/CMSIS/Include/core_cm3.h **** 
1045:Drivers/CMSIS/Include/core_cm3.h **** /* TPI Formatter and Flush Control Register Definitions */
1046:Drivers/CMSIS/Include/core_cm3.h **** #define TPI_FFCR_TrigIn_Pos                 8U                                         /*!< TPI FFC
1047:Drivers/CMSIS/Include/core_cm3.h **** #define TPI_FFCR_TrigIn_Msk                (0x1UL << TPI_FFCR_TrigIn_Pos)              /*!< TPI FFC
1048:Drivers/CMSIS/Include/core_cm3.h **** 
1049:Drivers/CMSIS/Include/core_cm3.h **** #define TPI_FFCR_EnFCont_Pos                1U                                         /*!< TPI FFC
1050:Drivers/CMSIS/Include/core_cm3.h **** #define TPI_FFCR_EnFCont_Msk               (0x1UL << TPI_FFCR_EnFCont_Pos)             /*!< TPI FFC
1051:Drivers/CMSIS/Include/core_cm3.h **** 
1052:Drivers/CMSIS/Include/core_cm3.h **** /* TPI TRIGGER Register Definitions */
1053:Drivers/CMSIS/Include/core_cm3.h **** #define TPI_TRIGGER_TRIGGER_Pos             0U                                         /*!< TPI TRI
1054:Drivers/CMSIS/Include/core_cm3.h **** #define TPI_TRIGGER_TRIGGER_Msk            (0x1UL /*<< TPI_TRIGGER_TRIGGER_Pos*/)      /*!< TPI TRI
1055:Drivers/CMSIS/Include/core_cm3.h **** 
1056:Drivers/CMSIS/Include/core_cm3.h **** /* TPI Integration ETM Data Register Definitions (FIFO0) */
1057:Drivers/CMSIS/Include/core_cm3.h **** #define TPI_FIFO0_ITM_ATVALID_Pos          29U                                         /*!< TPI FIF
1058:Drivers/CMSIS/Include/core_cm3.h **** #define TPI_FIFO0_ITM_ATVALID_Msk          (0x3UL << TPI_FIFO0_ITM_ATVALID_Pos)        /*!< TPI FIF
1059:Drivers/CMSIS/Include/core_cm3.h **** 
1060:Drivers/CMSIS/Include/core_cm3.h **** #define TPI_FIFO0_ITM_bytecount_Pos        27U                                         /*!< TPI FIF
1061:Drivers/CMSIS/Include/core_cm3.h **** #define TPI_FIFO0_ITM_bytecount_Msk        (0x3UL << TPI_FIFO0_ITM_bytecount_Pos)      /*!< TPI FIF
1062:Drivers/CMSIS/Include/core_cm3.h **** 
1063:Drivers/CMSIS/Include/core_cm3.h **** #define TPI_FIFO0_ETM_ATVALID_Pos          26U                                         /*!< TPI FIF
1064:Drivers/CMSIS/Include/core_cm3.h **** #define TPI_FIFO0_ETM_ATVALID_Msk          (0x3UL << TPI_FIFO0_ETM_ATVALID_Pos)        /*!< TPI FIF
ARM GAS  C:\Users\cedri\AppData\Local\Temp\ccZqcsPj.s 			page 33


1065:Drivers/CMSIS/Include/core_cm3.h **** 
1066:Drivers/CMSIS/Include/core_cm3.h **** #define TPI_FIFO0_ETM_bytecount_Pos        24U                                         /*!< TPI FIF
1067:Drivers/CMSIS/Include/core_cm3.h **** #define TPI_FIFO0_ETM_bytecount_Msk        (0x3UL << TPI_FIFO0_ETM_bytecount_Pos)      /*!< TPI FIF
1068:Drivers/CMSIS/Include/core_cm3.h **** 
1069:Drivers/CMSIS/Include/core_cm3.h **** #define TPI_FIFO0_ETM2_Pos                 16U                                         /*!< TPI FIF
1070:Drivers/CMSIS/Include/core_cm3.h **** #define TPI_FIFO0_ETM2_Msk                 (0xFFUL << TPI_FIFO0_ETM2_Pos)              /*!< TPI FIF
1071:Drivers/CMSIS/Include/core_cm3.h **** 
1072:Drivers/CMSIS/Include/core_cm3.h **** #define TPI_FIFO0_ETM1_Pos                  8U                                         /*!< TPI FIF
1073:Drivers/CMSIS/Include/core_cm3.h **** #define TPI_FIFO0_ETM1_Msk                 (0xFFUL << TPI_FIFO0_ETM1_Pos)              /*!< TPI FIF
1074:Drivers/CMSIS/Include/core_cm3.h **** 
1075:Drivers/CMSIS/Include/core_cm3.h **** #define TPI_FIFO0_ETM0_Pos                  0U                                         /*!< TPI FIF
1076:Drivers/CMSIS/Include/core_cm3.h **** #define TPI_FIFO0_ETM0_Msk                 (0xFFUL /*<< TPI_FIFO0_ETM0_Pos*/)          /*!< TPI FIF
1077:Drivers/CMSIS/Include/core_cm3.h **** 
1078:Drivers/CMSIS/Include/core_cm3.h **** /* TPI ITATBCTR2 Register Definitions */
1079:Drivers/CMSIS/Include/core_cm3.h **** #define TPI_ITATBCTR2_ATREADY2_Pos          0U                                         /*!< TPI ITA
1080:Drivers/CMSIS/Include/core_cm3.h **** #define TPI_ITATBCTR2_ATREADY2_Msk         (0x1UL /*<< TPI_ITATBCTR2_ATREADY2_Pos*/)   /*!< TPI ITA
1081:Drivers/CMSIS/Include/core_cm3.h **** 
1082:Drivers/CMSIS/Include/core_cm3.h **** #define TPI_ITATBCTR2_ATREADY1_Pos          0U                                         /*!< TPI ITA
1083:Drivers/CMSIS/Include/core_cm3.h **** #define TPI_ITATBCTR2_ATREADY1_Msk         (0x1UL /*<< TPI_ITATBCTR2_ATREADY1_Pos*/)   /*!< TPI ITA
1084:Drivers/CMSIS/Include/core_cm3.h **** 
1085:Drivers/CMSIS/Include/core_cm3.h **** /* TPI Integration ITM Data Register Definitions (FIFO1) */
1086:Drivers/CMSIS/Include/core_cm3.h **** #define TPI_FIFO1_ITM_ATVALID_Pos          29U                                         /*!< TPI FIF
1087:Drivers/CMSIS/Include/core_cm3.h **** #define TPI_FIFO1_ITM_ATVALID_Msk          (0x3UL << TPI_FIFO1_ITM_ATVALID_Pos)        /*!< TPI FIF
1088:Drivers/CMSIS/Include/core_cm3.h **** 
1089:Drivers/CMSIS/Include/core_cm3.h **** #define TPI_FIFO1_ITM_bytecount_Pos        27U                                         /*!< TPI FIF
1090:Drivers/CMSIS/Include/core_cm3.h **** #define TPI_FIFO1_ITM_bytecount_Msk        (0x3UL << TPI_FIFO1_ITM_bytecount_Pos)      /*!< TPI FIF
1091:Drivers/CMSIS/Include/core_cm3.h **** 
1092:Drivers/CMSIS/Include/core_cm3.h **** #define TPI_FIFO1_ETM_ATVALID_Pos          26U                                         /*!< TPI FIF
1093:Drivers/CMSIS/Include/core_cm3.h **** #define TPI_FIFO1_ETM_ATVALID_Msk          (0x3UL << TPI_FIFO1_ETM_ATVALID_Pos)        /*!< TPI FIF
1094:Drivers/CMSIS/Include/core_cm3.h **** 
1095:Drivers/CMSIS/Include/core_cm3.h **** #define TPI_FIFO1_ETM_bytecount_Pos        24U                                         /*!< TPI FIF
1096:Drivers/CMSIS/Include/core_cm3.h **** #define TPI_FIFO1_ETM_bytecount_Msk        (0x3UL << TPI_FIFO1_ETM_bytecount_Pos)      /*!< TPI FIF
1097:Drivers/CMSIS/Include/core_cm3.h **** 
1098:Drivers/CMSIS/Include/core_cm3.h **** #define TPI_FIFO1_ITM2_Pos                 16U                                         /*!< TPI FIF
1099:Drivers/CMSIS/Include/core_cm3.h **** #define TPI_FIFO1_ITM2_Msk                 (0xFFUL << TPI_FIFO1_ITM2_Pos)              /*!< TPI FIF
1100:Drivers/CMSIS/Include/core_cm3.h **** 
1101:Drivers/CMSIS/Include/core_cm3.h **** #define TPI_FIFO1_ITM1_Pos                  8U                                         /*!< TPI FIF
1102:Drivers/CMSIS/Include/core_cm3.h **** #define TPI_FIFO1_ITM1_Msk                 (0xFFUL << TPI_FIFO1_ITM1_Pos)              /*!< TPI FIF
1103:Drivers/CMSIS/Include/core_cm3.h **** 
1104:Drivers/CMSIS/Include/core_cm3.h **** #define TPI_FIFO1_ITM0_Pos                  0U                                         /*!< TPI FIF
1105:Drivers/CMSIS/Include/core_cm3.h **** #define TPI_FIFO1_ITM0_Msk                 (0xFFUL /*<< TPI_FIFO1_ITM0_Pos*/)          /*!< TPI FIF
1106:Drivers/CMSIS/Include/core_cm3.h **** 
1107:Drivers/CMSIS/Include/core_cm3.h **** /* TPI ITATBCTR0 Register Definitions */
1108:Drivers/CMSIS/Include/core_cm3.h **** #define TPI_ITATBCTR0_ATREADY2_Pos          0U                                         /*!< TPI ITA
1109:Drivers/CMSIS/Include/core_cm3.h **** #define TPI_ITATBCTR0_ATREADY2_Msk         (0x1UL /*<< TPI_ITATBCTR0_ATREADY2_Pos*/)   /*!< TPI ITA
1110:Drivers/CMSIS/Include/core_cm3.h **** 
1111:Drivers/CMSIS/Include/core_cm3.h **** #define TPI_ITATBCTR0_ATREADY1_Pos          0U                                         /*!< TPI ITA
1112:Drivers/CMSIS/Include/core_cm3.h **** #define TPI_ITATBCTR0_ATREADY1_Msk         (0x1UL /*<< TPI_ITATBCTR0_ATREADY1_Pos*/)   /*!< TPI ITA
1113:Drivers/CMSIS/Include/core_cm3.h **** 
1114:Drivers/CMSIS/Include/core_cm3.h **** /* TPI Integration Mode Control Register Definitions */
1115:Drivers/CMSIS/Include/core_cm3.h **** #define TPI_ITCTRL_Mode_Pos                 0U                                         /*!< TPI ITC
1116:Drivers/CMSIS/Include/core_cm3.h **** #define TPI_ITCTRL_Mode_Msk                (0x3UL /*<< TPI_ITCTRL_Mode_Pos*/)          /*!< TPI ITC
1117:Drivers/CMSIS/Include/core_cm3.h **** 
1118:Drivers/CMSIS/Include/core_cm3.h **** /* TPI DEVID Register Definitions */
1119:Drivers/CMSIS/Include/core_cm3.h **** #define TPI_DEVID_NRZVALID_Pos             11U                                         /*!< TPI DEV
1120:Drivers/CMSIS/Include/core_cm3.h **** #define TPI_DEVID_NRZVALID_Msk             (0x1UL << TPI_DEVID_NRZVALID_Pos)           /*!< TPI DEV
1121:Drivers/CMSIS/Include/core_cm3.h **** 
ARM GAS  C:\Users\cedri\AppData\Local\Temp\ccZqcsPj.s 			page 34


1122:Drivers/CMSIS/Include/core_cm3.h **** #define TPI_DEVID_MANCVALID_Pos            10U                                         /*!< TPI DEV
1123:Drivers/CMSIS/Include/core_cm3.h **** #define TPI_DEVID_MANCVALID_Msk            (0x1UL << TPI_DEVID_MANCVALID_Pos)          /*!< TPI DEV
1124:Drivers/CMSIS/Include/core_cm3.h **** 
1125:Drivers/CMSIS/Include/core_cm3.h **** #define TPI_DEVID_PTINVALID_Pos             9U                                         /*!< TPI DEV
1126:Drivers/CMSIS/Include/core_cm3.h **** #define TPI_DEVID_PTINVALID_Msk            (0x1UL << TPI_DEVID_PTINVALID_Pos)          /*!< TPI DEV
1127:Drivers/CMSIS/Include/core_cm3.h **** 
1128:Drivers/CMSIS/Include/core_cm3.h **** #define TPI_DEVID_MinBufSz_Pos              6U                                         /*!< TPI DEV
1129:Drivers/CMSIS/Include/core_cm3.h **** #define TPI_DEVID_MinBufSz_Msk             (0x7UL << TPI_DEVID_MinBufSz_Pos)           /*!< TPI DEV
1130:Drivers/CMSIS/Include/core_cm3.h **** 
1131:Drivers/CMSIS/Include/core_cm3.h **** #define TPI_DEVID_AsynClkIn_Pos             5U                                         /*!< TPI DEV
1132:Drivers/CMSIS/Include/core_cm3.h **** #define TPI_DEVID_AsynClkIn_Msk            (0x1UL << TPI_DEVID_AsynClkIn_Pos)          /*!< TPI DEV
1133:Drivers/CMSIS/Include/core_cm3.h **** 
1134:Drivers/CMSIS/Include/core_cm3.h **** #define TPI_DEVID_NrTraceInput_Pos          0U                                         /*!< TPI DEV
1135:Drivers/CMSIS/Include/core_cm3.h **** #define TPI_DEVID_NrTraceInput_Msk         (0x1FUL /*<< TPI_DEVID_NrTraceInput_Pos*/)  /*!< TPI DEV
1136:Drivers/CMSIS/Include/core_cm3.h **** 
1137:Drivers/CMSIS/Include/core_cm3.h **** /* TPI DEVTYPE Register Definitions */
1138:Drivers/CMSIS/Include/core_cm3.h **** #define TPI_DEVTYPE_SubType_Pos             4U                                         /*!< TPI DEV
1139:Drivers/CMSIS/Include/core_cm3.h **** #define TPI_DEVTYPE_SubType_Msk            (0xFUL /*<< TPI_DEVTYPE_SubType_Pos*/)      /*!< TPI DEV
1140:Drivers/CMSIS/Include/core_cm3.h **** 
1141:Drivers/CMSIS/Include/core_cm3.h **** #define TPI_DEVTYPE_MajorType_Pos           0U                                         /*!< TPI DEV
1142:Drivers/CMSIS/Include/core_cm3.h **** #define TPI_DEVTYPE_MajorType_Msk          (0xFUL << TPI_DEVTYPE_MajorType_Pos)        /*!< TPI DEV
1143:Drivers/CMSIS/Include/core_cm3.h **** 
1144:Drivers/CMSIS/Include/core_cm3.h **** /*@}*/ /* end of group CMSIS_TPI */
1145:Drivers/CMSIS/Include/core_cm3.h **** 
1146:Drivers/CMSIS/Include/core_cm3.h **** 
1147:Drivers/CMSIS/Include/core_cm3.h **** #if defined (__MPU_PRESENT) && (__MPU_PRESENT == 1U)
1148:Drivers/CMSIS/Include/core_cm3.h **** /**
1149:Drivers/CMSIS/Include/core_cm3.h ****   \ingroup  CMSIS_core_register
1150:Drivers/CMSIS/Include/core_cm3.h ****   \defgroup CMSIS_MPU     Memory Protection Unit (MPU)
1151:Drivers/CMSIS/Include/core_cm3.h ****   \brief    Type definitions for the Memory Protection Unit (MPU)
1152:Drivers/CMSIS/Include/core_cm3.h ****   @{
1153:Drivers/CMSIS/Include/core_cm3.h ****  */
1154:Drivers/CMSIS/Include/core_cm3.h **** 
1155:Drivers/CMSIS/Include/core_cm3.h **** /**
1156:Drivers/CMSIS/Include/core_cm3.h ****   \brief  Structure type to access the Memory Protection Unit (MPU).
1157:Drivers/CMSIS/Include/core_cm3.h ****  */
1158:Drivers/CMSIS/Include/core_cm3.h **** typedef struct
1159:Drivers/CMSIS/Include/core_cm3.h **** {
1160:Drivers/CMSIS/Include/core_cm3.h ****   __IM  uint32_t TYPE;                   /*!< Offset: 0x000 (R/ )  MPU Type Register */
1161:Drivers/CMSIS/Include/core_cm3.h ****   __IOM uint32_t CTRL;                   /*!< Offset: 0x004 (R/W)  MPU Control Register */
1162:Drivers/CMSIS/Include/core_cm3.h ****   __IOM uint32_t RNR;                    /*!< Offset: 0x008 (R/W)  MPU Region RNRber Register */
1163:Drivers/CMSIS/Include/core_cm3.h ****   __IOM uint32_t RBAR;                   /*!< Offset: 0x00C (R/W)  MPU Region Base Address Register
1164:Drivers/CMSIS/Include/core_cm3.h ****   __IOM uint32_t RASR;                   /*!< Offset: 0x010 (R/W)  MPU Region Attribute and Size Re
1165:Drivers/CMSIS/Include/core_cm3.h ****   __IOM uint32_t RBAR_A1;                /*!< Offset: 0x014 (R/W)  MPU Alias 1 Region Base Address 
1166:Drivers/CMSIS/Include/core_cm3.h ****   __IOM uint32_t RASR_A1;                /*!< Offset: 0x018 (R/W)  MPU Alias 1 Region Attribute and
1167:Drivers/CMSIS/Include/core_cm3.h ****   __IOM uint32_t RBAR_A2;                /*!< Offset: 0x01C (R/W)  MPU Alias 2 Region Base Address 
1168:Drivers/CMSIS/Include/core_cm3.h ****   __IOM uint32_t RASR_A2;                /*!< Offset: 0x020 (R/W)  MPU Alias 2 Region Attribute and
1169:Drivers/CMSIS/Include/core_cm3.h ****   __IOM uint32_t RBAR_A3;                /*!< Offset: 0x024 (R/W)  MPU Alias 3 Region Base Address 
1170:Drivers/CMSIS/Include/core_cm3.h ****   __IOM uint32_t RASR_A3;                /*!< Offset: 0x028 (R/W)  MPU Alias 3 Region Attribute and
1171:Drivers/CMSIS/Include/core_cm3.h **** } MPU_Type;
1172:Drivers/CMSIS/Include/core_cm3.h **** 
1173:Drivers/CMSIS/Include/core_cm3.h **** #define MPU_TYPE_RALIASES                  4U
1174:Drivers/CMSIS/Include/core_cm3.h **** 
1175:Drivers/CMSIS/Include/core_cm3.h **** /* MPU Type Register Definitions */
1176:Drivers/CMSIS/Include/core_cm3.h **** #define MPU_TYPE_IREGION_Pos               16U                                            /*!< MPU 
1177:Drivers/CMSIS/Include/core_cm3.h **** #define MPU_TYPE_IREGION_Msk               (0xFFUL << MPU_TYPE_IREGION_Pos)               /*!< MPU 
1178:Drivers/CMSIS/Include/core_cm3.h **** 
ARM GAS  C:\Users\cedri\AppData\Local\Temp\ccZqcsPj.s 			page 35


1179:Drivers/CMSIS/Include/core_cm3.h **** #define MPU_TYPE_DREGION_Pos                8U                                            /*!< MPU 
1180:Drivers/CMSIS/Include/core_cm3.h **** #define MPU_TYPE_DREGION_Msk               (0xFFUL << MPU_TYPE_DREGION_Pos)               /*!< MPU 
1181:Drivers/CMSIS/Include/core_cm3.h **** 
1182:Drivers/CMSIS/Include/core_cm3.h **** #define MPU_TYPE_SEPARATE_Pos               0U                                            /*!< MPU 
1183:Drivers/CMSIS/Include/core_cm3.h **** #define MPU_TYPE_SEPARATE_Msk              (1UL /*<< MPU_TYPE_SEPARATE_Pos*/)             /*!< MPU 
1184:Drivers/CMSIS/Include/core_cm3.h **** 
1185:Drivers/CMSIS/Include/core_cm3.h **** /* MPU Control Register Definitions */
1186:Drivers/CMSIS/Include/core_cm3.h **** #define MPU_CTRL_PRIVDEFENA_Pos             2U                                            /*!< MPU 
1187:Drivers/CMSIS/Include/core_cm3.h **** #define MPU_CTRL_PRIVDEFENA_Msk            (1UL << MPU_CTRL_PRIVDEFENA_Pos)               /*!< MPU 
1188:Drivers/CMSIS/Include/core_cm3.h **** 
1189:Drivers/CMSIS/Include/core_cm3.h **** #define MPU_CTRL_HFNMIENA_Pos               1U                                            /*!< MPU 
1190:Drivers/CMSIS/Include/core_cm3.h **** #define MPU_CTRL_HFNMIENA_Msk              (1UL << MPU_CTRL_HFNMIENA_Pos)                 /*!< MPU 
1191:Drivers/CMSIS/Include/core_cm3.h **** 
1192:Drivers/CMSIS/Include/core_cm3.h **** #define MPU_CTRL_ENABLE_Pos                 0U                                            /*!< MPU 
1193:Drivers/CMSIS/Include/core_cm3.h **** #define MPU_CTRL_ENABLE_Msk                (1UL /*<< MPU_CTRL_ENABLE_Pos*/)               /*!< MPU 
1194:Drivers/CMSIS/Include/core_cm3.h **** 
1195:Drivers/CMSIS/Include/core_cm3.h **** /* MPU Region Number Register Definitions */
1196:Drivers/CMSIS/Include/core_cm3.h **** #define MPU_RNR_REGION_Pos                  0U                                            /*!< MPU 
1197:Drivers/CMSIS/Include/core_cm3.h **** #define MPU_RNR_REGION_Msk                 (0xFFUL /*<< MPU_RNR_REGION_Pos*/)             /*!< MPU 
1198:Drivers/CMSIS/Include/core_cm3.h **** 
1199:Drivers/CMSIS/Include/core_cm3.h **** /* MPU Region Base Address Register Definitions */
1200:Drivers/CMSIS/Include/core_cm3.h **** #define MPU_RBAR_ADDR_Pos                   5U                                            /*!< MPU 
1201:Drivers/CMSIS/Include/core_cm3.h **** #define MPU_RBAR_ADDR_Msk                  (0x7FFFFFFUL << MPU_RBAR_ADDR_Pos)             /*!< MPU 
1202:Drivers/CMSIS/Include/core_cm3.h **** 
1203:Drivers/CMSIS/Include/core_cm3.h **** #define MPU_RBAR_VALID_Pos                  4U                                            /*!< MPU 
1204:Drivers/CMSIS/Include/core_cm3.h **** #define MPU_RBAR_VALID_Msk                 (1UL << MPU_RBAR_VALID_Pos)                    /*!< MPU 
1205:Drivers/CMSIS/Include/core_cm3.h **** 
1206:Drivers/CMSIS/Include/core_cm3.h **** #define MPU_RBAR_REGION_Pos                 0U                                            /*!< MPU 
1207:Drivers/CMSIS/Include/core_cm3.h **** #define MPU_RBAR_REGION_Msk                (0xFUL /*<< MPU_RBAR_REGION_Pos*/)             /*!< MPU 
1208:Drivers/CMSIS/Include/core_cm3.h **** 
1209:Drivers/CMSIS/Include/core_cm3.h **** /* MPU Region Attribute and Size Register Definitions */
1210:Drivers/CMSIS/Include/core_cm3.h **** #define MPU_RASR_ATTRS_Pos                 16U                                            /*!< MPU 
1211:Drivers/CMSIS/Include/core_cm3.h **** #define MPU_RASR_ATTRS_Msk                 (0xFFFFUL << MPU_RASR_ATTRS_Pos)               /*!< MPU 
1212:Drivers/CMSIS/Include/core_cm3.h **** 
1213:Drivers/CMSIS/Include/core_cm3.h **** #define MPU_RASR_XN_Pos                    28U                                            /*!< MPU 
1214:Drivers/CMSIS/Include/core_cm3.h **** #define MPU_RASR_XN_Msk                    (1UL << MPU_RASR_XN_Pos)                       /*!< MPU 
1215:Drivers/CMSIS/Include/core_cm3.h **** 
1216:Drivers/CMSIS/Include/core_cm3.h **** #define MPU_RASR_AP_Pos                    24U                                            /*!< MPU 
1217:Drivers/CMSIS/Include/core_cm3.h **** #define MPU_RASR_AP_Msk                    (0x7UL << MPU_RASR_AP_Pos)                     /*!< MPU 
1218:Drivers/CMSIS/Include/core_cm3.h **** 
1219:Drivers/CMSIS/Include/core_cm3.h **** #define MPU_RASR_TEX_Pos                   19U                                            /*!< MPU 
1220:Drivers/CMSIS/Include/core_cm3.h **** #define MPU_RASR_TEX_Msk                   (0x7UL << MPU_RASR_TEX_Pos)                    /*!< MPU 
1221:Drivers/CMSIS/Include/core_cm3.h **** 
1222:Drivers/CMSIS/Include/core_cm3.h **** #define MPU_RASR_S_Pos                     18U                                            /*!< MPU 
1223:Drivers/CMSIS/Include/core_cm3.h **** #define MPU_RASR_S_Msk                     (1UL << MPU_RASR_S_Pos)                        /*!< MPU 
1224:Drivers/CMSIS/Include/core_cm3.h **** 
1225:Drivers/CMSIS/Include/core_cm3.h **** #define MPU_RASR_C_Pos                     17U                                            /*!< MPU 
1226:Drivers/CMSIS/Include/core_cm3.h **** #define MPU_RASR_C_Msk                     (1UL << MPU_RASR_C_Pos)                        /*!< MPU 
1227:Drivers/CMSIS/Include/core_cm3.h **** 
1228:Drivers/CMSIS/Include/core_cm3.h **** #define MPU_RASR_B_Pos                     16U                                            /*!< MPU 
1229:Drivers/CMSIS/Include/core_cm3.h **** #define MPU_RASR_B_Msk                     (1UL << MPU_RASR_B_Pos)                        /*!< MPU 
1230:Drivers/CMSIS/Include/core_cm3.h **** 
1231:Drivers/CMSIS/Include/core_cm3.h **** #define MPU_RASR_SRD_Pos                    8U                                            /*!< MPU 
1232:Drivers/CMSIS/Include/core_cm3.h **** #define MPU_RASR_SRD_Msk                   (0xFFUL << MPU_RASR_SRD_Pos)                   /*!< MPU 
1233:Drivers/CMSIS/Include/core_cm3.h **** 
1234:Drivers/CMSIS/Include/core_cm3.h **** #define MPU_RASR_SIZE_Pos                   1U                                            /*!< MPU 
1235:Drivers/CMSIS/Include/core_cm3.h **** #define MPU_RASR_SIZE_Msk                  (0x1FUL << MPU_RASR_SIZE_Pos)                  /*!< MPU 
ARM GAS  C:\Users\cedri\AppData\Local\Temp\ccZqcsPj.s 			page 36


1236:Drivers/CMSIS/Include/core_cm3.h **** 
1237:Drivers/CMSIS/Include/core_cm3.h **** #define MPU_RASR_ENABLE_Pos                 0U                                            /*!< MPU 
1238:Drivers/CMSIS/Include/core_cm3.h **** #define MPU_RASR_ENABLE_Msk                (1UL /*<< MPU_RASR_ENABLE_Pos*/)               /*!< MPU 
1239:Drivers/CMSIS/Include/core_cm3.h **** 
1240:Drivers/CMSIS/Include/core_cm3.h **** /*@} end of group CMSIS_MPU */
1241:Drivers/CMSIS/Include/core_cm3.h **** #endif
1242:Drivers/CMSIS/Include/core_cm3.h **** 
1243:Drivers/CMSIS/Include/core_cm3.h **** 
1244:Drivers/CMSIS/Include/core_cm3.h **** /**
1245:Drivers/CMSIS/Include/core_cm3.h ****   \ingroup  CMSIS_core_register
1246:Drivers/CMSIS/Include/core_cm3.h ****   \defgroup CMSIS_CoreDebug       Core Debug Registers (CoreDebug)
1247:Drivers/CMSIS/Include/core_cm3.h ****   \brief    Type definitions for the Core Debug Registers
1248:Drivers/CMSIS/Include/core_cm3.h ****   @{
1249:Drivers/CMSIS/Include/core_cm3.h ****  */
1250:Drivers/CMSIS/Include/core_cm3.h **** 
1251:Drivers/CMSIS/Include/core_cm3.h **** /**
1252:Drivers/CMSIS/Include/core_cm3.h ****   \brief  Structure type to access the Core Debug Register (CoreDebug).
1253:Drivers/CMSIS/Include/core_cm3.h ****  */
1254:Drivers/CMSIS/Include/core_cm3.h **** typedef struct
1255:Drivers/CMSIS/Include/core_cm3.h **** {
1256:Drivers/CMSIS/Include/core_cm3.h ****   __IOM uint32_t DHCSR;                  /*!< Offset: 0x000 (R/W)  Debug Halting Control and Status
1257:Drivers/CMSIS/Include/core_cm3.h ****   __OM  uint32_t DCRSR;                  /*!< Offset: 0x004 ( /W)  Debug Core Register Selector Reg
1258:Drivers/CMSIS/Include/core_cm3.h ****   __IOM uint32_t DCRDR;                  /*!< Offset: 0x008 (R/W)  Debug Core Register Data Registe
1259:Drivers/CMSIS/Include/core_cm3.h ****   __IOM uint32_t DEMCR;                  /*!< Offset: 0x00C (R/W)  Debug Exception and Monitor Cont
1260:Drivers/CMSIS/Include/core_cm3.h **** } CoreDebug_Type;
1261:Drivers/CMSIS/Include/core_cm3.h **** 
1262:Drivers/CMSIS/Include/core_cm3.h **** /* Debug Halting Control and Status Register Definitions */
1263:Drivers/CMSIS/Include/core_cm3.h **** #define CoreDebug_DHCSR_DBGKEY_Pos         16U                                            /*!< Core
1264:Drivers/CMSIS/Include/core_cm3.h **** #define CoreDebug_DHCSR_DBGKEY_Msk         (0xFFFFUL << CoreDebug_DHCSR_DBGKEY_Pos)       /*!< Core
1265:Drivers/CMSIS/Include/core_cm3.h **** 
1266:Drivers/CMSIS/Include/core_cm3.h **** #define CoreDebug_DHCSR_S_RESET_ST_Pos     25U                                            /*!< Core
1267:Drivers/CMSIS/Include/core_cm3.h **** #define CoreDebug_DHCSR_S_RESET_ST_Msk     (1UL << CoreDebug_DHCSR_S_RESET_ST_Pos)        /*!< Core
1268:Drivers/CMSIS/Include/core_cm3.h **** 
1269:Drivers/CMSIS/Include/core_cm3.h **** #define CoreDebug_DHCSR_S_RETIRE_ST_Pos    24U                                            /*!< Core
1270:Drivers/CMSIS/Include/core_cm3.h **** #define CoreDebug_DHCSR_S_RETIRE_ST_Msk    (1UL << CoreDebug_DHCSR_S_RETIRE_ST_Pos)       /*!< Core
1271:Drivers/CMSIS/Include/core_cm3.h **** 
1272:Drivers/CMSIS/Include/core_cm3.h **** #define CoreDebug_DHCSR_S_LOCKUP_Pos       19U                                            /*!< Core
1273:Drivers/CMSIS/Include/core_cm3.h **** #define CoreDebug_DHCSR_S_LOCKUP_Msk       (1UL << CoreDebug_DHCSR_S_LOCKUP_Pos)          /*!< Core
1274:Drivers/CMSIS/Include/core_cm3.h **** 
1275:Drivers/CMSIS/Include/core_cm3.h **** #define CoreDebug_DHCSR_S_SLEEP_Pos        18U                                            /*!< Core
1276:Drivers/CMSIS/Include/core_cm3.h **** #define CoreDebug_DHCSR_S_SLEEP_Msk        (1UL << CoreDebug_DHCSR_S_SLEEP_Pos)           /*!< Core
1277:Drivers/CMSIS/Include/core_cm3.h **** 
1278:Drivers/CMSIS/Include/core_cm3.h **** #define CoreDebug_DHCSR_S_HALT_Pos         17U                                            /*!< Core
1279:Drivers/CMSIS/Include/core_cm3.h **** #define CoreDebug_DHCSR_S_HALT_Msk         (1UL << CoreDebug_DHCSR_S_HALT_Pos)            /*!< Core
1280:Drivers/CMSIS/Include/core_cm3.h **** 
1281:Drivers/CMSIS/Include/core_cm3.h **** #define CoreDebug_DHCSR_S_REGRDY_Pos       16U                                            /*!< Core
1282:Drivers/CMSIS/Include/core_cm3.h **** #define CoreDebug_DHCSR_S_REGRDY_Msk       (1UL << CoreDebug_DHCSR_S_REGRDY_Pos)          /*!< Core
1283:Drivers/CMSIS/Include/core_cm3.h **** 
1284:Drivers/CMSIS/Include/core_cm3.h **** #define CoreDebug_DHCSR_C_SNAPSTALL_Pos     5U                                            /*!< Core
1285:Drivers/CMSIS/Include/core_cm3.h **** #define CoreDebug_DHCSR_C_SNAPSTALL_Msk    (1UL << CoreDebug_DHCSR_C_SNAPSTALL_Pos)       /*!< Core
1286:Drivers/CMSIS/Include/core_cm3.h **** 
1287:Drivers/CMSIS/Include/core_cm3.h **** #define CoreDebug_DHCSR_C_MASKINTS_Pos      3U                                            /*!< Core
1288:Drivers/CMSIS/Include/core_cm3.h **** #define CoreDebug_DHCSR_C_MASKINTS_Msk     (1UL << CoreDebug_DHCSR_C_MASKINTS_Pos)        /*!< Core
1289:Drivers/CMSIS/Include/core_cm3.h **** 
1290:Drivers/CMSIS/Include/core_cm3.h **** #define CoreDebug_DHCSR_C_STEP_Pos          2U                                            /*!< Core
1291:Drivers/CMSIS/Include/core_cm3.h **** #define CoreDebug_DHCSR_C_STEP_Msk         (1UL << CoreDebug_DHCSR_C_STEP_Pos)            /*!< Core
1292:Drivers/CMSIS/Include/core_cm3.h **** 
ARM GAS  C:\Users\cedri\AppData\Local\Temp\ccZqcsPj.s 			page 37


1293:Drivers/CMSIS/Include/core_cm3.h **** #define CoreDebug_DHCSR_C_HALT_Pos          1U                                            /*!< Core
1294:Drivers/CMSIS/Include/core_cm3.h **** #define CoreDebug_DHCSR_C_HALT_Msk         (1UL << CoreDebug_DHCSR_C_HALT_Pos)            /*!< Core
1295:Drivers/CMSIS/Include/core_cm3.h **** 
1296:Drivers/CMSIS/Include/core_cm3.h **** #define CoreDebug_DHCSR_C_DEBUGEN_Pos       0U                                            /*!< Core
1297:Drivers/CMSIS/Include/core_cm3.h **** #define CoreDebug_DHCSR_C_DEBUGEN_Msk      (1UL /*<< CoreDebug_DHCSR_C_DEBUGEN_Pos*/)     /*!< Core
1298:Drivers/CMSIS/Include/core_cm3.h **** 
1299:Drivers/CMSIS/Include/core_cm3.h **** /* Debug Core Register Selector Register Definitions */
1300:Drivers/CMSIS/Include/core_cm3.h **** #define CoreDebug_DCRSR_REGWnR_Pos         16U                                            /*!< Core
1301:Drivers/CMSIS/Include/core_cm3.h **** #define CoreDebug_DCRSR_REGWnR_Msk         (1UL << CoreDebug_DCRSR_REGWnR_Pos)            /*!< Core
1302:Drivers/CMSIS/Include/core_cm3.h **** 
1303:Drivers/CMSIS/Include/core_cm3.h **** #define CoreDebug_DCRSR_REGSEL_Pos          0U                                            /*!< Core
1304:Drivers/CMSIS/Include/core_cm3.h **** #define CoreDebug_DCRSR_REGSEL_Msk         (0x1FUL /*<< CoreDebug_DCRSR_REGSEL_Pos*/)     /*!< Core
1305:Drivers/CMSIS/Include/core_cm3.h **** 
1306:Drivers/CMSIS/Include/core_cm3.h **** /* Debug Exception and Monitor Control Register Definitions */
1307:Drivers/CMSIS/Include/core_cm3.h **** #define CoreDebug_DEMCR_TRCENA_Pos         24U                                            /*!< Core
1308:Drivers/CMSIS/Include/core_cm3.h **** #define CoreDebug_DEMCR_TRCENA_Msk         (1UL << CoreDebug_DEMCR_TRCENA_Pos)            /*!< Core
1309:Drivers/CMSIS/Include/core_cm3.h **** 
1310:Drivers/CMSIS/Include/core_cm3.h **** #define CoreDebug_DEMCR_MON_REQ_Pos        19U                                            /*!< Core
1311:Drivers/CMSIS/Include/core_cm3.h **** #define CoreDebug_DEMCR_MON_REQ_Msk        (1UL << CoreDebug_DEMCR_MON_REQ_Pos)           /*!< Core
1312:Drivers/CMSIS/Include/core_cm3.h **** 
1313:Drivers/CMSIS/Include/core_cm3.h **** #define CoreDebug_DEMCR_MON_STEP_Pos       18U                                            /*!< Core
1314:Drivers/CMSIS/Include/core_cm3.h **** #define CoreDebug_DEMCR_MON_STEP_Msk       (1UL << CoreDebug_DEMCR_MON_STEP_Pos)          /*!< Core
1315:Drivers/CMSIS/Include/core_cm3.h **** 
1316:Drivers/CMSIS/Include/core_cm3.h **** #define CoreDebug_DEMCR_MON_PEND_Pos       17U                                            /*!< Core
1317:Drivers/CMSIS/Include/core_cm3.h **** #define CoreDebug_DEMCR_MON_PEND_Msk       (1UL << CoreDebug_DEMCR_MON_PEND_Pos)          /*!< Core
1318:Drivers/CMSIS/Include/core_cm3.h **** 
1319:Drivers/CMSIS/Include/core_cm3.h **** #define CoreDebug_DEMCR_MON_EN_Pos         16U                                            /*!< Core
1320:Drivers/CMSIS/Include/core_cm3.h **** #define CoreDebug_DEMCR_MON_EN_Msk         (1UL << CoreDebug_DEMCR_MON_EN_Pos)            /*!< Core
1321:Drivers/CMSIS/Include/core_cm3.h **** 
1322:Drivers/CMSIS/Include/core_cm3.h **** #define CoreDebug_DEMCR_VC_HARDERR_Pos     10U                                            /*!< Core
1323:Drivers/CMSIS/Include/core_cm3.h **** #define CoreDebug_DEMCR_VC_HARDERR_Msk     (1UL << CoreDebug_DEMCR_VC_HARDERR_Pos)        /*!< Core
1324:Drivers/CMSIS/Include/core_cm3.h **** 
1325:Drivers/CMSIS/Include/core_cm3.h **** #define CoreDebug_DEMCR_VC_INTERR_Pos       9U                                            /*!< Core
1326:Drivers/CMSIS/Include/core_cm3.h **** #define CoreDebug_DEMCR_VC_INTERR_Msk      (1UL << CoreDebug_DEMCR_VC_INTERR_Pos)         /*!< Core
1327:Drivers/CMSIS/Include/core_cm3.h **** 
1328:Drivers/CMSIS/Include/core_cm3.h **** #define CoreDebug_DEMCR_VC_BUSERR_Pos       8U                                            /*!< Core
1329:Drivers/CMSIS/Include/core_cm3.h **** #define CoreDebug_DEMCR_VC_BUSERR_Msk      (1UL << CoreDebug_DEMCR_VC_BUSERR_Pos)         /*!< Core
1330:Drivers/CMSIS/Include/core_cm3.h **** 
1331:Drivers/CMSIS/Include/core_cm3.h **** #define CoreDebug_DEMCR_VC_STATERR_Pos      7U                                            /*!< Core
1332:Drivers/CMSIS/Include/core_cm3.h **** #define CoreDebug_DEMCR_VC_STATERR_Msk     (1UL << CoreDebug_DEMCR_VC_STATERR_Pos)        /*!< Core
1333:Drivers/CMSIS/Include/core_cm3.h **** 
1334:Drivers/CMSIS/Include/core_cm3.h **** #define CoreDebug_DEMCR_VC_CHKERR_Pos       6U                                            /*!< Core
1335:Drivers/CMSIS/Include/core_cm3.h **** #define CoreDebug_DEMCR_VC_CHKERR_Msk      (1UL << CoreDebug_DEMCR_VC_CHKERR_Pos)         /*!< Core
1336:Drivers/CMSIS/Include/core_cm3.h **** 
1337:Drivers/CMSIS/Include/core_cm3.h **** #define CoreDebug_DEMCR_VC_NOCPERR_Pos      5U                                            /*!< Core
1338:Drivers/CMSIS/Include/core_cm3.h **** #define CoreDebug_DEMCR_VC_NOCPERR_Msk     (1UL << CoreDebug_DEMCR_VC_NOCPERR_Pos)        /*!< Core
1339:Drivers/CMSIS/Include/core_cm3.h **** 
1340:Drivers/CMSIS/Include/core_cm3.h **** #define CoreDebug_DEMCR_VC_MMERR_Pos        4U                                            /*!< Core
1341:Drivers/CMSIS/Include/core_cm3.h **** #define CoreDebug_DEMCR_VC_MMERR_Msk       (1UL << CoreDebug_DEMCR_VC_MMERR_Pos)          /*!< Core
1342:Drivers/CMSIS/Include/core_cm3.h **** 
1343:Drivers/CMSIS/Include/core_cm3.h **** #define CoreDebug_DEMCR_VC_CORERESET_Pos    0U                                            /*!< Core
1344:Drivers/CMSIS/Include/core_cm3.h **** #define CoreDebug_DEMCR_VC_CORERESET_Msk   (1UL /*<< CoreDebug_DEMCR_VC_CORERESET_Pos*/)  /*!< Core
1345:Drivers/CMSIS/Include/core_cm3.h **** 
1346:Drivers/CMSIS/Include/core_cm3.h **** /*@} end of group CMSIS_CoreDebug */
1347:Drivers/CMSIS/Include/core_cm3.h **** 
1348:Drivers/CMSIS/Include/core_cm3.h **** 
1349:Drivers/CMSIS/Include/core_cm3.h **** /**
ARM GAS  C:\Users\cedri\AppData\Local\Temp\ccZqcsPj.s 			page 38


1350:Drivers/CMSIS/Include/core_cm3.h ****   \ingroup    CMSIS_core_register
1351:Drivers/CMSIS/Include/core_cm3.h ****   \defgroup   CMSIS_core_bitfield     Core register bit field macros
1352:Drivers/CMSIS/Include/core_cm3.h ****   \brief      Macros for use with bit field definitions (xxx_Pos, xxx_Msk).
1353:Drivers/CMSIS/Include/core_cm3.h ****   @{
1354:Drivers/CMSIS/Include/core_cm3.h ****  */
1355:Drivers/CMSIS/Include/core_cm3.h **** 
1356:Drivers/CMSIS/Include/core_cm3.h **** /**
1357:Drivers/CMSIS/Include/core_cm3.h ****   \brief   Mask and shift a bit field value for use in a register bit range.
1358:Drivers/CMSIS/Include/core_cm3.h ****   \param[in] field  Name of the register bit field.
1359:Drivers/CMSIS/Include/core_cm3.h ****   \param[in] value  Value of the bit field. This parameter is interpreted as an uint32_t type.
1360:Drivers/CMSIS/Include/core_cm3.h ****   \return           Masked and shifted value.
1361:Drivers/CMSIS/Include/core_cm3.h **** */
1362:Drivers/CMSIS/Include/core_cm3.h **** #define _VAL2FLD(field, value)    (((uint32_t)(value) << field ## _Pos) & field ## _Msk)
1363:Drivers/CMSIS/Include/core_cm3.h **** 
1364:Drivers/CMSIS/Include/core_cm3.h **** /**
1365:Drivers/CMSIS/Include/core_cm3.h ****   \brief     Mask and shift a register value to extract a bit filed value.
1366:Drivers/CMSIS/Include/core_cm3.h ****   \param[in] field  Name of the register bit field.
1367:Drivers/CMSIS/Include/core_cm3.h ****   \param[in] value  Value of register. This parameter is interpreted as an uint32_t type.
1368:Drivers/CMSIS/Include/core_cm3.h ****   \return           Masked and shifted bit field value.
1369:Drivers/CMSIS/Include/core_cm3.h **** */
1370:Drivers/CMSIS/Include/core_cm3.h **** #define _FLD2VAL(field, value)    (((uint32_t)(value) & field ## _Msk) >> field ## _Pos)
1371:Drivers/CMSIS/Include/core_cm3.h **** 
1372:Drivers/CMSIS/Include/core_cm3.h **** /*@} end of group CMSIS_core_bitfield */
1373:Drivers/CMSIS/Include/core_cm3.h **** 
1374:Drivers/CMSIS/Include/core_cm3.h **** 
1375:Drivers/CMSIS/Include/core_cm3.h **** /**
1376:Drivers/CMSIS/Include/core_cm3.h ****   \ingroup    CMSIS_core_register
1377:Drivers/CMSIS/Include/core_cm3.h ****   \defgroup   CMSIS_core_base     Core Definitions
1378:Drivers/CMSIS/Include/core_cm3.h ****   \brief      Definitions for base addresses, unions, and structures.
1379:Drivers/CMSIS/Include/core_cm3.h ****   @{
1380:Drivers/CMSIS/Include/core_cm3.h ****  */
1381:Drivers/CMSIS/Include/core_cm3.h **** 
1382:Drivers/CMSIS/Include/core_cm3.h **** /* Memory mapping of Core Hardware */
1383:Drivers/CMSIS/Include/core_cm3.h **** #define SCS_BASE            (0xE000E000UL)                            /*!< System Control Space Bas
1384:Drivers/CMSIS/Include/core_cm3.h **** #define ITM_BASE            (0xE0000000UL)                            /*!< ITM Base Address */
1385:Drivers/CMSIS/Include/core_cm3.h **** #define DWT_BASE            (0xE0001000UL)                            /*!< DWT Base Address */
1386:Drivers/CMSIS/Include/core_cm3.h **** #define TPI_BASE            (0xE0040000UL)                            /*!< TPI Base Address */
1387:Drivers/CMSIS/Include/core_cm3.h **** #define CoreDebug_BASE      (0xE000EDF0UL)                            /*!< Core Debug Base Address 
1388:Drivers/CMSIS/Include/core_cm3.h **** #define SysTick_BASE        (SCS_BASE +  0x0010UL)                    /*!< SysTick Base Address */
1389:Drivers/CMSIS/Include/core_cm3.h **** #define NVIC_BASE           (SCS_BASE +  0x0100UL)                    /*!< NVIC Base Address */
1390:Drivers/CMSIS/Include/core_cm3.h **** #define SCB_BASE            (SCS_BASE +  0x0D00UL)                    /*!< System Control Block Bas
1391:Drivers/CMSIS/Include/core_cm3.h **** 
1392:Drivers/CMSIS/Include/core_cm3.h **** #define SCnSCB              ((SCnSCB_Type    *)     SCS_BASE      )   /*!< System control Register 
1393:Drivers/CMSIS/Include/core_cm3.h **** #define SCB                 ((SCB_Type       *)     SCB_BASE      )   /*!< SCB configuration struct
1394:Drivers/CMSIS/Include/core_cm3.h **** #define SysTick             ((SysTick_Type   *)     SysTick_BASE  )   /*!< SysTick configuration st
1395:Drivers/CMSIS/Include/core_cm3.h **** #define NVIC                ((NVIC_Type      *)     NVIC_BASE     )   /*!< NVIC configuration struc
1396:Drivers/CMSIS/Include/core_cm3.h **** #define ITM                 ((ITM_Type       *)     ITM_BASE      )   /*!< ITM configuration struct
1397:Drivers/CMSIS/Include/core_cm3.h **** #define DWT                 ((DWT_Type       *)     DWT_BASE      )   /*!< DWT configuration struct
1398:Drivers/CMSIS/Include/core_cm3.h **** #define TPI                 ((TPI_Type       *)     TPI_BASE      )   /*!< TPI configuration struct
1399:Drivers/CMSIS/Include/core_cm3.h **** #define CoreDebug           ((CoreDebug_Type *)     CoreDebug_BASE)   /*!< Core Debug configuration
1400:Drivers/CMSIS/Include/core_cm3.h **** 
1401:Drivers/CMSIS/Include/core_cm3.h **** #if defined (__MPU_PRESENT) && (__MPU_PRESENT == 1U)
1402:Drivers/CMSIS/Include/core_cm3.h ****   #define MPU_BASE          (SCS_BASE +  0x0D90UL)                    /*!< Memory Protection Unit *
1403:Drivers/CMSIS/Include/core_cm3.h ****   #define MPU               ((MPU_Type       *)     MPU_BASE      )   /*!< Memory Protection Unit *
1404:Drivers/CMSIS/Include/core_cm3.h **** #endif
1405:Drivers/CMSIS/Include/core_cm3.h **** 
1406:Drivers/CMSIS/Include/core_cm3.h **** /*@} */
ARM GAS  C:\Users\cedri\AppData\Local\Temp\ccZqcsPj.s 			page 39


1407:Drivers/CMSIS/Include/core_cm3.h **** 
1408:Drivers/CMSIS/Include/core_cm3.h **** 
1409:Drivers/CMSIS/Include/core_cm3.h **** 
1410:Drivers/CMSIS/Include/core_cm3.h **** /*******************************************************************************
1411:Drivers/CMSIS/Include/core_cm3.h ****  *                Hardware Abstraction Layer
1412:Drivers/CMSIS/Include/core_cm3.h ****   Core Function Interface contains:
1413:Drivers/CMSIS/Include/core_cm3.h ****   - Core NVIC Functions
1414:Drivers/CMSIS/Include/core_cm3.h ****   - Core SysTick Functions
1415:Drivers/CMSIS/Include/core_cm3.h ****   - Core Debug Functions
1416:Drivers/CMSIS/Include/core_cm3.h ****   - Core Register Access Functions
1417:Drivers/CMSIS/Include/core_cm3.h ****  ******************************************************************************/
1418:Drivers/CMSIS/Include/core_cm3.h **** /**
1419:Drivers/CMSIS/Include/core_cm3.h ****   \defgroup CMSIS_Core_FunctionInterface Functions and Instructions Reference
1420:Drivers/CMSIS/Include/core_cm3.h **** */
1421:Drivers/CMSIS/Include/core_cm3.h **** 
1422:Drivers/CMSIS/Include/core_cm3.h **** 
1423:Drivers/CMSIS/Include/core_cm3.h **** 
1424:Drivers/CMSIS/Include/core_cm3.h **** /* ##########################   NVIC functions  #################################### */
1425:Drivers/CMSIS/Include/core_cm3.h **** /**
1426:Drivers/CMSIS/Include/core_cm3.h ****   \ingroup  CMSIS_Core_FunctionInterface
1427:Drivers/CMSIS/Include/core_cm3.h ****   \defgroup CMSIS_Core_NVICFunctions NVIC Functions
1428:Drivers/CMSIS/Include/core_cm3.h ****   \brief    Functions that manage interrupts and exceptions via the NVIC.
1429:Drivers/CMSIS/Include/core_cm3.h ****   @{
1430:Drivers/CMSIS/Include/core_cm3.h ****  */
1431:Drivers/CMSIS/Include/core_cm3.h **** 
1432:Drivers/CMSIS/Include/core_cm3.h **** #ifdef CMSIS_NVIC_VIRTUAL
1433:Drivers/CMSIS/Include/core_cm3.h ****   #ifndef CMSIS_NVIC_VIRTUAL_HEADER_FILE
1434:Drivers/CMSIS/Include/core_cm3.h ****     #define CMSIS_NVIC_VIRTUAL_HEADER_FILE "cmsis_nvic_virtual.h"
1435:Drivers/CMSIS/Include/core_cm3.h ****   #endif
1436:Drivers/CMSIS/Include/core_cm3.h ****   #include CMSIS_NVIC_VIRTUAL_HEADER_FILE
1437:Drivers/CMSIS/Include/core_cm3.h **** #else
1438:Drivers/CMSIS/Include/core_cm3.h ****   #define NVIC_SetPriorityGrouping    __NVIC_SetPriorityGrouping
1439:Drivers/CMSIS/Include/core_cm3.h ****   #define NVIC_GetPriorityGrouping    __NVIC_GetPriorityGrouping
1440:Drivers/CMSIS/Include/core_cm3.h ****   #define NVIC_EnableIRQ              __NVIC_EnableIRQ
1441:Drivers/CMSIS/Include/core_cm3.h ****   #define NVIC_GetEnableIRQ           __NVIC_GetEnableIRQ
1442:Drivers/CMSIS/Include/core_cm3.h ****   #define NVIC_DisableIRQ             __NVIC_DisableIRQ
1443:Drivers/CMSIS/Include/core_cm3.h ****   #define NVIC_GetPendingIRQ          __NVIC_GetPendingIRQ
1444:Drivers/CMSIS/Include/core_cm3.h ****   #define NVIC_SetPendingIRQ          __NVIC_SetPendingIRQ
1445:Drivers/CMSIS/Include/core_cm3.h ****   #define NVIC_ClearPendingIRQ        __NVIC_ClearPendingIRQ
1446:Drivers/CMSIS/Include/core_cm3.h ****   #define NVIC_GetActive              __NVIC_GetActive
1447:Drivers/CMSIS/Include/core_cm3.h ****   #define NVIC_SetPriority            __NVIC_SetPriority
1448:Drivers/CMSIS/Include/core_cm3.h ****   #define NVIC_GetPriority            __NVIC_GetPriority
1449:Drivers/CMSIS/Include/core_cm3.h ****   #define NVIC_SystemReset            __NVIC_SystemReset
1450:Drivers/CMSIS/Include/core_cm3.h **** #endif /* CMSIS_NVIC_VIRTUAL */
1451:Drivers/CMSIS/Include/core_cm3.h **** 
1452:Drivers/CMSIS/Include/core_cm3.h **** #ifdef CMSIS_VECTAB_VIRTUAL
1453:Drivers/CMSIS/Include/core_cm3.h ****   #ifndef CMSIS_VECTAB_VIRTUAL_HEADER_FILE
1454:Drivers/CMSIS/Include/core_cm3.h ****    #define CMSIS_VECTAB_VIRTUAL_HEADER_FILE "cmsis_vectab_virtual.h"
1455:Drivers/CMSIS/Include/core_cm3.h ****   #endif
1456:Drivers/CMSIS/Include/core_cm3.h ****   #include CMSIS_VECTAB_VIRTUAL_HEADER_FILE
1457:Drivers/CMSIS/Include/core_cm3.h **** #else
1458:Drivers/CMSIS/Include/core_cm3.h ****   #define NVIC_SetVector              __NVIC_SetVector
1459:Drivers/CMSIS/Include/core_cm3.h ****   #define NVIC_GetVector              __NVIC_GetVector
1460:Drivers/CMSIS/Include/core_cm3.h **** #endif  /* (CMSIS_VECTAB_VIRTUAL) */
1461:Drivers/CMSIS/Include/core_cm3.h **** 
1462:Drivers/CMSIS/Include/core_cm3.h **** #define NVIC_USER_IRQ_OFFSET          16
1463:Drivers/CMSIS/Include/core_cm3.h **** 
ARM GAS  C:\Users\cedri\AppData\Local\Temp\ccZqcsPj.s 			page 40


1464:Drivers/CMSIS/Include/core_cm3.h **** 
1465:Drivers/CMSIS/Include/core_cm3.h **** /* The following EXC_RETURN values are saved the LR on exception entry */
1466:Drivers/CMSIS/Include/core_cm3.h **** #define EXC_RETURN_HANDLER         (0xFFFFFFF1UL)     /* return to Handler mode, uses MSP after ret
1467:Drivers/CMSIS/Include/core_cm3.h **** #define EXC_RETURN_THREAD_MSP      (0xFFFFFFF9UL)     /* return to Thread mode, uses MSP after retu
1468:Drivers/CMSIS/Include/core_cm3.h **** #define EXC_RETURN_THREAD_PSP      (0xFFFFFFFDUL)     /* return to Thread mode, uses PSP after retu
1469:Drivers/CMSIS/Include/core_cm3.h **** 
1470:Drivers/CMSIS/Include/core_cm3.h **** 
1471:Drivers/CMSIS/Include/core_cm3.h **** /**
1472:Drivers/CMSIS/Include/core_cm3.h ****   \brief   Set Priority Grouping
1473:Drivers/CMSIS/Include/core_cm3.h ****   \details Sets the priority grouping field using the required unlock sequence.
1474:Drivers/CMSIS/Include/core_cm3.h ****            The parameter PriorityGroup is assigned to the field SCB->AIRCR [10:8] PRIGROUP field.
1475:Drivers/CMSIS/Include/core_cm3.h ****            Only values from 0..7 are used.
1476:Drivers/CMSIS/Include/core_cm3.h ****            In case of a conflict between priority grouping and available
1477:Drivers/CMSIS/Include/core_cm3.h ****            priority bits (__NVIC_PRIO_BITS), the smallest possible priority group is set.
1478:Drivers/CMSIS/Include/core_cm3.h ****   \param [in]      PriorityGroup  Priority grouping field.
1479:Drivers/CMSIS/Include/core_cm3.h ****  */
1480:Drivers/CMSIS/Include/core_cm3.h **** __STATIC_INLINE void __NVIC_SetPriorityGrouping(uint32_t PriorityGroup)
1481:Drivers/CMSIS/Include/core_cm3.h **** {
1482:Drivers/CMSIS/Include/core_cm3.h ****   uint32_t reg_value;
1483:Drivers/CMSIS/Include/core_cm3.h ****   uint32_t PriorityGroupTmp = (PriorityGroup & (uint32_t)0x07UL);             /* only values 0..7 a
1484:Drivers/CMSIS/Include/core_cm3.h **** 
1485:Drivers/CMSIS/Include/core_cm3.h ****   reg_value  =  SCB->AIRCR;                                                   /* read old register 
1486:Drivers/CMSIS/Include/core_cm3.h ****   reg_value &= ~((uint32_t)(SCB_AIRCR_VECTKEY_Msk | SCB_AIRCR_PRIGROUP_Msk)); /* clear bits to chan
1487:Drivers/CMSIS/Include/core_cm3.h ****   reg_value  =  (reg_value                                   |
1488:Drivers/CMSIS/Include/core_cm3.h ****                 ((uint32_t)0x5FAUL << SCB_AIRCR_VECTKEY_Pos) |
1489:Drivers/CMSIS/Include/core_cm3.h ****                 (PriorityGroupTmp << SCB_AIRCR_PRIGROUP_Pos) );               /* Insert write key a
1490:Drivers/CMSIS/Include/core_cm3.h ****   SCB->AIRCR =  reg_value;
1491:Drivers/CMSIS/Include/core_cm3.h **** }
1492:Drivers/CMSIS/Include/core_cm3.h **** 
1493:Drivers/CMSIS/Include/core_cm3.h **** 
1494:Drivers/CMSIS/Include/core_cm3.h **** /**
1495:Drivers/CMSIS/Include/core_cm3.h ****   \brief   Get Priority Grouping
1496:Drivers/CMSIS/Include/core_cm3.h ****   \details Reads the priority grouping field from the NVIC Interrupt Controller.
1497:Drivers/CMSIS/Include/core_cm3.h ****   \return                Priority grouping field (SCB->AIRCR [10:8] PRIGROUP field).
1498:Drivers/CMSIS/Include/core_cm3.h ****  */
1499:Drivers/CMSIS/Include/core_cm3.h **** __STATIC_INLINE uint32_t __NVIC_GetPriorityGrouping(void)
1500:Drivers/CMSIS/Include/core_cm3.h **** {
1501:Drivers/CMSIS/Include/core_cm3.h ****   return ((uint32_t)((SCB->AIRCR & SCB_AIRCR_PRIGROUP_Msk) >> SCB_AIRCR_PRIGROUP_Pos));
1502:Drivers/CMSIS/Include/core_cm3.h **** }
1503:Drivers/CMSIS/Include/core_cm3.h **** 
1504:Drivers/CMSIS/Include/core_cm3.h **** 
1505:Drivers/CMSIS/Include/core_cm3.h **** /**
1506:Drivers/CMSIS/Include/core_cm3.h ****   \brief   Enable Interrupt
1507:Drivers/CMSIS/Include/core_cm3.h ****   \details Enables a device specific interrupt in the NVIC interrupt controller.
1508:Drivers/CMSIS/Include/core_cm3.h ****   \param [in]      IRQn  Device specific interrupt number.
1509:Drivers/CMSIS/Include/core_cm3.h ****   \note    IRQn must not be negative.
1510:Drivers/CMSIS/Include/core_cm3.h ****  */
1511:Drivers/CMSIS/Include/core_cm3.h **** __STATIC_INLINE void __NVIC_EnableIRQ(IRQn_Type IRQn)
1512:Drivers/CMSIS/Include/core_cm3.h **** {
1513:Drivers/CMSIS/Include/core_cm3.h ****   if ((int32_t)(IRQn) >= 0)
1514:Drivers/CMSIS/Include/core_cm3.h ****   {
1515:Drivers/CMSIS/Include/core_cm3.h ****     NVIC->ISER[(((uint32_t)IRQn) >> 5UL)] = (uint32_t)(1UL << (((uint32_t)IRQn) & 0x1FUL));
1516:Drivers/CMSIS/Include/core_cm3.h ****   }
1517:Drivers/CMSIS/Include/core_cm3.h **** }
1518:Drivers/CMSIS/Include/core_cm3.h **** 
1519:Drivers/CMSIS/Include/core_cm3.h **** 
1520:Drivers/CMSIS/Include/core_cm3.h **** /**
ARM GAS  C:\Users\cedri\AppData\Local\Temp\ccZqcsPj.s 			page 41


1521:Drivers/CMSIS/Include/core_cm3.h ****   \brief   Get Interrupt Enable status
1522:Drivers/CMSIS/Include/core_cm3.h ****   \details Returns a device specific interrupt enable status from the NVIC interrupt controller.
1523:Drivers/CMSIS/Include/core_cm3.h ****   \param [in]      IRQn  Device specific interrupt number.
1524:Drivers/CMSIS/Include/core_cm3.h ****   \return             0  Interrupt is not enabled.
1525:Drivers/CMSIS/Include/core_cm3.h ****   \return             1  Interrupt is enabled.
1526:Drivers/CMSIS/Include/core_cm3.h ****   \note    IRQn must not be negative.
1527:Drivers/CMSIS/Include/core_cm3.h ****  */
1528:Drivers/CMSIS/Include/core_cm3.h **** __STATIC_INLINE uint32_t __NVIC_GetEnableIRQ(IRQn_Type IRQn)
1529:Drivers/CMSIS/Include/core_cm3.h **** {
1530:Drivers/CMSIS/Include/core_cm3.h ****   if ((int32_t)(IRQn) >= 0)
1531:Drivers/CMSIS/Include/core_cm3.h ****   {
1532:Drivers/CMSIS/Include/core_cm3.h ****     return((uint32_t)(((NVIC->ISER[(((uint32_t)IRQn) >> 5UL)] & (1UL << (((uint32_t)IRQn) & 0x1FUL)
1533:Drivers/CMSIS/Include/core_cm3.h ****   }
1534:Drivers/CMSIS/Include/core_cm3.h ****   else
1535:Drivers/CMSIS/Include/core_cm3.h ****   {
1536:Drivers/CMSIS/Include/core_cm3.h ****     return(0U);
1537:Drivers/CMSIS/Include/core_cm3.h ****   }
1538:Drivers/CMSIS/Include/core_cm3.h **** }
1539:Drivers/CMSIS/Include/core_cm3.h **** 
1540:Drivers/CMSIS/Include/core_cm3.h **** 
1541:Drivers/CMSIS/Include/core_cm3.h **** /**
1542:Drivers/CMSIS/Include/core_cm3.h ****   \brief   Disable Interrupt
1543:Drivers/CMSIS/Include/core_cm3.h ****   \details Disables a device specific interrupt in the NVIC interrupt controller.
1544:Drivers/CMSIS/Include/core_cm3.h ****   \param [in]      IRQn  Device specific interrupt number.
1545:Drivers/CMSIS/Include/core_cm3.h ****   \note    IRQn must not be negative.
1546:Drivers/CMSIS/Include/core_cm3.h ****  */
1547:Drivers/CMSIS/Include/core_cm3.h **** __STATIC_INLINE void __NVIC_DisableIRQ(IRQn_Type IRQn)
1548:Drivers/CMSIS/Include/core_cm3.h **** {
1549:Drivers/CMSIS/Include/core_cm3.h ****   if ((int32_t)(IRQn) >= 0)
1550:Drivers/CMSIS/Include/core_cm3.h ****   {
1551:Drivers/CMSIS/Include/core_cm3.h ****     NVIC->ICER[(((uint32_t)IRQn) >> 5UL)] = (uint32_t)(1UL << (((uint32_t)IRQn) & 0x1FUL));
1552:Drivers/CMSIS/Include/core_cm3.h ****     __DSB();
1553:Drivers/CMSIS/Include/core_cm3.h ****     __ISB();
1554:Drivers/CMSIS/Include/core_cm3.h ****   }
1555:Drivers/CMSIS/Include/core_cm3.h **** }
1556:Drivers/CMSIS/Include/core_cm3.h **** 
1557:Drivers/CMSIS/Include/core_cm3.h **** 
1558:Drivers/CMSIS/Include/core_cm3.h **** /**
1559:Drivers/CMSIS/Include/core_cm3.h ****   \brief   Get Pending Interrupt
1560:Drivers/CMSIS/Include/core_cm3.h ****   \details Reads the NVIC pending register and returns the pending bit for the specified device spe
1561:Drivers/CMSIS/Include/core_cm3.h ****   \param [in]      IRQn  Device specific interrupt number.
1562:Drivers/CMSIS/Include/core_cm3.h ****   \return             0  Interrupt status is not pending.
1563:Drivers/CMSIS/Include/core_cm3.h ****   \return             1  Interrupt status is pending.
1564:Drivers/CMSIS/Include/core_cm3.h ****   \note    IRQn must not be negative.
1565:Drivers/CMSIS/Include/core_cm3.h ****  */
1566:Drivers/CMSIS/Include/core_cm3.h **** __STATIC_INLINE uint32_t __NVIC_GetPendingIRQ(IRQn_Type IRQn)
1567:Drivers/CMSIS/Include/core_cm3.h **** {
1568:Drivers/CMSIS/Include/core_cm3.h ****   if ((int32_t)(IRQn) >= 0)
1569:Drivers/CMSIS/Include/core_cm3.h ****   {
1570:Drivers/CMSIS/Include/core_cm3.h ****     return((uint32_t)(((NVIC->ISPR[(((uint32_t)IRQn) >> 5UL)] & (1UL << (((uint32_t)IRQn) & 0x1FUL)
1571:Drivers/CMSIS/Include/core_cm3.h ****   }
1572:Drivers/CMSIS/Include/core_cm3.h ****   else
1573:Drivers/CMSIS/Include/core_cm3.h ****   {
1574:Drivers/CMSIS/Include/core_cm3.h ****     return(0U);
1575:Drivers/CMSIS/Include/core_cm3.h ****   }
1576:Drivers/CMSIS/Include/core_cm3.h **** }
1577:Drivers/CMSIS/Include/core_cm3.h **** 
ARM GAS  C:\Users\cedri\AppData\Local\Temp\ccZqcsPj.s 			page 42


1578:Drivers/CMSIS/Include/core_cm3.h **** 
1579:Drivers/CMSIS/Include/core_cm3.h **** /**
1580:Drivers/CMSIS/Include/core_cm3.h ****   \brief   Set Pending Interrupt
1581:Drivers/CMSIS/Include/core_cm3.h ****   \details Sets the pending bit of a device specific interrupt in the NVIC pending register.
1582:Drivers/CMSIS/Include/core_cm3.h ****   \param [in]      IRQn  Device specific interrupt number.
1583:Drivers/CMSIS/Include/core_cm3.h ****   \note    IRQn must not be negative.
1584:Drivers/CMSIS/Include/core_cm3.h ****  */
1585:Drivers/CMSIS/Include/core_cm3.h **** __STATIC_INLINE void __NVIC_SetPendingIRQ(IRQn_Type IRQn)
1586:Drivers/CMSIS/Include/core_cm3.h **** {
1587:Drivers/CMSIS/Include/core_cm3.h ****   if ((int32_t)(IRQn) >= 0)
1588:Drivers/CMSIS/Include/core_cm3.h ****   {
1589:Drivers/CMSIS/Include/core_cm3.h ****     NVIC->ISPR[(((uint32_t)IRQn) >> 5UL)] = (uint32_t)(1UL << (((uint32_t)IRQn) & 0x1FUL));
1590:Drivers/CMSIS/Include/core_cm3.h ****   }
1591:Drivers/CMSIS/Include/core_cm3.h **** }
1592:Drivers/CMSIS/Include/core_cm3.h **** 
1593:Drivers/CMSIS/Include/core_cm3.h **** 
1594:Drivers/CMSIS/Include/core_cm3.h **** /**
1595:Drivers/CMSIS/Include/core_cm3.h ****   \brief   Clear Pending Interrupt
1596:Drivers/CMSIS/Include/core_cm3.h ****   \details Clears the pending bit of a device specific interrupt in the NVIC pending register.
1597:Drivers/CMSIS/Include/core_cm3.h ****   \param [in]      IRQn  Device specific interrupt number.
1598:Drivers/CMSIS/Include/core_cm3.h ****   \note    IRQn must not be negative.
1599:Drivers/CMSIS/Include/core_cm3.h ****  */
1600:Drivers/CMSIS/Include/core_cm3.h **** __STATIC_INLINE void __NVIC_ClearPendingIRQ(IRQn_Type IRQn)
1601:Drivers/CMSIS/Include/core_cm3.h **** {
1602:Drivers/CMSIS/Include/core_cm3.h ****   if ((int32_t)(IRQn) >= 0)
1603:Drivers/CMSIS/Include/core_cm3.h ****   {
1604:Drivers/CMSIS/Include/core_cm3.h ****     NVIC->ICPR[(((uint32_t)IRQn) >> 5UL)] = (uint32_t)(1UL << (((uint32_t)IRQn) & 0x1FUL));
1605:Drivers/CMSIS/Include/core_cm3.h ****   }
1606:Drivers/CMSIS/Include/core_cm3.h **** }
1607:Drivers/CMSIS/Include/core_cm3.h **** 
1608:Drivers/CMSIS/Include/core_cm3.h **** 
1609:Drivers/CMSIS/Include/core_cm3.h **** /**
1610:Drivers/CMSIS/Include/core_cm3.h ****   \brief   Get Active Interrupt
1611:Drivers/CMSIS/Include/core_cm3.h ****   \details Reads the active register in the NVIC and returns the active bit for the device specific
1612:Drivers/CMSIS/Include/core_cm3.h ****   \param [in]      IRQn  Device specific interrupt number.
1613:Drivers/CMSIS/Include/core_cm3.h ****   \return             0  Interrupt status is not active.
1614:Drivers/CMSIS/Include/core_cm3.h ****   \return             1  Interrupt status is active.
1615:Drivers/CMSIS/Include/core_cm3.h ****   \note    IRQn must not be negative.
1616:Drivers/CMSIS/Include/core_cm3.h ****  */
1617:Drivers/CMSIS/Include/core_cm3.h **** __STATIC_INLINE uint32_t __NVIC_GetActive(IRQn_Type IRQn)
1618:Drivers/CMSIS/Include/core_cm3.h **** {
1619:Drivers/CMSIS/Include/core_cm3.h ****   if ((int32_t)(IRQn) >= 0)
1620:Drivers/CMSIS/Include/core_cm3.h ****   {
1621:Drivers/CMSIS/Include/core_cm3.h ****     return((uint32_t)(((NVIC->IABR[(((uint32_t)IRQn) >> 5UL)] & (1UL << (((uint32_t)IRQn) & 0x1FUL)
1622:Drivers/CMSIS/Include/core_cm3.h ****   }
1623:Drivers/CMSIS/Include/core_cm3.h ****   else
1624:Drivers/CMSIS/Include/core_cm3.h ****   {
1625:Drivers/CMSIS/Include/core_cm3.h ****     return(0U);
1626:Drivers/CMSIS/Include/core_cm3.h ****   }
1627:Drivers/CMSIS/Include/core_cm3.h **** }
1628:Drivers/CMSIS/Include/core_cm3.h **** 
1629:Drivers/CMSIS/Include/core_cm3.h **** 
1630:Drivers/CMSIS/Include/core_cm3.h **** /**
1631:Drivers/CMSIS/Include/core_cm3.h ****   \brief   Set Interrupt Priority
1632:Drivers/CMSIS/Include/core_cm3.h ****   \details Sets the priority of a device specific interrupt or a processor exception.
1633:Drivers/CMSIS/Include/core_cm3.h ****            The interrupt number can be positive to specify a device specific interrupt,
1634:Drivers/CMSIS/Include/core_cm3.h ****            or negative to specify a processor exception.
ARM GAS  C:\Users\cedri\AppData\Local\Temp\ccZqcsPj.s 			page 43


1635:Drivers/CMSIS/Include/core_cm3.h ****   \param [in]      IRQn  Interrupt number.
1636:Drivers/CMSIS/Include/core_cm3.h ****   \param [in]  priority  Priority to set.
1637:Drivers/CMSIS/Include/core_cm3.h ****   \note    The priority cannot be set for every processor exception.
1638:Drivers/CMSIS/Include/core_cm3.h ****  */
1639:Drivers/CMSIS/Include/core_cm3.h **** __STATIC_INLINE void __NVIC_SetPriority(IRQn_Type IRQn, uint32_t priority)
1640:Drivers/CMSIS/Include/core_cm3.h **** {
1641:Drivers/CMSIS/Include/core_cm3.h ****   if ((int32_t)(IRQn) >= 0)
1642:Drivers/CMSIS/Include/core_cm3.h ****   {
1643:Drivers/CMSIS/Include/core_cm3.h ****     NVIC->IP[((uint32_t)IRQn)]               = (uint8_t)((priority << (8U - __NVIC_PRIO_BITS)) & (u
1644:Drivers/CMSIS/Include/core_cm3.h ****   }
1645:Drivers/CMSIS/Include/core_cm3.h ****   else
1646:Drivers/CMSIS/Include/core_cm3.h ****   {
1647:Drivers/CMSIS/Include/core_cm3.h ****     SCB->SHP[(((uint32_t)IRQn) & 0xFUL)-4UL] = (uint8_t)((priority << (8U - __NVIC_PRIO_BITS)) & (u
1648:Drivers/CMSIS/Include/core_cm3.h ****   }
1649:Drivers/CMSIS/Include/core_cm3.h **** }
1650:Drivers/CMSIS/Include/core_cm3.h **** 
1651:Drivers/CMSIS/Include/core_cm3.h **** 
1652:Drivers/CMSIS/Include/core_cm3.h **** /**
1653:Drivers/CMSIS/Include/core_cm3.h ****   \brief   Get Interrupt Priority
1654:Drivers/CMSIS/Include/core_cm3.h ****   \details Reads the priority of a device specific interrupt or a processor exception.
1655:Drivers/CMSIS/Include/core_cm3.h ****            The interrupt number can be positive to specify a device specific interrupt,
1656:Drivers/CMSIS/Include/core_cm3.h ****            or negative to specify a processor exception.
1657:Drivers/CMSIS/Include/core_cm3.h ****   \param [in]   IRQn  Interrupt number.
1658:Drivers/CMSIS/Include/core_cm3.h ****   \return             Interrupt Priority.
1659:Drivers/CMSIS/Include/core_cm3.h ****                       Value is aligned automatically to the implemented priority bits of the microc
1660:Drivers/CMSIS/Include/core_cm3.h ****  */
1661:Drivers/CMSIS/Include/core_cm3.h **** __STATIC_INLINE uint32_t __NVIC_GetPriority(IRQn_Type IRQn)
1662:Drivers/CMSIS/Include/core_cm3.h **** {
1663:Drivers/CMSIS/Include/core_cm3.h **** 
1664:Drivers/CMSIS/Include/core_cm3.h ****   if ((int32_t)(IRQn) >= 0)
1665:Drivers/CMSIS/Include/core_cm3.h ****   {
1666:Drivers/CMSIS/Include/core_cm3.h ****     return(((uint32_t)NVIC->IP[((uint32_t)IRQn)]               >> (8U - __NVIC_PRIO_BITS)));
1667:Drivers/CMSIS/Include/core_cm3.h ****   }
1668:Drivers/CMSIS/Include/core_cm3.h ****   else
1669:Drivers/CMSIS/Include/core_cm3.h ****   {
1670:Drivers/CMSIS/Include/core_cm3.h ****     return(((uint32_t)SCB->SHP[(((uint32_t)IRQn) & 0xFUL)-4UL] >> (8U - __NVIC_PRIO_BITS)));
1671:Drivers/CMSIS/Include/core_cm3.h ****   }
1672:Drivers/CMSIS/Include/core_cm3.h **** }
1673:Drivers/CMSIS/Include/core_cm3.h **** 
1674:Drivers/CMSIS/Include/core_cm3.h **** 
1675:Drivers/CMSIS/Include/core_cm3.h **** /**
1676:Drivers/CMSIS/Include/core_cm3.h ****   \brief   Encode Priority
1677:Drivers/CMSIS/Include/core_cm3.h ****   \details Encodes the priority for an interrupt with the given priority group,
1678:Drivers/CMSIS/Include/core_cm3.h ****            preemptive priority value, and subpriority value.
1679:Drivers/CMSIS/Include/core_cm3.h ****            In case of a conflict between priority grouping and available
1680:Drivers/CMSIS/Include/core_cm3.h ****            priority bits (__NVIC_PRIO_BITS), the smallest possible priority group is set.
1681:Drivers/CMSIS/Include/core_cm3.h ****   \param [in]     PriorityGroup  Used priority group.
1682:Drivers/CMSIS/Include/core_cm3.h ****   \param [in]   PreemptPriority  Preemptive priority value (starting from 0).
1683:Drivers/CMSIS/Include/core_cm3.h ****   \param [in]       SubPriority  Subpriority value (starting from 0).
1684:Drivers/CMSIS/Include/core_cm3.h ****   \return                        Encoded priority. Value can be used in the function \ref NVIC_SetP
1685:Drivers/CMSIS/Include/core_cm3.h ****  */
1686:Drivers/CMSIS/Include/core_cm3.h **** __STATIC_INLINE uint32_t NVIC_EncodePriority (uint32_t PriorityGroup, uint32_t PreemptPriority, uin
1687:Drivers/CMSIS/Include/core_cm3.h **** {
1688:Drivers/CMSIS/Include/core_cm3.h ****   uint32_t PriorityGroupTmp = (PriorityGroup & (uint32_t)0x07UL);   /* only values 0..7 are used   
1689:Drivers/CMSIS/Include/core_cm3.h ****   uint32_t PreemptPriorityBits;
1690:Drivers/CMSIS/Include/core_cm3.h ****   uint32_t SubPriorityBits;
1691:Drivers/CMSIS/Include/core_cm3.h **** 
ARM GAS  C:\Users\cedri\AppData\Local\Temp\ccZqcsPj.s 			page 44


1692:Drivers/CMSIS/Include/core_cm3.h ****   PreemptPriorityBits = ((7UL - PriorityGroupTmp) > (uint32_t)(__NVIC_PRIO_BITS)) ? (uint32_t)(__NV
1693:Drivers/CMSIS/Include/core_cm3.h ****   SubPriorityBits     = ((PriorityGroupTmp + (uint32_t)(__NVIC_PRIO_BITS)) < (uint32_t)7UL) ? (uint
1694:Drivers/CMSIS/Include/core_cm3.h **** 
1695:Drivers/CMSIS/Include/core_cm3.h ****   return (
1696:Drivers/CMSIS/Include/core_cm3.h ****            ((PreemptPriority & (uint32_t)((1UL << (PreemptPriorityBits)) - 1UL)) << SubPriorityBits
1697:Drivers/CMSIS/Include/core_cm3.h ****            ((SubPriority     & (uint32_t)((1UL << (SubPriorityBits    )) - 1UL)))
1698:Drivers/CMSIS/Include/core_cm3.h ****          );
1699:Drivers/CMSIS/Include/core_cm3.h **** }
1700:Drivers/CMSIS/Include/core_cm3.h **** 
1701:Drivers/CMSIS/Include/core_cm3.h **** 
1702:Drivers/CMSIS/Include/core_cm3.h **** /**
1703:Drivers/CMSIS/Include/core_cm3.h ****   \brief   Decode Priority
1704:Drivers/CMSIS/Include/core_cm3.h ****   \details Decodes an interrupt priority value with a given priority group to
1705:Drivers/CMSIS/Include/core_cm3.h ****            preemptive priority value and subpriority value.
1706:Drivers/CMSIS/Include/core_cm3.h ****            In case of a conflict between priority grouping and available
1707:Drivers/CMSIS/Include/core_cm3.h ****            priority bits (__NVIC_PRIO_BITS) the smallest possible priority group is set.
1708:Drivers/CMSIS/Include/core_cm3.h ****   \param [in]         Priority   Priority value, which can be retrieved with the function \ref NVIC
1709:Drivers/CMSIS/Include/core_cm3.h ****   \param [in]     PriorityGroup  Used priority group.
1710:Drivers/CMSIS/Include/core_cm3.h ****   \param [out] pPreemptPriority  Preemptive priority value (starting from 0).
1711:Drivers/CMSIS/Include/core_cm3.h ****   \param [out]     pSubPriority  Subpriority value (starting from 0).
1712:Drivers/CMSIS/Include/core_cm3.h ****  */
1713:Drivers/CMSIS/Include/core_cm3.h **** __STATIC_INLINE void NVIC_DecodePriority (uint32_t Priority, uint32_t PriorityGroup, uint32_t* cons
1714:Drivers/CMSIS/Include/core_cm3.h **** {
1715:Drivers/CMSIS/Include/core_cm3.h ****   uint32_t PriorityGroupTmp = (PriorityGroup & (uint32_t)0x07UL);   /* only values 0..7 are used   
1716:Drivers/CMSIS/Include/core_cm3.h ****   uint32_t PreemptPriorityBits;
1717:Drivers/CMSIS/Include/core_cm3.h ****   uint32_t SubPriorityBits;
1718:Drivers/CMSIS/Include/core_cm3.h **** 
1719:Drivers/CMSIS/Include/core_cm3.h ****   PreemptPriorityBits = ((7UL - PriorityGroupTmp) > (uint32_t)(__NVIC_PRIO_BITS)) ? (uint32_t)(__NV
1720:Drivers/CMSIS/Include/core_cm3.h ****   SubPriorityBits     = ((PriorityGroupTmp + (uint32_t)(__NVIC_PRIO_BITS)) < (uint32_t)7UL) ? (uint
1721:Drivers/CMSIS/Include/core_cm3.h **** 
1722:Drivers/CMSIS/Include/core_cm3.h ****   *pPreemptPriority = (Priority >> SubPriorityBits) & (uint32_t)((1UL << (PreemptPriorityBits)) - 1
1723:Drivers/CMSIS/Include/core_cm3.h ****   *pSubPriority     = (Priority                   ) & (uint32_t)((1UL << (SubPriorityBits    )) - 1
1724:Drivers/CMSIS/Include/core_cm3.h **** }
1725:Drivers/CMSIS/Include/core_cm3.h **** 
1726:Drivers/CMSIS/Include/core_cm3.h **** 
1727:Drivers/CMSIS/Include/core_cm3.h **** /**
1728:Drivers/CMSIS/Include/core_cm3.h ****   \brief   Set Interrupt Vector
1729:Drivers/CMSIS/Include/core_cm3.h ****   \details Sets an interrupt vector in SRAM based interrupt vector table.
1730:Drivers/CMSIS/Include/core_cm3.h ****            The interrupt number can be positive to specify a device specific interrupt,
1731:Drivers/CMSIS/Include/core_cm3.h ****            or negative to specify a processor exception.
1732:Drivers/CMSIS/Include/core_cm3.h ****            VTOR must been relocated to SRAM before.
1733:Drivers/CMSIS/Include/core_cm3.h ****   \param [in]   IRQn      Interrupt number
1734:Drivers/CMSIS/Include/core_cm3.h ****   \param [in]   vector    Address of interrupt handler function
1735:Drivers/CMSIS/Include/core_cm3.h ****  */
1736:Drivers/CMSIS/Include/core_cm3.h **** __STATIC_INLINE void __NVIC_SetVector(IRQn_Type IRQn, uint32_t vector)
1737:Drivers/CMSIS/Include/core_cm3.h **** {
1738:Drivers/CMSIS/Include/core_cm3.h ****   uint32_t *vectors = (uint32_t *)SCB->VTOR;
1739:Drivers/CMSIS/Include/core_cm3.h ****   vectors[(int32_t)IRQn + NVIC_USER_IRQ_OFFSET] = vector;
1740:Drivers/CMSIS/Include/core_cm3.h **** }
1741:Drivers/CMSIS/Include/core_cm3.h **** 
1742:Drivers/CMSIS/Include/core_cm3.h **** 
1743:Drivers/CMSIS/Include/core_cm3.h **** /**
1744:Drivers/CMSIS/Include/core_cm3.h ****   \brief   Get Interrupt Vector
1745:Drivers/CMSIS/Include/core_cm3.h ****   \details Reads an interrupt vector from interrupt vector table.
1746:Drivers/CMSIS/Include/core_cm3.h ****            The interrupt number can be positive to specify a device specific interrupt,
1747:Drivers/CMSIS/Include/core_cm3.h ****            or negative to specify a processor exception.
1748:Drivers/CMSIS/Include/core_cm3.h ****   \param [in]   IRQn      Interrupt number.
ARM GAS  C:\Users\cedri\AppData\Local\Temp\ccZqcsPj.s 			page 45


1749:Drivers/CMSIS/Include/core_cm3.h ****   \return                 Address of interrupt handler function
1750:Drivers/CMSIS/Include/core_cm3.h ****  */
1751:Drivers/CMSIS/Include/core_cm3.h **** __STATIC_INLINE uint32_t __NVIC_GetVector(IRQn_Type IRQn)
1752:Drivers/CMSIS/Include/core_cm3.h **** {
1753:Drivers/CMSIS/Include/core_cm3.h ****   uint32_t *vectors = (uint32_t *)SCB->VTOR;
1754:Drivers/CMSIS/Include/core_cm3.h ****   return vectors[(int32_t)IRQn + NVIC_USER_IRQ_OFFSET];
1755:Drivers/CMSIS/Include/core_cm3.h **** }
1756:Drivers/CMSIS/Include/core_cm3.h **** 
1757:Drivers/CMSIS/Include/core_cm3.h **** 
1758:Drivers/CMSIS/Include/core_cm3.h **** /**
1759:Drivers/CMSIS/Include/core_cm3.h ****   \brief   System Reset
1760:Drivers/CMSIS/Include/core_cm3.h ****   \details Initiates a system reset request to reset the MCU.
1761:Drivers/CMSIS/Include/core_cm3.h ****  */
1762:Drivers/CMSIS/Include/core_cm3.h **** __NO_RETURN __STATIC_INLINE void __NVIC_SystemReset(void)
1763:Drivers/CMSIS/Include/core_cm3.h **** {
1764:Drivers/CMSIS/Include/core_cm3.h ****   __DSB();                                                          /* Ensure all outstanding memor
1765:Drivers/CMSIS/Include/core_cm3.h ****                                                                        buffered write are completed
1766:Drivers/CMSIS/Include/core_cm3.h ****   SCB->AIRCR  = (uint32_t)((0x5FAUL << SCB_AIRCR_VECTKEY_Pos)    |
1767:Drivers/CMSIS/Include/core_cm3.h ****                            (SCB->AIRCR & SCB_AIRCR_PRIGROUP_Msk) |
1768:Drivers/CMSIS/Include/core_cm3.h ****                             SCB_AIRCR_SYSRESETREQ_Msk    );         /* Keep priority group unchange
1769:Drivers/CMSIS/Include/core_cm3.h ****   __DSB();                                                          /* Ensure completion of memory 
1770:Drivers/CMSIS/Include/core_cm3.h **** 
1771:Drivers/CMSIS/Include/core_cm3.h ****   for(;;)                                                           /* wait until reset */
1772:Drivers/CMSIS/Include/core_cm3.h ****   {
1773:Drivers/CMSIS/Include/core_cm3.h ****     __NOP();
1774:Drivers/CMSIS/Include/core_cm3.h ****   }
1775:Drivers/CMSIS/Include/core_cm3.h **** }
1776:Drivers/CMSIS/Include/core_cm3.h **** 
1777:Drivers/CMSIS/Include/core_cm3.h **** /*@} end of CMSIS_Core_NVICFunctions */
1778:Drivers/CMSIS/Include/core_cm3.h **** 
1779:Drivers/CMSIS/Include/core_cm3.h **** /* ##########################  MPU functions  #################################### */
1780:Drivers/CMSIS/Include/core_cm3.h **** 
1781:Drivers/CMSIS/Include/core_cm3.h **** #if defined (__MPU_PRESENT) && (__MPU_PRESENT == 1U)
1782:Drivers/CMSIS/Include/core_cm3.h **** 
1783:Drivers/CMSIS/Include/core_cm3.h **** #include "mpu_armv7.h"
1784:Drivers/CMSIS/Include/core_cm3.h **** 
1785:Drivers/CMSIS/Include/core_cm3.h **** #endif
1786:Drivers/CMSIS/Include/core_cm3.h **** 
1787:Drivers/CMSIS/Include/core_cm3.h **** /* ##########################  FPU functions  #################################### */
1788:Drivers/CMSIS/Include/core_cm3.h **** /**
1789:Drivers/CMSIS/Include/core_cm3.h ****   \ingroup  CMSIS_Core_FunctionInterface
1790:Drivers/CMSIS/Include/core_cm3.h ****   \defgroup CMSIS_Core_FpuFunctions FPU Functions
1791:Drivers/CMSIS/Include/core_cm3.h ****   \brief    Function that provides FPU type.
1792:Drivers/CMSIS/Include/core_cm3.h ****   @{
1793:Drivers/CMSIS/Include/core_cm3.h ****  */
1794:Drivers/CMSIS/Include/core_cm3.h **** 
1795:Drivers/CMSIS/Include/core_cm3.h **** /**
1796:Drivers/CMSIS/Include/core_cm3.h ****   \brief   get FPU type
1797:Drivers/CMSIS/Include/core_cm3.h ****   \details returns the FPU type
1798:Drivers/CMSIS/Include/core_cm3.h ****   \returns
1799:Drivers/CMSIS/Include/core_cm3.h ****    - \b  0: No FPU
1800:Drivers/CMSIS/Include/core_cm3.h ****    - \b  1: Single precision FPU
1801:Drivers/CMSIS/Include/core_cm3.h ****    - \b  2: Double + Single precision FPU
1802:Drivers/CMSIS/Include/core_cm3.h ****  */
1803:Drivers/CMSIS/Include/core_cm3.h **** __STATIC_INLINE uint32_t SCB_GetFPUType(void)
1804:Drivers/CMSIS/Include/core_cm3.h **** {
1805:Drivers/CMSIS/Include/core_cm3.h ****     return 0U;           /* No FPU */
ARM GAS  C:\Users\cedri\AppData\Local\Temp\ccZqcsPj.s 			page 46


1806:Drivers/CMSIS/Include/core_cm3.h **** }
1807:Drivers/CMSIS/Include/core_cm3.h **** 
1808:Drivers/CMSIS/Include/core_cm3.h **** 
1809:Drivers/CMSIS/Include/core_cm3.h **** /*@} end of CMSIS_Core_FpuFunctions */
1810:Drivers/CMSIS/Include/core_cm3.h **** 
1811:Drivers/CMSIS/Include/core_cm3.h **** 
1812:Drivers/CMSIS/Include/core_cm3.h **** 
1813:Drivers/CMSIS/Include/core_cm3.h **** /* ##################################    SysTick function  ########################################
1814:Drivers/CMSIS/Include/core_cm3.h **** /**
1815:Drivers/CMSIS/Include/core_cm3.h ****   \ingroup  CMSIS_Core_FunctionInterface
1816:Drivers/CMSIS/Include/core_cm3.h ****   \defgroup CMSIS_Core_SysTickFunctions SysTick Functions
1817:Drivers/CMSIS/Include/core_cm3.h ****   \brief    Functions that configure the System.
1818:Drivers/CMSIS/Include/core_cm3.h ****   @{
1819:Drivers/CMSIS/Include/core_cm3.h ****  */
1820:Drivers/CMSIS/Include/core_cm3.h **** 
1821:Drivers/CMSIS/Include/core_cm3.h **** #if defined (__Vendor_SysTickConfig) && (__Vendor_SysTickConfig == 0U)
1822:Drivers/CMSIS/Include/core_cm3.h **** 
1823:Drivers/CMSIS/Include/core_cm3.h **** /**
1824:Drivers/CMSIS/Include/core_cm3.h ****   \brief   System Tick Configuration
1825:Drivers/CMSIS/Include/core_cm3.h ****   \details Initializes the System Timer and its interrupt, and starts the System Tick Timer.
1826:Drivers/CMSIS/Include/core_cm3.h ****            Counter is in free running mode to generate periodic interrupts.
1827:Drivers/CMSIS/Include/core_cm3.h ****   \param [in]  ticks  Number of ticks between two interrupts.
1828:Drivers/CMSIS/Include/core_cm3.h ****   \return          0  Function succeeded.
1829:Drivers/CMSIS/Include/core_cm3.h ****   \return          1  Function failed.
1830:Drivers/CMSIS/Include/core_cm3.h ****   \note    When the variable <b>__Vendor_SysTickConfig</b> is set to 1, then the
1831:Drivers/CMSIS/Include/core_cm3.h ****            function <b>SysTick_Config</b> is not included. In this case, the file <b><i>device</i>.
1832:Drivers/CMSIS/Include/core_cm3.h ****            must contain a vendor-specific implementation of this function.
1833:Drivers/CMSIS/Include/core_cm3.h ****  */
1834:Drivers/CMSIS/Include/core_cm3.h **** __STATIC_INLINE uint32_t SysTick_Config(uint32_t ticks)
1835:Drivers/CMSIS/Include/core_cm3.h **** {
1836:Drivers/CMSIS/Include/core_cm3.h ****   if ((ticks - 1UL) > SysTick_LOAD_RELOAD_Msk)
1837:Drivers/CMSIS/Include/core_cm3.h ****   {
1838:Drivers/CMSIS/Include/core_cm3.h ****     return (1UL);                                                   /* Reload value impossible */
1839:Drivers/CMSIS/Include/core_cm3.h ****   }
1840:Drivers/CMSIS/Include/core_cm3.h **** 
1841:Drivers/CMSIS/Include/core_cm3.h ****   SysTick->LOAD  = (uint32_t)(ticks - 1UL);                         /* set reload register */
1842:Drivers/CMSIS/Include/core_cm3.h ****   NVIC_SetPriority (SysTick_IRQn, (1UL << __NVIC_PRIO_BITS) - 1UL); /* set Priority for Systick Int
1843:Drivers/CMSIS/Include/core_cm3.h ****   SysTick->VAL   = 0UL;                                             /* Load the SysTick Counter Val
1844:Drivers/CMSIS/Include/core_cm3.h ****   SysTick->CTRL  = SysTick_CTRL_CLKSOURCE_Msk |
1845:Drivers/CMSIS/Include/core_cm3.h ****                    SysTick_CTRL_TICKINT_Msk   |
1846:Drivers/CMSIS/Include/core_cm3.h ****                    SysTick_CTRL_ENABLE_Msk;                         /* Enable SysTick IRQ and SysTi
1847:Drivers/CMSIS/Include/core_cm3.h ****   return (0UL);                                                     /* Function successful */
1848:Drivers/CMSIS/Include/core_cm3.h **** }
1849:Drivers/CMSIS/Include/core_cm3.h **** 
1850:Drivers/CMSIS/Include/core_cm3.h **** #endif
1851:Drivers/CMSIS/Include/core_cm3.h **** 
1852:Drivers/CMSIS/Include/core_cm3.h **** /*@} end of CMSIS_Core_SysTickFunctions */
1853:Drivers/CMSIS/Include/core_cm3.h **** 
1854:Drivers/CMSIS/Include/core_cm3.h **** 
1855:Drivers/CMSIS/Include/core_cm3.h **** 
1856:Drivers/CMSIS/Include/core_cm3.h **** /* ##################################### Debug In/Output function #################################
1857:Drivers/CMSIS/Include/core_cm3.h **** /**
1858:Drivers/CMSIS/Include/core_cm3.h ****   \ingroup  CMSIS_Core_FunctionInterface
1859:Drivers/CMSIS/Include/core_cm3.h ****   \defgroup CMSIS_core_DebugFunctions ITM Functions
1860:Drivers/CMSIS/Include/core_cm3.h ****   \brief    Functions that access the ITM debug interface.
1861:Drivers/CMSIS/Include/core_cm3.h ****   @{
1862:Drivers/CMSIS/Include/core_cm3.h ****  */
ARM GAS  C:\Users\cedri\AppData\Local\Temp\ccZqcsPj.s 			page 47


1863:Drivers/CMSIS/Include/core_cm3.h **** 
1864:Drivers/CMSIS/Include/core_cm3.h **** extern volatile int32_t ITM_RxBuffer;                              /*!< External variable to receiv
1865:Drivers/CMSIS/Include/core_cm3.h **** #define                 ITM_RXBUFFER_EMPTY  ((int32_t)0x5AA55AA5U) /*!< Value identifying \ref ITM_
1866:Drivers/CMSIS/Include/core_cm3.h **** 
1867:Drivers/CMSIS/Include/core_cm3.h **** 
1868:Drivers/CMSIS/Include/core_cm3.h **** /**
1869:Drivers/CMSIS/Include/core_cm3.h ****   \brief   ITM Send Character
1870:Drivers/CMSIS/Include/core_cm3.h ****   \details Transmits a character via the ITM channel 0, and
1871:Drivers/CMSIS/Include/core_cm3.h ****            \li Just returns when no debugger is connected that has booked the output.
1872:Drivers/CMSIS/Include/core_cm3.h ****            \li Is blocking when a debugger is connected, but the previous character sent has not be
1873:Drivers/CMSIS/Include/core_cm3.h ****   \param [in]     ch  Character to transmit.
1874:Drivers/CMSIS/Include/core_cm3.h ****   \returns            Character to transmit.
1875:Drivers/CMSIS/Include/core_cm3.h ****  */
1876:Drivers/CMSIS/Include/core_cm3.h **** __STATIC_INLINE uint32_t ITM_SendChar (uint32_t ch)
 278              		.loc 2 1876 26 view .LVU68
 279              	.LBB12:
1877:Drivers/CMSIS/Include/core_cm3.h **** {
1878:Drivers/CMSIS/Include/core_cm3.h ****   if (((ITM->TCR & ITM_TCR_ITMENA_Msk) != 0UL) &&      /* ITM enabled */
 280              		.loc 2 1878 3 view .LVU69
 281              		.loc 2 1878 12 is_stmt 0 view .LVU70
 282 0000 4FF06043 		mov	r3, #-536870912
 283 0004 D3F8803E 		ldr	r3, [r3, #3712]
 284              		.loc 2 1878 6 view .LVU71
 285 0008 13F0010F 		tst	r3, #1
 286 000c 11D0     		beq	.L10
1879:Drivers/CMSIS/Include/core_cm3.h ****       ((ITM->TER & 1UL               ) != 0UL)   )     /* ITM Port #0 enabled */
 287              		.loc 2 1879 12 view .LVU72
 288 000e 4FF06043 		mov	r3, #-536870912
 289 0012 D3F8003E 		ldr	r3, [r3, #3584]
1878:Drivers/CMSIS/Include/core_cm3.h ****       ((ITM->TER & 1UL               ) != 0UL)   )     /* ITM Port #0 enabled */
 290              		.loc 2 1878 48 view .LVU73
 291 0016 13F0010F 		tst	r3, #1
 292 001a 01D1     		bne	.L11
 293 001c 7047     		bx	lr
 294              	.L12:
1880:Drivers/CMSIS/Include/core_cm3.h ****   {
1881:Drivers/CMSIS/Include/core_cm3.h ****     while (ITM->PORT[0U].u32 == 0UL)
1882:Drivers/CMSIS/Include/core_cm3.h ****     {
1883:Drivers/CMSIS/Include/core_cm3.h ****       __NOP();
 295              		.loc 2 1883 7 is_stmt 1 view .LVU74
 296              		.syntax unified
 297              	@ 1883 "Drivers/CMSIS/Include/core_cm3.h" 1
 298 001e 00BF     		nop
 299              	@ 0 "" 2
 300              		.thumb
 301              		.syntax unified
 302              	.L11:
1881:Drivers/CMSIS/Include/core_cm3.h ****     {
 303              		.loc 2 1881 30 view .LVU75
1881:Drivers/CMSIS/Include/core_cm3.h ****     {
 304              		.loc 2 1881 25 is_stmt 0 view .LVU76
 305 0020 4FF06043 		mov	r3, #-536870912
 306 0024 1B68     		ldr	r3, [r3]
1881:Drivers/CMSIS/Include/core_cm3.h ****     {
 307              		.loc 2 1881 30 view .LVU77
 308 0026 002B     		cmp	r3, #0
 309 0028 F9D0     		beq	.L12
ARM GAS  C:\Users\cedri\AppData\Local\Temp\ccZqcsPj.s 			page 48


1884:Drivers/CMSIS/Include/core_cm3.h ****     }
1885:Drivers/CMSIS/Include/core_cm3.h ****     ITM->PORT[0U].u8 = (uint8_t)ch;
 310              		.loc 2 1885 5 is_stmt 1 view .LVU78
 311              		.loc 2 1885 24 is_stmt 0 view .LVU79
 312 002a C3B2     		uxtb	r3, r0
 313              		.loc 2 1885 22 view .LVU80
 314 002c 4FF06042 		mov	r2, #-536870912
 315 0030 1370     		strb	r3, [r2]
 316              	.L10:
1886:Drivers/CMSIS/Include/core_cm3.h ****   }
1887:Drivers/CMSIS/Include/core_cm3.h ****   return (ch);
 317              		.loc 2 1887 3 is_stmt 1 view .LVU81
 318              	.LVL11:
 319              		.loc 2 1887 3 is_stmt 0 view .LVU82
 320              	.LBE12:
 321              	.LBE11:
 479:Core/Src/main.c ****     return ch;
 322              		.loc 1 479 5 is_stmt 1 view .LVU83
 480:Core/Src/main.c **** }
 323              		.loc 1 480 1 is_stmt 0 view .LVU84
 324 0032 7047     		bx	lr
 325              		.cfi_endproc
 326              	.LFE84:
 328              		.section	.text.randomGLC,"ax",%progbits
 329              		.align	1
 330              		.global	randomGLC
 331              		.syntax unified
 332              		.thumb
 333              		.thumb_func
 335              	randomGLC:
 336              	.LFB85:
 481:Core/Src/main.c **** 
 482:Core/Src/main.c **** void randomGLC() {
 337              		.loc 1 482 18 is_stmt 1 view -0
 338              		.cfi_startproc
 339              		@ args = 0, pretend = 0, frame = 0
 340              		@ frame_needed = 0, uses_anonymous_args = 0
 341              		@ link register save eliminated.
 483:Core/Src/main.c ****     const uint32_t a = 1664525;
 342              		.loc 1 483 5 view .LVU86
 343              	.LVL12:
 484:Core/Src/main.c ****     const uint32_t c = 1013904223;
 344              		.loc 1 484 5 view .LVU87
 485:Core/Src/main.c ****     const uint32_t m = 2^32; // 2^32
 345              		.loc 1 485 5 view .LVU88
 486:Core/Src/main.c **** 
 487:Core/Src/main.c ****     seed = (a * (seed) + c) % m;
 346              		.loc 1 487 5 view .LVU89
 347              		.loc 1 487 15 is_stmt 0 view .LVU90
 348 0000 0749     		ldr	r1, .L14
 349 0002 0B68     		ldr	r3, [r1]
 350              		.loc 1 487 24 view .LVU91
 351 0004 0748     		ldr	r0, .L14+4
 352 0006 084A     		ldr	r2, .L14+8
 353 0008 00FB0322 		mla	r2, r0, r3, r2
 354              		.loc 1 487 29 view .LVU92
 355 000c 074B     		ldr	r3, .L14+12
ARM GAS  C:\Users\cedri\AppData\Local\Temp\ccZqcsPj.s 			page 49


 356 000e A3FB0203 		umull	r0, r3, r3, r2
 357 0012 5B09     		lsrs	r3, r3, #5
 358 0014 03EB0313 		add	r3, r3, r3, lsl #4
 359 0018 5800     		lsls	r0, r3, #1
 360 001a 131A     		subs	r3, r2, r0
 361              		.loc 1 487 10 view .LVU93
 362 001c 0B60     		str	r3, [r1]
 488:Core/Src/main.c **** }
 363              		.loc 1 488 1 view .LVU94
 364 001e 7047     		bx	lr
 365              	.L15:
 366              		.align	2
 367              	.L14:
 368 0020 00000000 		.word	.LANCHOR0
 369 0024 0D661900 		.word	1664525
 370 0028 5FF36E3C 		.word	1013904223
 371 002c F1F0F0F0 		.word	-252645135
 372              		.cfi_endproc
 373              	.LFE85:
 375              		.section	.rodata.HAL_GPIO_EXTI_Callback.str1.4,"aMS",%progbits,1
 376              		.align	2
 377              	.LC0:
 378 0000 62746E20 		.ascii	"btn 1\015\000"
 378      310D00
 379 0007 00       		.align	2
 380              	.LC1:
 381 0008 62746E20 		.ascii	"btn 2\015\000"
 381      320D00
 382 000f 00       		.align	2
 383              	.LC2:
 384 0010 62746E20 		.ascii	"btn 3\015\000"
 384      330D00
 385 0017 00       		.align	2
 386              	.LC3:
 387 0018 62746E20 		.ascii	"btn 4\015\000"
 387      340D00
 388              		.section	.text.HAL_GPIO_EXTI_Callback,"ax",%progbits
 389              		.align	1
 390              		.global	HAL_GPIO_EXTI_Callback
 391              		.syntax unified
 392              		.thumb
 393              		.thumb_func
 395              	HAL_GPIO_EXTI_Callback:
 396              	.LVL13:
 397              	.LFB87:
 489:Core/Src/main.c **** 
 490:Core/Src/main.c **** 
 491:Core/Src/main.c **** 
 492:Core/Src/main.c **** void HAL_TIM_PeriodElapsedCallback(TIM_HandleTypeDef *htim){
 493:Core/Src/main.c **** 	if (htim->Instance == TIM2){
 494:Core/Src/main.c **** 		HAL_ADC_Start_DMA(&hadc, (uint32_t*)adcData, 2);
 495:Core/Src/main.c **** 
 496:Core/Src/main.c **** 		//printf("la data est : [%03x;%03x]\r\n",(unsigned int) adcData[1],(unsigned int)adcData[0]);
 497:Core/Src/main.c **** 
 498:Core/Src/main.c **** 		ledUpdate(adcData[0], &htim9,  TIM_CHANNEL_2);
 499:Core/Src/main.c **** 		ledUpdate(adcData[1], &htim11, TIM_CHANNEL_1);
 500:Core/Src/main.c **** 
ARM GAS  C:\Users\cedri\AppData\Local\Temp\ccZqcsPj.s 			page 50


 501:Core/Src/main.c **** 		randomGLC();
 502:Core/Src/main.c **** 	}
 503:Core/Src/main.c **** }
 504:Core/Src/main.c **** 
 505:Core/Src/main.c **** void HAL_GPIO_EXTI_Callback(uint16_t GPIO_Pin){
 398              		.loc 1 505 47 is_stmt 1 view -0
 399              		.cfi_startproc
 400              		@ args = 0, pretend = 0, frame = 0
 401              		@ frame_needed = 0, uses_anonymous_args = 0
 402              		.loc 1 505 47 is_stmt 0 view .LVU96
 403 0000 08B5     		push	{r3, lr}
 404              	.LCFI6:
 405              		.cfi_def_cfa_offset 8
 406              		.cfi_offset 3, -8
 407              		.cfi_offset 14, -4
 506:Core/Src/main.c **** 	switch (GPIO_Pin){
 408              		.loc 1 506 2 is_stmt 1 view .LVU97
 409 0002 B0F5006F 		cmp	r0, #2048
 410 0006 27D0     		beq	.L17
 411 0008 13D8     		bhi	.L18
 412 000a 2028     		cmp	r0, #32
 413 000c 35D0     		beq	.L19
 414 000e 4028     		cmp	r0, #64
 415 0010 2AD1     		bne	.L16
 507:Core/Src/main.c **** 	case BTN_1_Pin:
 508:Core/Src/main.c **** 			if (HAL_GetTick() > (buttonElapsed[0] + DELAY_DEBOUNCE)){
 509:Core/Src/main.c **** 				printf("btn 1\r\n");
 510:Core/Src/main.c **** 				buttonElapsed[0] = HAL_GetTick();
 511:Core/Src/main.c **** 			}
 512:Core/Src/main.c **** 			break;
 513:Core/Src/main.c **** 	case BTN_2_Pin:
 514:Core/Src/main.c **** 			if (HAL_GetTick() > (buttonElapsed[1] + DELAY_DEBOUNCE)){
 515:Core/Src/main.c **** 				printf("btn 2\r\n");
 516:Core/Src/main.c **** 				buttonElapsed[1] = HAL_GetTick();
 517:Core/Src/main.c **** 			}
 518:Core/Src/main.c **** 			break;
 519:Core/Src/main.c **** 	case BTN_3_Pin:
 520:Core/Src/main.c **** 			if (HAL_GetTick() > (buttonElapsed[2] + DELAY_DEBOUNCE)){
 416              		.loc 1 520 4 view .LVU98
 417              		.loc 1 520 8 is_stmt 0 view .LVU99
 418 0012 FFF7FEFF 		bl	HAL_GetTick
 419              	.LVL14:
 420              		.loc 1 520 38 view .LVU100
 421 0016 214B     		ldr	r3, .L25
 422 0018 9B68     		ldr	r3, [r3, #8]
 423              		.loc 1 520 42 view .LVU101
 424 001a 03F59673 		add	r3, r3, #300
 425              		.loc 1 520 7 view .LVU102
 426 001e 9842     		cmp	r0, r3
 427 0020 22D9     		bls	.L16
 521:Core/Src/main.c **** 				printf("btn 3\r\n");
 428              		.loc 1 521 5 is_stmt 1 view .LVU103
 429 0022 1F48     		ldr	r0, .L25+4
 430 0024 FFF7FEFF 		bl	puts
 431              	.LVL15:
 522:Core/Src/main.c **** 				buttonElapsed[2] = HAL_GetTick();
 432              		.loc 1 522 5 view .LVU104
ARM GAS  C:\Users\cedri\AppData\Local\Temp\ccZqcsPj.s 			page 51


 433              		.loc 1 522 24 is_stmt 0 view .LVU105
 434 0028 FFF7FEFF 		bl	HAL_GetTick
 435              	.LVL16:
 436              		.loc 1 522 22 view .LVU106
 437 002c 1B4B     		ldr	r3, .L25
 438 002e 9860     		str	r0, [r3, #8]
 439 0030 1AE0     		b	.L16
 440              	.LVL17:
 441              	.L18:
 506:Core/Src/main.c **** 	case BTN_1_Pin:
 442              		.loc 1 506 2 view .LVU107
 443 0032 B0F5805F 		cmp	r0, #4096
 444 0036 17D1     		bne	.L16
 514:Core/Src/main.c **** 				printf("btn 2\r\n");
 445              		.loc 1 514 4 is_stmt 1 view .LVU108
 514:Core/Src/main.c **** 				printf("btn 2\r\n");
 446              		.loc 1 514 8 is_stmt 0 view .LVU109
 447 0038 FFF7FEFF 		bl	HAL_GetTick
 448              	.LVL18:
 514:Core/Src/main.c **** 				printf("btn 2\r\n");
 449              		.loc 1 514 38 view .LVU110
 450 003c 174B     		ldr	r3, .L25
 451 003e 5B68     		ldr	r3, [r3, #4]
 514:Core/Src/main.c **** 				printf("btn 2\r\n");
 452              		.loc 1 514 42 view .LVU111
 453 0040 03F59673 		add	r3, r3, #300
 514:Core/Src/main.c **** 				printf("btn 2\r\n");
 454              		.loc 1 514 7 view .LVU112
 455 0044 9842     		cmp	r0, r3
 456 0046 0FD9     		bls	.L16
 515:Core/Src/main.c **** 				buttonElapsed[1] = HAL_GetTick();
 457              		.loc 1 515 5 is_stmt 1 view .LVU113
 458 0048 1648     		ldr	r0, .L25+8
 459 004a FFF7FEFF 		bl	puts
 460              	.LVL19:
 516:Core/Src/main.c **** 			}
 461              		.loc 1 516 5 view .LVU114
 516:Core/Src/main.c **** 			}
 462              		.loc 1 516 24 is_stmt 0 view .LVU115
 463 004e FFF7FEFF 		bl	HAL_GetTick
 464              	.LVL20:
 516:Core/Src/main.c **** 			}
 465              		.loc 1 516 22 view .LVU116
 466 0052 124B     		ldr	r3, .L25
 467 0054 5860     		str	r0, [r3, #4]
 468 0056 07E0     		b	.L16
 469              	.LVL21:
 470              	.L17:
 508:Core/Src/main.c **** 				printf("btn 1\r\n");
 471              		.loc 1 508 4 is_stmt 1 view .LVU117
 508:Core/Src/main.c **** 				printf("btn 1\r\n");
 472              		.loc 1 508 8 is_stmt 0 view .LVU118
 473 0058 FFF7FEFF 		bl	HAL_GetTick
 474              	.LVL22:
 508:Core/Src/main.c **** 				printf("btn 1\r\n");
 475              		.loc 1 508 38 view .LVU119
 476 005c 0F4B     		ldr	r3, .L25
ARM GAS  C:\Users\cedri\AppData\Local\Temp\ccZqcsPj.s 			page 52


 477 005e 1B68     		ldr	r3, [r3]
 508:Core/Src/main.c **** 				printf("btn 1\r\n");
 478              		.loc 1 508 42 view .LVU120
 479 0060 03F59673 		add	r3, r3, #300
 508:Core/Src/main.c **** 				printf("btn 1\r\n");
 480              		.loc 1 508 7 view .LVU121
 481 0064 9842     		cmp	r0, r3
 482 0066 00D8     		bhi	.L24
 483              	.L16:
 523:Core/Src/main.c **** 			}
 524:Core/Src/main.c **** 			break;
 525:Core/Src/main.c **** 	case BTN_4_Pin:
 526:Core/Src/main.c **** 			if (HAL_GetTick() > (buttonElapsed[3] + DELAY_DEBOUNCE)){
 527:Core/Src/main.c **** 				printf("btn 4\r\n");
 528:Core/Src/main.c **** 				buttonElapsed[3] = HAL_GetTick();
 529:Core/Src/main.c **** 			}
 530:Core/Src/main.c **** 			break;
 531:Core/Src/main.c **** 	default:
 532:Core/Src/main.c **** 		break;
 533:Core/Src/main.c **** 	}
 534:Core/Src/main.c **** }
 484              		.loc 1 534 1 view .LVU122
 485 0068 08BD     		pop	{r3, pc}
 486              	.L24:
 509:Core/Src/main.c **** 				buttonElapsed[0] = HAL_GetTick();
 487              		.loc 1 509 5 is_stmt 1 view .LVU123
 488 006a 0F48     		ldr	r0, .L25+12
 489 006c FFF7FEFF 		bl	puts
 490              	.LVL23:
 510:Core/Src/main.c **** 			}
 491              		.loc 1 510 5 view .LVU124
 510:Core/Src/main.c **** 			}
 492              		.loc 1 510 24 is_stmt 0 view .LVU125
 493 0070 FFF7FEFF 		bl	HAL_GetTick
 494              	.LVL24:
 510:Core/Src/main.c **** 			}
 495              		.loc 1 510 22 view .LVU126
 496 0074 094B     		ldr	r3, .L25
 497 0076 1860     		str	r0, [r3]
 498 0078 F6E7     		b	.L16
 499              	.LVL25:
 500              	.L19:
 526:Core/Src/main.c **** 				printf("btn 4\r\n");
 501              		.loc 1 526 4 is_stmt 1 view .LVU127
 526:Core/Src/main.c **** 				printf("btn 4\r\n");
 502              		.loc 1 526 8 is_stmt 0 view .LVU128
 503 007a FFF7FEFF 		bl	HAL_GetTick
 504              	.LVL26:
 526:Core/Src/main.c **** 				printf("btn 4\r\n");
 505              		.loc 1 526 38 view .LVU129
 506 007e 074B     		ldr	r3, .L25
 507 0080 DB68     		ldr	r3, [r3, #12]
 526:Core/Src/main.c **** 				printf("btn 4\r\n");
 508              		.loc 1 526 42 view .LVU130
 509 0082 03F59673 		add	r3, r3, #300
 526:Core/Src/main.c **** 				printf("btn 4\r\n");
 510              		.loc 1 526 7 view .LVU131
ARM GAS  C:\Users\cedri\AppData\Local\Temp\ccZqcsPj.s 			page 53


 511 0086 9842     		cmp	r0, r3
 512 0088 EED9     		bls	.L16
 527:Core/Src/main.c **** 				buttonElapsed[3] = HAL_GetTick();
 513              		.loc 1 527 5 is_stmt 1 view .LVU132
 514 008a 0848     		ldr	r0, .L25+16
 515 008c FFF7FEFF 		bl	puts
 516              	.LVL27:
 528:Core/Src/main.c **** 			}
 517              		.loc 1 528 5 view .LVU133
 528:Core/Src/main.c **** 			}
 518              		.loc 1 528 24 is_stmt 0 view .LVU134
 519 0090 FFF7FEFF 		bl	HAL_GetTick
 520              	.LVL28:
 528:Core/Src/main.c **** 			}
 521              		.loc 1 528 22 view .LVU135
 522 0094 014B     		ldr	r3, .L25
 523 0096 D860     		str	r0, [r3, #12]
 524              		.loc 1 534 1 view .LVU136
 525 0098 E6E7     		b	.L16
 526              	.L26:
 527 009a 00BF     		.align	2
 528              	.L25:
 529 009c 00000000 		.word	.LANCHOR1
 530 00a0 10000000 		.word	.LC2
 531 00a4 08000000 		.word	.LC1
 532 00a8 00000000 		.word	.LC0
 533 00ac 18000000 		.word	.LC3
 534              		.cfi_endproc
 535              	.LFE87:
 537              		.section	.text.ledUpdate,"ax",%progbits
 538              		.align	1
 539              		.global	ledUpdate
 540              		.syntax unified
 541              		.thumb
 542              		.thumb_func
 544              	ledUpdate:
 545              	.LVL29:
 546              	.LFB88:
 535:Core/Src/main.c **** 
 536:Core/Src/main.c **** void ledUpdate(uint16_t Data,TIM_HandleTypeDef *Timer, uint32_t Channel){
 547              		.loc 1 536 73 is_stmt 1 view -0
 548              		.cfi_startproc
 549              		@ args = 0, pretend = 0, frame = 0
 550              		@ frame_needed = 0, uses_anonymous_args = 0
 551              		@ link register save eliminated.
 537:Core/Src/main.c **** 	uint16_t pwmValue = Data * 0xFFFF / 0xFFF;
 552              		.loc 1 537 2 view .LVU138
 553              		.loc 1 537 27 is_stmt 0 view .LVU139
 554 0000 C0EB0040 		rsb	r0, r0, r0, lsl #16
 555              	.LVL30:
 556              		.loc 1 537 36 view .LVU140
 557 0004 0D4B     		ldr	r3, .L34
 558 0006 83FB00C3 		smull	ip, r3, r3, r0
 559 000a 0344     		add	r3, r3, r0
 560 000c C017     		asrs	r0, r0, #31
 561 000e C0EBE320 		rsb	r0, r0, r3, asr #11
 562              	.LVL31:
ARM GAS  C:\Users\cedri\AppData\Local\Temp\ccZqcsPj.s 			page 54


 538:Core/Src/main.c **** 	__HAL_TIM_SET_COMPARE(Timer,Channel,pwmValue);
 563              		.loc 1 538 2 is_stmt 1 view .LVU141
 564 0012 1AB9     		cbnz	r2, .L28
 565              		.loc 1 538 2 is_stmt 0 discriminator 1 view .LVU142
 566 0014 0B68     		ldr	r3, [r1]
 567 0016 80B2     		uxth	r0, r0
 568              		.loc 1 538 2 discriminator 1 view .LVU143
 569 0018 5863     		str	r0, [r3, #52]
 570 001a 7047     		bx	lr
 571              	.L28:
 572              		.loc 1 538 2 discriminator 2 view .LVU144
 573 001c 042A     		cmp	r2, #4
 574 001e 05D0     		beq	.L32
 575              		.loc 1 538 2 discriminator 4 view .LVU145
 576 0020 082A     		cmp	r2, #8
 577 0022 07D0     		beq	.L33
 578              		.loc 1 538 2 discriminator 7 view .LVU146
 579 0024 0B68     		ldr	r3, [r1]
 580 0026 80B2     		uxth	r0, r0
 581              		.loc 1 538 2 discriminator 7 view .LVU147
 582 0028 1864     		str	r0, [r3, #64]
 539:Core/Src/main.c **** }
 583              		.loc 1 539 1 discriminator 7 view .LVU148
 584 002a 7047     		bx	lr
 585              	.L32:
 538:Core/Src/main.c **** 	__HAL_TIM_SET_COMPARE(Timer,Channel,pwmValue);
 586              		.loc 1 538 2 discriminator 3 view .LVU149
 587 002c 0B68     		ldr	r3, [r1]
 588 002e 80B2     		uxth	r0, r0
 538:Core/Src/main.c **** 	__HAL_TIM_SET_COMPARE(Timer,Channel,pwmValue);
 589              		.loc 1 538 2 discriminator 3 view .LVU150
 590 0030 9863     		str	r0, [r3, #56]
 591 0032 7047     		bx	lr
 592              	.L33:
 538:Core/Src/main.c **** 	__HAL_TIM_SET_COMPARE(Timer,Channel,pwmValue);
 593              		.loc 1 538 2 discriminator 6 view .LVU151
 594 0034 0B68     		ldr	r3, [r1]
 595 0036 80B2     		uxth	r0, r0
 538:Core/Src/main.c **** 	__HAL_TIM_SET_COMPARE(Timer,Channel,pwmValue);
 596              		.loc 1 538 2 discriminator 6 view .LVU152
 597 0038 D863     		str	r0, [r3, #60]
 598 003a 7047     		bx	lr
 599              	.L35:
 600              		.align	2
 601              	.L34:
 602 003c 81000880 		.word	-2146959231
 603              		.cfi_endproc
 604              	.LFE88:
 606              		.section	.text.HAL_TIM_PeriodElapsedCallback,"ax",%progbits
 607              		.align	1
 608              		.global	HAL_TIM_PeriodElapsedCallback
 609              		.syntax unified
 610              		.thumb
 611              		.thumb_func
 613              	HAL_TIM_PeriodElapsedCallback:
 614              	.LVL32:
 615              	.LFB86:
ARM GAS  C:\Users\cedri\AppData\Local\Temp\ccZqcsPj.s 			page 55


 492:Core/Src/main.c **** 	if (htim->Instance == TIM2){
 616              		.loc 1 492 60 is_stmt 1 view -0
 617              		.cfi_startproc
 618              		@ args = 0, pretend = 0, frame = 0
 619              		@ frame_needed = 0, uses_anonymous_args = 0
 493:Core/Src/main.c **** 		HAL_ADC_Start_DMA(&hadc, (uint32_t*)adcData, 2);
 620              		.loc 1 493 2 view .LVU154
 493:Core/Src/main.c **** 		HAL_ADC_Start_DMA(&hadc, (uint32_t*)adcData, 2);
 621              		.loc 1 493 10 is_stmt 0 view .LVU155
 622 0000 0368     		ldr	r3, [r0]
 493:Core/Src/main.c **** 		HAL_ADC_Start_DMA(&hadc, (uint32_t*)adcData, 2);
 623              		.loc 1 493 5 view .LVU156
 624 0002 B3F1804F 		cmp	r3, #1073741824
 625 0006 00D0     		beq	.L42
 626 0008 7047     		bx	lr
 627              	.L42:
 492:Core/Src/main.c **** 	if (htim->Instance == TIM2){
 628              		.loc 1 492 60 view .LVU157
 629 000a 10B5     		push	{r4, lr}
 630              	.LCFI7:
 631              		.cfi_def_cfa_offset 8
 632              		.cfi_offset 4, -8
 633              		.cfi_offset 14, -4
 494:Core/Src/main.c **** 
 634              		.loc 1 494 3 is_stmt 1 view .LVU158
 635 000c 094C     		ldr	r4, .L43
 636 000e 0222     		movs	r2, #2
 637 0010 2146     		mov	r1, r4
 638 0012 0948     		ldr	r0, .L43+4
 639              	.LVL33:
 494:Core/Src/main.c **** 
 640              		.loc 1 494 3 is_stmt 0 view .LVU159
 641 0014 FFF7FEFF 		bl	HAL_ADC_Start_DMA
 642              	.LVL34:
 498:Core/Src/main.c **** 		ledUpdate(adcData[1], &htim11, TIM_CHANNEL_1);
 643              		.loc 1 498 3 is_stmt 1 view .LVU160
 644 0018 0422     		movs	r2, #4
 645 001a 0849     		ldr	r1, .L43+8
 646 001c 2088     		ldrh	r0, [r4]
 647 001e FFF7FEFF 		bl	ledUpdate
 648              	.LVL35:
 499:Core/Src/main.c **** 
 649              		.loc 1 499 3 view .LVU161
 650 0022 0022     		movs	r2, #0
 651 0024 0649     		ldr	r1, .L43+12
 652 0026 6088     		ldrh	r0, [r4, #2]
 653 0028 FFF7FEFF 		bl	ledUpdate
 654              	.LVL36:
 501:Core/Src/main.c **** 	}
 655              		.loc 1 501 3 view .LVU162
 656 002c FFF7FEFF 		bl	randomGLC
 657              	.LVL37:
 503:Core/Src/main.c **** 
 658              		.loc 1 503 1 is_stmt 0 view .LVU163
 659 0030 10BD     		pop	{r4, pc}
 660              	.L44:
 661 0032 00BF     		.align	2
ARM GAS  C:\Users\cedri\AppData\Local\Temp\ccZqcsPj.s 			page 56


 662              	.L43:
 663 0034 00000000 		.word	.LANCHOR2
 664 0038 00000000 		.word	.LANCHOR3
 665 003c 00000000 		.word	.LANCHOR4
 666 0040 00000000 		.word	.LANCHOR5
 667              		.cfi_endproc
 668              	.LFE86:
 670              		.section	.text.Error_Handler,"ax",%progbits
 671              		.align	1
 672              		.global	Error_Handler
 673              		.syntax unified
 674              		.thumb
 675              		.thumb_func
 677              	Error_Handler:
 678              	.LFB89:
 540:Core/Src/main.c **** /* USER CODE END 4 */
 541:Core/Src/main.c **** 
 542:Core/Src/main.c **** /**
 543:Core/Src/main.c ****   * @brief  This function is executed in case of error occurrence.
 544:Core/Src/main.c ****   * @retval None
 545:Core/Src/main.c ****   */
 546:Core/Src/main.c **** void Error_Handler(void)
 547:Core/Src/main.c **** {
 679              		.loc 1 547 1 is_stmt 1 view -0
 680              		.cfi_startproc
 681              		@ Volatile: function does not return.
 682              		@ args = 0, pretend = 0, frame = 0
 683              		@ frame_needed = 0, uses_anonymous_args = 0
 684              		@ link register save eliminated.
 548:Core/Src/main.c ****   /* USER CODE BEGIN Error_Handler_Debug */
 549:Core/Src/main.c ****   /* User can add his own implementation to report the HAL error return state */
 550:Core/Src/main.c ****   __disable_irq();
 685              		.loc 1 550 3 view .LVU165
 686              	.LBB13:
 687              	.LBI13:
 688              		.file 3 "Drivers/CMSIS/Include/cmsis_gcc.h"
   1:Drivers/CMSIS/Include/cmsis_gcc.h **** /**************************************************************************//**
   2:Drivers/CMSIS/Include/cmsis_gcc.h ****  * @file     cmsis_gcc.h
   3:Drivers/CMSIS/Include/cmsis_gcc.h ****  * @brief    CMSIS compiler GCC header file
   4:Drivers/CMSIS/Include/cmsis_gcc.h ****  * @version  V5.0.4
   5:Drivers/CMSIS/Include/cmsis_gcc.h ****  * @date     09. April 2018
   6:Drivers/CMSIS/Include/cmsis_gcc.h ****  ******************************************************************************/
   7:Drivers/CMSIS/Include/cmsis_gcc.h **** /*
   8:Drivers/CMSIS/Include/cmsis_gcc.h ****  * Copyright (c) 2009-2018 Arm Limited. All rights reserved.
   9:Drivers/CMSIS/Include/cmsis_gcc.h ****  *
  10:Drivers/CMSIS/Include/cmsis_gcc.h ****  * SPDX-License-Identifier: Apache-2.0
  11:Drivers/CMSIS/Include/cmsis_gcc.h ****  *
  12:Drivers/CMSIS/Include/cmsis_gcc.h ****  * Licensed under the Apache License, Version 2.0 (the License); you may
  13:Drivers/CMSIS/Include/cmsis_gcc.h ****  * not use this file except in compliance with the License.
  14:Drivers/CMSIS/Include/cmsis_gcc.h ****  * You may obtain a copy of the License at
  15:Drivers/CMSIS/Include/cmsis_gcc.h ****  *
  16:Drivers/CMSIS/Include/cmsis_gcc.h ****  * www.apache.org/licenses/LICENSE-2.0
  17:Drivers/CMSIS/Include/cmsis_gcc.h ****  *
  18:Drivers/CMSIS/Include/cmsis_gcc.h ****  * Unless required by applicable law or agreed to in writing, software
  19:Drivers/CMSIS/Include/cmsis_gcc.h ****  * distributed under the License is distributed on an AS IS BASIS, WITHOUT
  20:Drivers/CMSIS/Include/cmsis_gcc.h ****  * WARRANTIES OR CONDITIONS OF ANY KIND, either express or implied.
  21:Drivers/CMSIS/Include/cmsis_gcc.h ****  * See the License for the specific language governing permissions and
ARM GAS  C:\Users\cedri\AppData\Local\Temp\ccZqcsPj.s 			page 57


  22:Drivers/CMSIS/Include/cmsis_gcc.h ****  * limitations under the License.
  23:Drivers/CMSIS/Include/cmsis_gcc.h ****  */
  24:Drivers/CMSIS/Include/cmsis_gcc.h **** 
  25:Drivers/CMSIS/Include/cmsis_gcc.h **** #ifndef __CMSIS_GCC_H
  26:Drivers/CMSIS/Include/cmsis_gcc.h **** #define __CMSIS_GCC_H
  27:Drivers/CMSIS/Include/cmsis_gcc.h **** 
  28:Drivers/CMSIS/Include/cmsis_gcc.h **** /* ignore some GCC warnings */
  29:Drivers/CMSIS/Include/cmsis_gcc.h **** #pragma GCC diagnostic push
  30:Drivers/CMSIS/Include/cmsis_gcc.h **** #pragma GCC diagnostic ignored "-Wsign-conversion"
  31:Drivers/CMSIS/Include/cmsis_gcc.h **** #pragma GCC diagnostic ignored "-Wconversion"
  32:Drivers/CMSIS/Include/cmsis_gcc.h **** #pragma GCC diagnostic ignored "-Wunused-parameter"
  33:Drivers/CMSIS/Include/cmsis_gcc.h **** 
  34:Drivers/CMSIS/Include/cmsis_gcc.h **** /* Fallback for __has_builtin */
  35:Drivers/CMSIS/Include/cmsis_gcc.h **** #ifndef __has_builtin
  36:Drivers/CMSIS/Include/cmsis_gcc.h ****   #define __has_builtin(x) (0)
  37:Drivers/CMSIS/Include/cmsis_gcc.h **** #endif
  38:Drivers/CMSIS/Include/cmsis_gcc.h **** 
  39:Drivers/CMSIS/Include/cmsis_gcc.h **** /* CMSIS compiler specific defines */
  40:Drivers/CMSIS/Include/cmsis_gcc.h **** #ifndef   __ASM
  41:Drivers/CMSIS/Include/cmsis_gcc.h ****   #define __ASM                                  __asm
  42:Drivers/CMSIS/Include/cmsis_gcc.h **** #endif
  43:Drivers/CMSIS/Include/cmsis_gcc.h **** #ifndef   __INLINE
  44:Drivers/CMSIS/Include/cmsis_gcc.h ****   #define __INLINE                               inline
  45:Drivers/CMSIS/Include/cmsis_gcc.h **** #endif
  46:Drivers/CMSIS/Include/cmsis_gcc.h **** #ifndef   __STATIC_INLINE
  47:Drivers/CMSIS/Include/cmsis_gcc.h ****   #define __STATIC_INLINE                        static inline
  48:Drivers/CMSIS/Include/cmsis_gcc.h **** #endif
  49:Drivers/CMSIS/Include/cmsis_gcc.h **** #ifndef   __STATIC_FORCEINLINE                 
  50:Drivers/CMSIS/Include/cmsis_gcc.h ****   #define __STATIC_FORCEINLINE                   __attribute__((always_inline)) static inline
  51:Drivers/CMSIS/Include/cmsis_gcc.h **** #endif                                           
  52:Drivers/CMSIS/Include/cmsis_gcc.h **** #ifndef   __NO_RETURN
  53:Drivers/CMSIS/Include/cmsis_gcc.h ****   #define __NO_RETURN                            __attribute__((__noreturn__))
  54:Drivers/CMSIS/Include/cmsis_gcc.h **** #endif
  55:Drivers/CMSIS/Include/cmsis_gcc.h **** #ifndef   __USED
  56:Drivers/CMSIS/Include/cmsis_gcc.h ****   #define __USED                                 __attribute__((used))
  57:Drivers/CMSIS/Include/cmsis_gcc.h **** #endif
  58:Drivers/CMSIS/Include/cmsis_gcc.h **** #ifndef   __WEAK
  59:Drivers/CMSIS/Include/cmsis_gcc.h ****   #define __WEAK                                 __attribute__((weak))
  60:Drivers/CMSIS/Include/cmsis_gcc.h **** #endif
  61:Drivers/CMSIS/Include/cmsis_gcc.h **** #ifndef   __PACKED
  62:Drivers/CMSIS/Include/cmsis_gcc.h ****   #define __PACKED                               __attribute__((packed, aligned(1)))
  63:Drivers/CMSIS/Include/cmsis_gcc.h **** #endif
  64:Drivers/CMSIS/Include/cmsis_gcc.h **** #ifndef   __PACKED_STRUCT
  65:Drivers/CMSIS/Include/cmsis_gcc.h ****   #define __PACKED_STRUCT                        struct __attribute__((packed, aligned(1)))
  66:Drivers/CMSIS/Include/cmsis_gcc.h **** #endif
  67:Drivers/CMSIS/Include/cmsis_gcc.h **** #ifndef   __PACKED_UNION
  68:Drivers/CMSIS/Include/cmsis_gcc.h ****   #define __PACKED_UNION                         union __attribute__((packed, aligned(1)))
  69:Drivers/CMSIS/Include/cmsis_gcc.h **** #endif
  70:Drivers/CMSIS/Include/cmsis_gcc.h **** #ifndef   __UNALIGNED_UINT32        /* deprecated */
  71:Drivers/CMSIS/Include/cmsis_gcc.h ****   #pragma GCC diagnostic push
  72:Drivers/CMSIS/Include/cmsis_gcc.h ****   #pragma GCC diagnostic ignored "-Wpacked"
  73:Drivers/CMSIS/Include/cmsis_gcc.h ****   #pragma GCC diagnostic ignored "-Wattributes"
  74:Drivers/CMSIS/Include/cmsis_gcc.h ****   struct __attribute__((packed)) T_UINT32 { uint32_t v; };
  75:Drivers/CMSIS/Include/cmsis_gcc.h ****   #pragma GCC diagnostic pop
  76:Drivers/CMSIS/Include/cmsis_gcc.h ****   #define __UNALIGNED_UINT32(x)                  (((struct T_UINT32 *)(x))->v)
  77:Drivers/CMSIS/Include/cmsis_gcc.h **** #endif
  78:Drivers/CMSIS/Include/cmsis_gcc.h **** #ifndef   __UNALIGNED_UINT16_WRITE
ARM GAS  C:\Users\cedri\AppData\Local\Temp\ccZqcsPj.s 			page 58


  79:Drivers/CMSIS/Include/cmsis_gcc.h ****   #pragma GCC diagnostic push
  80:Drivers/CMSIS/Include/cmsis_gcc.h ****   #pragma GCC diagnostic ignored "-Wpacked"
  81:Drivers/CMSIS/Include/cmsis_gcc.h ****   #pragma GCC diagnostic ignored "-Wattributes"
  82:Drivers/CMSIS/Include/cmsis_gcc.h ****   __PACKED_STRUCT T_UINT16_WRITE { uint16_t v; };
  83:Drivers/CMSIS/Include/cmsis_gcc.h ****   #pragma GCC diagnostic pop
  84:Drivers/CMSIS/Include/cmsis_gcc.h ****   #define __UNALIGNED_UINT16_WRITE(addr, val)    (void)((((struct T_UINT16_WRITE *)(void *)(addr))-
  85:Drivers/CMSIS/Include/cmsis_gcc.h **** #endif
  86:Drivers/CMSIS/Include/cmsis_gcc.h **** #ifndef   __UNALIGNED_UINT16_READ
  87:Drivers/CMSIS/Include/cmsis_gcc.h ****   #pragma GCC diagnostic push
  88:Drivers/CMSIS/Include/cmsis_gcc.h ****   #pragma GCC diagnostic ignored "-Wpacked"
  89:Drivers/CMSIS/Include/cmsis_gcc.h ****   #pragma GCC diagnostic ignored "-Wattributes"
  90:Drivers/CMSIS/Include/cmsis_gcc.h ****   __PACKED_STRUCT T_UINT16_READ { uint16_t v; };
  91:Drivers/CMSIS/Include/cmsis_gcc.h ****   #pragma GCC diagnostic pop
  92:Drivers/CMSIS/Include/cmsis_gcc.h ****   #define __UNALIGNED_UINT16_READ(addr)          (((const struct T_UINT16_READ *)(const void *)(add
  93:Drivers/CMSIS/Include/cmsis_gcc.h **** #endif
  94:Drivers/CMSIS/Include/cmsis_gcc.h **** #ifndef   __UNALIGNED_UINT32_WRITE
  95:Drivers/CMSIS/Include/cmsis_gcc.h ****   #pragma GCC diagnostic push
  96:Drivers/CMSIS/Include/cmsis_gcc.h ****   #pragma GCC diagnostic ignored "-Wpacked"
  97:Drivers/CMSIS/Include/cmsis_gcc.h ****   #pragma GCC diagnostic ignored "-Wattributes"
  98:Drivers/CMSIS/Include/cmsis_gcc.h ****   __PACKED_STRUCT T_UINT32_WRITE { uint32_t v; };
  99:Drivers/CMSIS/Include/cmsis_gcc.h ****   #pragma GCC diagnostic pop
 100:Drivers/CMSIS/Include/cmsis_gcc.h ****   #define __UNALIGNED_UINT32_WRITE(addr, val)    (void)((((struct T_UINT32_WRITE *)(void *)(addr))-
 101:Drivers/CMSIS/Include/cmsis_gcc.h **** #endif
 102:Drivers/CMSIS/Include/cmsis_gcc.h **** #ifndef   __UNALIGNED_UINT32_READ
 103:Drivers/CMSIS/Include/cmsis_gcc.h ****   #pragma GCC diagnostic push
 104:Drivers/CMSIS/Include/cmsis_gcc.h ****   #pragma GCC diagnostic ignored "-Wpacked"
 105:Drivers/CMSIS/Include/cmsis_gcc.h ****   #pragma GCC diagnostic ignored "-Wattributes"
 106:Drivers/CMSIS/Include/cmsis_gcc.h ****   __PACKED_STRUCT T_UINT32_READ { uint32_t v; };
 107:Drivers/CMSIS/Include/cmsis_gcc.h ****   #pragma GCC diagnostic pop
 108:Drivers/CMSIS/Include/cmsis_gcc.h ****   #define __UNALIGNED_UINT32_READ(addr)          (((const struct T_UINT32_READ *)(const void *)(add
 109:Drivers/CMSIS/Include/cmsis_gcc.h **** #endif
 110:Drivers/CMSIS/Include/cmsis_gcc.h **** #ifndef   __ALIGNED
 111:Drivers/CMSIS/Include/cmsis_gcc.h ****   #define __ALIGNED(x)                           __attribute__((aligned(x)))
 112:Drivers/CMSIS/Include/cmsis_gcc.h **** #endif
 113:Drivers/CMSIS/Include/cmsis_gcc.h **** #ifndef   __RESTRICT
 114:Drivers/CMSIS/Include/cmsis_gcc.h ****   #define __RESTRICT                             __restrict
 115:Drivers/CMSIS/Include/cmsis_gcc.h **** #endif
 116:Drivers/CMSIS/Include/cmsis_gcc.h **** 
 117:Drivers/CMSIS/Include/cmsis_gcc.h **** 
 118:Drivers/CMSIS/Include/cmsis_gcc.h **** /* ###########################  Core Function Access  ########################### */
 119:Drivers/CMSIS/Include/cmsis_gcc.h **** /** \ingroup  CMSIS_Core_FunctionInterface
 120:Drivers/CMSIS/Include/cmsis_gcc.h ****     \defgroup CMSIS_Core_RegAccFunctions CMSIS Core Register Access Functions
 121:Drivers/CMSIS/Include/cmsis_gcc.h ****   @{
 122:Drivers/CMSIS/Include/cmsis_gcc.h ****  */
 123:Drivers/CMSIS/Include/cmsis_gcc.h **** 
 124:Drivers/CMSIS/Include/cmsis_gcc.h **** /**
 125:Drivers/CMSIS/Include/cmsis_gcc.h ****   \brief   Enable IRQ Interrupts
 126:Drivers/CMSIS/Include/cmsis_gcc.h ****   \details Enables IRQ interrupts by clearing the I-bit in the CPSR.
 127:Drivers/CMSIS/Include/cmsis_gcc.h ****            Can only be executed in Privileged modes.
 128:Drivers/CMSIS/Include/cmsis_gcc.h ****  */
 129:Drivers/CMSIS/Include/cmsis_gcc.h **** __STATIC_FORCEINLINE void __enable_irq(void)
 130:Drivers/CMSIS/Include/cmsis_gcc.h **** {
 131:Drivers/CMSIS/Include/cmsis_gcc.h ****   __ASM volatile ("cpsie i" : : : "memory");
 132:Drivers/CMSIS/Include/cmsis_gcc.h **** }
 133:Drivers/CMSIS/Include/cmsis_gcc.h **** 
 134:Drivers/CMSIS/Include/cmsis_gcc.h **** 
 135:Drivers/CMSIS/Include/cmsis_gcc.h **** /**
ARM GAS  C:\Users\cedri\AppData\Local\Temp\ccZqcsPj.s 			page 59


 136:Drivers/CMSIS/Include/cmsis_gcc.h ****   \brief   Disable IRQ Interrupts
 137:Drivers/CMSIS/Include/cmsis_gcc.h ****   \details Disables IRQ interrupts by setting the I-bit in the CPSR.
 138:Drivers/CMSIS/Include/cmsis_gcc.h ****            Can only be executed in Privileged modes.
 139:Drivers/CMSIS/Include/cmsis_gcc.h ****  */
 140:Drivers/CMSIS/Include/cmsis_gcc.h **** __STATIC_FORCEINLINE void __disable_irq(void)
 689              		.loc 3 140 27 view .LVU166
 690              	.LBB14:
 141:Drivers/CMSIS/Include/cmsis_gcc.h **** {
 142:Drivers/CMSIS/Include/cmsis_gcc.h ****   __ASM volatile ("cpsid i" : : : "memory");
 691              		.loc 3 142 3 view .LVU167
 692              		.syntax unified
 693              	@ 142 "Drivers/CMSIS/Include/cmsis_gcc.h" 1
 694 0000 72B6     		cpsid i
 695              	@ 0 "" 2
 696              		.thumb
 697              		.syntax unified
 698              	.L46:
 699              	.LBE14:
 700              	.LBE13:
 551:Core/Src/main.c ****   while (1)
