ARM GAS  C:\Users\cedri\AppData\Local\Temp\cc9WRHZF.s 			page 1


   1              		.cpu cortex-m3
   2              		.arch armv7-m
   3              		.fpu softvfp
   4              		.eabi_attribute 20, 1
   5              		.eabi_attribute 21, 1
   6              		.eabi_attribute 23, 3
   7              		.eabi_attribute 24, 1
   8              		.eabi_attribute 25, 1
   9              		.eabi_attribute 26, 1
  10              		.eabi_attribute 30, 1
  11              		.eabi_attribute 34, 1
  12              		.eabi_attribute 18, 4
  13              		.file	"stm32l1xx_hal_adc.c"
  14              		.text
  15              	.Ltext0:
  16              		.cfi_sections	.debug_frame
  17              		.section	.text.HAL_ADC_MspInit,"ax",%progbits
  18              		.align	1
  19              		.weak	HAL_ADC_MspInit
  20              		.syntax unified
  21              		.thumb
  22              		.thumb_func
  24              	HAL_ADC_MspInit:
  25              	.LVL0:
  26              	.LFB74:
  27              		.file 1 "Drivers/STM32L1xx_HAL_Driver/Src/stm32l1xx_hal_adc.c"
   1:Drivers/STM32L1xx_HAL_Driver/Src/stm32l1xx_hal_adc.c **** /**
   2:Drivers/STM32L1xx_HAL_Driver/Src/stm32l1xx_hal_adc.c ****   ******************************************************************************
   3:Drivers/STM32L1xx_HAL_Driver/Src/stm32l1xx_hal_adc.c ****   * @file    stm32l1xx_hal_adc.c
   4:Drivers/STM32L1xx_HAL_Driver/Src/stm32l1xx_hal_adc.c ****   * @author  MCD Application Team
   5:Drivers/STM32L1xx_HAL_Driver/Src/stm32l1xx_hal_adc.c ****   * @brief   This file provides firmware functions to manage the following 
   6:Drivers/STM32L1xx_HAL_Driver/Src/stm32l1xx_hal_adc.c ****   *          functionalities of the Analog to Digital Convertor (ADC)
   7:Drivers/STM32L1xx_HAL_Driver/Src/stm32l1xx_hal_adc.c ****   *          peripheral:
   8:Drivers/STM32L1xx_HAL_Driver/Src/stm32l1xx_hal_adc.c ****   *           + Initialization and de-initialization functions
   9:Drivers/STM32L1xx_HAL_Driver/Src/stm32l1xx_hal_adc.c ****   *           + Peripheral Control functions
  10:Drivers/STM32L1xx_HAL_Driver/Src/stm32l1xx_hal_adc.c ****   *           + Peripheral State functions
  11:Drivers/STM32L1xx_HAL_Driver/Src/stm32l1xx_hal_adc.c ****   *          Other functions (extended functions) are available in file 
  12:Drivers/STM32L1xx_HAL_Driver/Src/stm32l1xx_hal_adc.c ****   *          "stm32l1xx_hal_adc_ex.c".
  13:Drivers/STM32L1xx_HAL_Driver/Src/stm32l1xx_hal_adc.c ****   *
  14:Drivers/STM32L1xx_HAL_Driver/Src/stm32l1xx_hal_adc.c ****   ******************************************************************************
  15:Drivers/STM32L1xx_HAL_Driver/Src/stm32l1xx_hal_adc.c ****   * @attention
  16:Drivers/STM32L1xx_HAL_Driver/Src/stm32l1xx_hal_adc.c ****   *
  17:Drivers/STM32L1xx_HAL_Driver/Src/stm32l1xx_hal_adc.c ****   * Copyright (c) 2017 STMicroelectronics.
  18:Drivers/STM32L1xx_HAL_Driver/Src/stm32l1xx_hal_adc.c ****   * All rights reserved.
  19:Drivers/STM32L1xx_HAL_Driver/Src/stm32l1xx_hal_adc.c ****   *
  20:Drivers/STM32L1xx_HAL_Driver/Src/stm32l1xx_hal_adc.c ****   * This software is licensed under terms that can be found in the LICENSE file
  21:Drivers/STM32L1xx_HAL_Driver/Src/stm32l1xx_hal_adc.c ****   * in the root directory of this software component.
  22:Drivers/STM32L1xx_HAL_Driver/Src/stm32l1xx_hal_adc.c ****   * If no LICENSE file comes with this software, it is provided AS-IS.
  23:Drivers/STM32L1xx_HAL_Driver/Src/stm32l1xx_hal_adc.c ****   *
  24:Drivers/STM32L1xx_HAL_Driver/Src/stm32l1xx_hal_adc.c ****   ******************************************************************************
  25:Drivers/STM32L1xx_HAL_Driver/Src/stm32l1xx_hal_adc.c ****   @verbatim
  26:Drivers/STM32L1xx_HAL_Driver/Src/stm32l1xx_hal_adc.c ****   ==============================================================================
  27:Drivers/STM32L1xx_HAL_Driver/Src/stm32l1xx_hal_adc.c ****                      ##### ADC peripheral features #####
  28:Drivers/STM32L1xx_HAL_Driver/Src/stm32l1xx_hal_adc.c ****   ==============================================================================
  29:Drivers/STM32L1xx_HAL_Driver/Src/stm32l1xx_hal_adc.c ****   [..]
  30:Drivers/STM32L1xx_HAL_Driver/Src/stm32l1xx_hal_adc.c ****   (+) 12-bit, 10-bit, 8-bit or 6-bit configurable resolution
  31:Drivers/STM32L1xx_HAL_Driver/Src/stm32l1xx_hal_adc.c **** 
ARM GAS  C:\Users\cedri\AppData\Local\Temp\cc9WRHZF.s 			page 2


  32:Drivers/STM32L1xx_HAL_Driver/Src/stm32l1xx_hal_adc.c ****   (+) Interrupt generation at the end of regular conversion, end of injected
  33:Drivers/STM32L1xx_HAL_Driver/Src/stm32l1xx_hal_adc.c ****       conversion, and in case of analog watchdog or overrun events.
  34:Drivers/STM32L1xx_HAL_Driver/Src/stm32l1xx_hal_adc.c ****   
  35:Drivers/STM32L1xx_HAL_Driver/Src/stm32l1xx_hal_adc.c ****   (+) Single and continuous conversion modes.
  36:Drivers/STM32L1xx_HAL_Driver/Src/stm32l1xx_hal_adc.c ****   
  37:Drivers/STM32L1xx_HAL_Driver/Src/stm32l1xx_hal_adc.c ****   (+) Scan mode for conversion of several channels sequentially.
  38:Drivers/STM32L1xx_HAL_Driver/Src/stm32l1xx_hal_adc.c ****   
  39:Drivers/STM32L1xx_HAL_Driver/Src/stm32l1xx_hal_adc.c ****   (+) Data alignment with in-built data coherency.
  40:Drivers/STM32L1xx_HAL_Driver/Src/stm32l1xx_hal_adc.c ****   
  41:Drivers/STM32L1xx_HAL_Driver/Src/stm32l1xx_hal_adc.c ****   (+) Programmable sampling time (channel wise)
  42:Drivers/STM32L1xx_HAL_Driver/Src/stm32l1xx_hal_adc.c ****   
  43:Drivers/STM32L1xx_HAL_Driver/Src/stm32l1xx_hal_adc.c ****   (+) ADC conversion of regular group and injected group.
  44:Drivers/STM32L1xx_HAL_Driver/Src/stm32l1xx_hal_adc.c ****   
  45:Drivers/STM32L1xx_HAL_Driver/Src/stm32l1xx_hal_adc.c ****   (+) External trigger (timer or EXTI) with configurable polarity
  46:Drivers/STM32L1xx_HAL_Driver/Src/stm32l1xx_hal_adc.c ****       for both regular and injected groups.
  47:Drivers/STM32L1xx_HAL_Driver/Src/stm32l1xx_hal_adc.c ****   
  48:Drivers/STM32L1xx_HAL_Driver/Src/stm32l1xx_hal_adc.c ****   (+) DMA request generation for transfer of conversions data of regular group.
  49:Drivers/STM32L1xx_HAL_Driver/Src/stm32l1xx_hal_adc.c ****   
  50:Drivers/STM32L1xx_HAL_Driver/Src/stm32l1xx_hal_adc.c ****   (+) ADC offset on injected channels
  51:Drivers/STM32L1xx_HAL_Driver/Src/stm32l1xx_hal_adc.c ****   
  52:Drivers/STM32L1xx_HAL_Driver/Src/stm32l1xx_hal_adc.c ****   (+) ADC supply requirements: 2.4 V to 3.6 V at full speed and down to 1.8 V at 
  53:Drivers/STM32L1xx_HAL_Driver/Src/stm32l1xx_hal_adc.c ****       slower speed.
  54:Drivers/STM32L1xx_HAL_Driver/Src/stm32l1xx_hal_adc.c ****   
  55:Drivers/STM32L1xx_HAL_Driver/Src/stm32l1xx_hal_adc.c ****   (+) ADC input range: from Vref- (connected to Vssa) to Vref+ (connected to 
  56:Drivers/STM32L1xx_HAL_Driver/Src/stm32l1xx_hal_adc.c ****       Vdda or to an external voltage reference).
  57:Drivers/STM32L1xx_HAL_Driver/Src/stm32l1xx_hal_adc.c ****   
  58:Drivers/STM32L1xx_HAL_Driver/Src/stm32l1xx_hal_adc.c ****   
  59:Drivers/STM32L1xx_HAL_Driver/Src/stm32l1xx_hal_adc.c ****                      ##### How to use this driver #####
  60:Drivers/STM32L1xx_HAL_Driver/Src/stm32l1xx_hal_adc.c ****   ==============================================================================
  61:Drivers/STM32L1xx_HAL_Driver/Src/stm32l1xx_hal_adc.c ****     [..]
  62:Drivers/STM32L1xx_HAL_Driver/Src/stm32l1xx_hal_adc.c **** 
  63:Drivers/STM32L1xx_HAL_Driver/Src/stm32l1xx_hal_adc.c ****      *** Configuration of top level parameters related to ADC ***
  64:Drivers/STM32L1xx_HAL_Driver/Src/stm32l1xx_hal_adc.c ****      ============================================================
  65:Drivers/STM32L1xx_HAL_Driver/Src/stm32l1xx_hal_adc.c ****      [..]
  66:Drivers/STM32L1xx_HAL_Driver/Src/stm32l1xx_hal_adc.c **** 
  67:Drivers/STM32L1xx_HAL_Driver/Src/stm32l1xx_hal_adc.c ****     (#) Enable the ADC interface
  68:Drivers/STM32L1xx_HAL_Driver/Src/stm32l1xx_hal_adc.c ****       (++) As prerequisite, ADC clock must be configured at RCC top level.
  69:Drivers/STM32L1xx_HAL_Driver/Src/stm32l1xx_hal_adc.c ****            Caution: On STM32L1, ADC clock frequency max is 16MHz (refer
  70:Drivers/STM32L1xx_HAL_Driver/Src/stm32l1xx_hal_adc.c ****                     to device datasheet).
  71:Drivers/STM32L1xx_HAL_Driver/Src/stm32l1xx_hal_adc.c ****                     Therefore, ADC clock prescaler must be configured in 
  72:Drivers/STM32L1xx_HAL_Driver/Src/stm32l1xx_hal_adc.c ****                     function of ADC clock source frequency to remain below
  73:Drivers/STM32L1xx_HAL_Driver/Src/stm32l1xx_hal_adc.c ****                     this maximum frequency.
  74:Drivers/STM32L1xx_HAL_Driver/Src/stm32l1xx_hal_adc.c **** 
  75:Drivers/STM32L1xx_HAL_Driver/Src/stm32l1xx_hal_adc.c ****         (++) Two clock settings are mandatory: 
  76:Drivers/STM32L1xx_HAL_Driver/Src/stm32l1xx_hal_adc.c ****              (+++) ADC clock (core clock).
  77:Drivers/STM32L1xx_HAL_Driver/Src/stm32l1xx_hal_adc.c ****              (+++) ADC clock (conversions clock).
  78:Drivers/STM32L1xx_HAL_Driver/Src/stm32l1xx_hal_adc.c ****                    Only one possible clock source: derived from HSI RC 16MHz oscillator
  79:Drivers/STM32L1xx_HAL_Driver/Src/stm32l1xx_hal_adc.c ****                    (HSI). 
  80:Drivers/STM32L1xx_HAL_Driver/Src/stm32l1xx_hal_adc.c ****                    ADC is connected directly to HSI RC 16MHz oscillator.
  81:Drivers/STM32L1xx_HAL_Driver/Src/stm32l1xx_hal_adc.c ****                    Therefore, RCC PLL setting has no impact on ADC.
  82:Drivers/STM32L1xx_HAL_Driver/Src/stm32l1xx_hal_adc.c ****                    PLL can be disabled (".PLL.PLLState = RCC_PLL_NONE") or 
  83:Drivers/STM32L1xx_HAL_Driver/Src/stm32l1xx_hal_adc.c ****                    enabled with HSI16 as clock source
  84:Drivers/STM32L1xx_HAL_Driver/Src/stm32l1xx_hal_adc.c ****                    (".PLL.PLLSource = RCC_PLLSOURCE_HSI") to be used as device 
  85:Drivers/STM32L1xx_HAL_Driver/Src/stm32l1xx_hal_adc.c ****                    main clock source SYSCLK.
  86:Drivers/STM32L1xx_HAL_Driver/Src/stm32l1xx_hal_adc.c ****                    The only mandatory setting is ".HSIState = RCC_HSI_ON"
  87:Drivers/STM32L1xx_HAL_Driver/Src/stm32l1xx_hal_adc.c **** 
  88:Drivers/STM32L1xx_HAL_Driver/Src/stm32l1xx_hal_adc.c ****              (+++) Example:
ARM GAS  C:\Users\cedri\AppData\Local\Temp\cc9WRHZF.s 			page 3


  89:Drivers/STM32L1xx_HAL_Driver/Src/stm32l1xx_hal_adc.c ****                    Into HAL_ADC_MspInit() (recommended code location) or with
  90:Drivers/STM32L1xx_HAL_Driver/Src/stm32l1xx_hal_adc.c ****                    other device clock parameters configuration:
  91:Drivers/STM32L1xx_HAL_Driver/Src/stm32l1xx_hal_adc.c ****                (+++) __HAL_RCC_ADC1_CLK_ENABLE();
  92:Drivers/STM32L1xx_HAL_Driver/Src/stm32l1xx_hal_adc.c **** 
  93:Drivers/STM32L1xx_HAL_Driver/Src/stm32l1xx_hal_adc.c ****                (+++) HAL_RCC_GetOscConfig(&RCC_OscInitStructure);
  94:Drivers/STM32L1xx_HAL_Driver/Src/stm32l1xx_hal_adc.c ****                (+++) RCC_OscInitStructure.OscillatorType = (... | RCC_OSCILLATORTYPE_HSI);
  95:Drivers/STM32L1xx_HAL_Driver/Src/stm32l1xx_hal_adc.c ****                (+++) RCC_OscInitStructure.HSIState = RCC_HSI_ON;
  96:Drivers/STM32L1xx_HAL_Driver/Src/stm32l1xx_hal_adc.c ****                (+++) RCC_OscInitStructure.HSICalibrationValue = RCC_HSICALIBRATION_DEFAULT;
  97:Drivers/STM32L1xx_HAL_Driver/Src/stm32l1xx_hal_adc.c ****                (+++) RCC_OscInitStructure.PLL.PLLState = RCC_PLL_NONE;
  98:Drivers/STM32L1xx_HAL_Driver/Src/stm32l1xx_hal_adc.c ****                (+++) RCC_OscInitStructure.PLL.PLLSource = ...
  99:Drivers/STM32L1xx_HAL_Driver/Src/stm32l1xx_hal_adc.c ****                (+++) RCC_OscInitStructure.PLL...
 100:Drivers/STM32L1xx_HAL_Driver/Src/stm32l1xx_hal_adc.c ****                (+++) HAL_RCC_OscConfig(&RCC_OscInitStructure);
 101:Drivers/STM32L1xx_HAL_Driver/Src/stm32l1xx_hal_adc.c **** 
 102:Drivers/STM32L1xx_HAL_Driver/Src/stm32l1xx_hal_adc.c ****         (++) ADC clock prescaler is configured at ADC level with
 103:Drivers/STM32L1xx_HAL_Driver/Src/stm32l1xx_hal_adc.c ****              parameter "ClockPrescaler" using function HAL_ADC_Init().
 104:Drivers/STM32L1xx_HAL_Driver/Src/stm32l1xx_hal_adc.c **** 
 105:Drivers/STM32L1xx_HAL_Driver/Src/stm32l1xx_hal_adc.c ****     (#) ADC pins configuration
 106:Drivers/STM32L1xx_HAL_Driver/Src/stm32l1xx_hal_adc.c ****          (++) Enable the clock for the ADC GPIOs
 107:Drivers/STM32L1xx_HAL_Driver/Src/stm32l1xx_hal_adc.c ****               using macro __HAL_RCC_GPIOx_CLK_ENABLE()
 108:Drivers/STM32L1xx_HAL_Driver/Src/stm32l1xx_hal_adc.c ****          (++) Configure these ADC pins in analog mode
 109:Drivers/STM32L1xx_HAL_Driver/Src/stm32l1xx_hal_adc.c ****               using function HAL_GPIO_Init()
 110:Drivers/STM32L1xx_HAL_Driver/Src/stm32l1xx_hal_adc.c **** 
 111:Drivers/STM32L1xx_HAL_Driver/Src/stm32l1xx_hal_adc.c ****     (#) Optionally, in case of usage of ADC with interruptions:
 112:Drivers/STM32L1xx_HAL_Driver/Src/stm32l1xx_hal_adc.c ****          (++) Configure the NVIC for ADC
 113:Drivers/STM32L1xx_HAL_Driver/Src/stm32l1xx_hal_adc.c ****               using function HAL_NVIC_EnableIRQ(ADCx_IRQn)
 114:Drivers/STM32L1xx_HAL_Driver/Src/stm32l1xx_hal_adc.c ****          (++) Insert the ADC interruption handler function HAL_ADC_IRQHandler() 
 115:Drivers/STM32L1xx_HAL_Driver/Src/stm32l1xx_hal_adc.c ****               into the function of corresponding ADC interruption vector 
 116:Drivers/STM32L1xx_HAL_Driver/Src/stm32l1xx_hal_adc.c ****               ADCx_IRQHandler().
 117:Drivers/STM32L1xx_HAL_Driver/Src/stm32l1xx_hal_adc.c **** 
 118:Drivers/STM32L1xx_HAL_Driver/Src/stm32l1xx_hal_adc.c ****     (#) Optionally, in case of usage of DMA:
 119:Drivers/STM32L1xx_HAL_Driver/Src/stm32l1xx_hal_adc.c ****          (++) Configure the DMA (DMA channel, mode normal or circular, ...)
 120:Drivers/STM32L1xx_HAL_Driver/Src/stm32l1xx_hal_adc.c ****               using function HAL_DMA_Init().
 121:Drivers/STM32L1xx_HAL_Driver/Src/stm32l1xx_hal_adc.c ****          (++) Configure the NVIC for DMA
 122:Drivers/STM32L1xx_HAL_Driver/Src/stm32l1xx_hal_adc.c ****               using function HAL_NVIC_EnableIRQ(DMAx_Channelx_IRQn)
 123:Drivers/STM32L1xx_HAL_Driver/Src/stm32l1xx_hal_adc.c ****          (++) Insert the ADC interruption handler function HAL_ADC_IRQHandler() 
 124:Drivers/STM32L1xx_HAL_Driver/Src/stm32l1xx_hal_adc.c ****               into the function of corresponding DMA interruption vector 
 125:Drivers/STM32L1xx_HAL_Driver/Src/stm32l1xx_hal_adc.c ****               DMAx_Channelx_IRQHandler().
 126:Drivers/STM32L1xx_HAL_Driver/Src/stm32l1xx_hal_adc.c **** 
 127:Drivers/STM32L1xx_HAL_Driver/Src/stm32l1xx_hal_adc.c ****      *** Configuration of ADC, groups regular/injected, channels parameters ***
 128:Drivers/STM32L1xx_HAL_Driver/Src/stm32l1xx_hal_adc.c ****      ==========================================================================
 129:Drivers/STM32L1xx_HAL_Driver/Src/stm32l1xx_hal_adc.c ****      [..]
 130:Drivers/STM32L1xx_HAL_Driver/Src/stm32l1xx_hal_adc.c **** 
 131:Drivers/STM32L1xx_HAL_Driver/Src/stm32l1xx_hal_adc.c ****     (#) Configure the ADC parameters (resolution, data alignment, ...)
 132:Drivers/STM32L1xx_HAL_Driver/Src/stm32l1xx_hal_adc.c ****         and regular group parameters (conversion trigger, sequencer, ...)
 133:Drivers/STM32L1xx_HAL_Driver/Src/stm32l1xx_hal_adc.c ****         using function HAL_ADC_Init().
 134:Drivers/STM32L1xx_HAL_Driver/Src/stm32l1xx_hal_adc.c **** 
 135:Drivers/STM32L1xx_HAL_Driver/Src/stm32l1xx_hal_adc.c ****     (#) Configure the channels for regular group parameters (channel number, 
 136:Drivers/STM32L1xx_HAL_Driver/Src/stm32l1xx_hal_adc.c ****         channel rank into sequencer, ..., into regular group)
 137:Drivers/STM32L1xx_HAL_Driver/Src/stm32l1xx_hal_adc.c ****         using function HAL_ADC_ConfigChannel().
 138:Drivers/STM32L1xx_HAL_Driver/Src/stm32l1xx_hal_adc.c **** 
 139:Drivers/STM32L1xx_HAL_Driver/Src/stm32l1xx_hal_adc.c ****     (#) Optionally, configure the injected group parameters (conversion trigger, 
 140:Drivers/STM32L1xx_HAL_Driver/Src/stm32l1xx_hal_adc.c ****         sequencer, ..., of injected group)
 141:Drivers/STM32L1xx_HAL_Driver/Src/stm32l1xx_hal_adc.c ****         and the channels for injected group parameters (channel number, 
 142:Drivers/STM32L1xx_HAL_Driver/Src/stm32l1xx_hal_adc.c ****         channel rank into sequencer, ..., into injected group)
 143:Drivers/STM32L1xx_HAL_Driver/Src/stm32l1xx_hal_adc.c ****         using function HAL_ADCEx_InjectedConfigChannel().
 144:Drivers/STM32L1xx_HAL_Driver/Src/stm32l1xx_hal_adc.c **** 
 145:Drivers/STM32L1xx_HAL_Driver/Src/stm32l1xx_hal_adc.c ****     (#) Optionally, configure the analog watchdog parameters (channels
ARM GAS  C:\Users\cedri\AppData\Local\Temp\cc9WRHZF.s 			page 4


 146:Drivers/STM32L1xx_HAL_Driver/Src/stm32l1xx_hal_adc.c ****         monitored, thresholds, ...)
 147:Drivers/STM32L1xx_HAL_Driver/Src/stm32l1xx_hal_adc.c ****         using function HAL_ADC_AnalogWDGConfig().
 148:Drivers/STM32L1xx_HAL_Driver/Src/stm32l1xx_hal_adc.c **** 
 149:Drivers/STM32L1xx_HAL_Driver/Src/stm32l1xx_hal_adc.c ****     (#) Optionally, for devices with several ADC instances: configure the 
 150:Drivers/STM32L1xx_HAL_Driver/Src/stm32l1xx_hal_adc.c ****         multimode parameters
 151:Drivers/STM32L1xx_HAL_Driver/Src/stm32l1xx_hal_adc.c ****         using function HAL_ADCEx_MultiModeConfigChannel().
 152:Drivers/STM32L1xx_HAL_Driver/Src/stm32l1xx_hal_adc.c **** 
 153:Drivers/STM32L1xx_HAL_Driver/Src/stm32l1xx_hal_adc.c ****      *** Execution of ADC conversions ***
 154:Drivers/STM32L1xx_HAL_Driver/Src/stm32l1xx_hal_adc.c ****      ====================================
 155:Drivers/STM32L1xx_HAL_Driver/Src/stm32l1xx_hal_adc.c ****      [..]
 156:Drivers/STM32L1xx_HAL_Driver/Src/stm32l1xx_hal_adc.c **** 
 157:Drivers/STM32L1xx_HAL_Driver/Src/stm32l1xx_hal_adc.c ****     (#) ADC driver can be used among three modes: polling, interruption,
 158:Drivers/STM32L1xx_HAL_Driver/Src/stm32l1xx_hal_adc.c ****         transfer by DMA.
 159:Drivers/STM32L1xx_HAL_Driver/Src/stm32l1xx_hal_adc.c **** 
 160:Drivers/STM32L1xx_HAL_Driver/Src/stm32l1xx_hal_adc.c ****         (++) ADC conversion by polling:
 161:Drivers/STM32L1xx_HAL_Driver/Src/stm32l1xx_hal_adc.c ****           (+++) Activate the ADC peripheral and start conversions
 162:Drivers/STM32L1xx_HAL_Driver/Src/stm32l1xx_hal_adc.c ****                 using function HAL_ADC_Start()
 163:Drivers/STM32L1xx_HAL_Driver/Src/stm32l1xx_hal_adc.c ****           (+++) Wait for ADC conversion completion 
 164:Drivers/STM32L1xx_HAL_Driver/Src/stm32l1xx_hal_adc.c ****                 using function HAL_ADC_PollForConversion()
 165:Drivers/STM32L1xx_HAL_Driver/Src/stm32l1xx_hal_adc.c ****                 (or for injected group: HAL_ADCEx_InjectedPollForConversion() )
 166:Drivers/STM32L1xx_HAL_Driver/Src/stm32l1xx_hal_adc.c ****           (+++) Retrieve conversion results 
 167:Drivers/STM32L1xx_HAL_Driver/Src/stm32l1xx_hal_adc.c ****                 using function HAL_ADC_GetValue()
 168:Drivers/STM32L1xx_HAL_Driver/Src/stm32l1xx_hal_adc.c ****                 (or for injected group: HAL_ADCEx_InjectedGetValue() )
 169:Drivers/STM32L1xx_HAL_Driver/Src/stm32l1xx_hal_adc.c ****           (+++) Stop conversion and disable the ADC peripheral 
 170:Drivers/STM32L1xx_HAL_Driver/Src/stm32l1xx_hal_adc.c ****                 using function HAL_ADC_Stop()
 171:Drivers/STM32L1xx_HAL_Driver/Src/stm32l1xx_hal_adc.c **** 
 172:Drivers/STM32L1xx_HAL_Driver/Src/stm32l1xx_hal_adc.c ****         (++) ADC conversion by interruption: 
 173:Drivers/STM32L1xx_HAL_Driver/Src/stm32l1xx_hal_adc.c ****           (+++) Activate the ADC peripheral and start conversions
 174:Drivers/STM32L1xx_HAL_Driver/Src/stm32l1xx_hal_adc.c ****                 using function HAL_ADC_Start_IT()
 175:Drivers/STM32L1xx_HAL_Driver/Src/stm32l1xx_hal_adc.c ****           (+++) Wait for ADC conversion completion by call of function
 176:Drivers/STM32L1xx_HAL_Driver/Src/stm32l1xx_hal_adc.c ****                 HAL_ADC_ConvCpltCallback()
 177:Drivers/STM32L1xx_HAL_Driver/Src/stm32l1xx_hal_adc.c ****                 (this function must be implemented in user program)
 178:Drivers/STM32L1xx_HAL_Driver/Src/stm32l1xx_hal_adc.c ****                 (or for injected group: HAL_ADCEx_InjectedConvCpltCallback() )
 179:Drivers/STM32L1xx_HAL_Driver/Src/stm32l1xx_hal_adc.c ****           (+++) Retrieve conversion results 
 180:Drivers/STM32L1xx_HAL_Driver/Src/stm32l1xx_hal_adc.c ****                 using function HAL_ADC_GetValue()
 181:Drivers/STM32L1xx_HAL_Driver/Src/stm32l1xx_hal_adc.c ****                 (or for injected group: HAL_ADCEx_InjectedGetValue() )
 182:Drivers/STM32L1xx_HAL_Driver/Src/stm32l1xx_hal_adc.c ****           (+++) Stop conversion and disable the ADC peripheral 
 183:Drivers/STM32L1xx_HAL_Driver/Src/stm32l1xx_hal_adc.c ****                 using function HAL_ADC_Stop_IT()
 184:Drivers/STM32L1xx_HAL_Driver/Src/stm32l1xx_hal_adc.c **** 
 185:Drivers/STM32L1xx_HAL_Driver/Src/stm32l1xx_hal_adc.c ****         (++) ADC conversion with transfer by DMA:
 186:Drivers/STM32L1xx_HAL_Driver/Src/stm32l1xx_hal_adc.c ****           (+++) Activate the ADC peripheral and start conversions
 187:Drivers/STM32L1xx_HAL_Driver/Src/stm32l1xx_hal_adc.c ****                 using function HAL_ADC_Start_DMA()
 188:Drivers/STM32L1xx_HAL_Driver/Src/stm32l1xx_hal_adc.c ****           (+++) Wait for ADC conversion completion by call of function
 189:Drivers/STM32L1xx_HAL_Driver/Src/stm32l1xx_hal_adc.c ****                 HAL_ADC_ConvCpltCallback() or HAL_ADC_ConvHalfCpltCallback()
 190:Drivers/STM32L1xx_HAL_Driver/Src/stm32l1xx_hal_adc.c ****                 (these functions must be implemented in user program)
 191:Drivers/STM32L1xx_HAL_Driver/Src/stm32l1xx_hal_adc.c ****           (+++) Conversion results are automatically transferred by DMA into
 192:Drivers/STM32L1xx_HAL_Driver/Src/stm32l1xx_hal_adc.c ****                 destination variable address.
 193:Drivers/STM32L1xx_HAL_Driver/Src/stm32l1xx_hal_adc.c ****           (+++) Stop conversion and disable the ADC peripheral 
 194:Drivers/STM32L1xx_HAL_Driver/Src/stm32l1xx_hal_adc.c ****                 using function HAL_ADC_Stop_DMA()
 195:Drivers/STM32L1xx_HAL_Driver/Src/stm32l1xx_hal_adc.c **** 
 196:Drivers/STM32L1xx_HAL_Driver/Src/stm32l1xx_hal_adc.c ****         (++) For devices with several ADCs: ADC multimode conversion 
 197:Drivers/STM32L1xx_HAL_Driver/Src/stm32l1xx_hal_adc.c ****              with transfer by DMA:
 198:Drivers/STM32L1xx_HAL_Driver/Src/stm32l1xx_hal_adc.c ****           (+++) Activate the ADC peripheral (slave) and start conversions
 199:Drivers/STM32L1xx_HAL_Driver/Src/stm32l1xx_hal_adc.c ****                 using function HAL_ADC_Start()
 200:Drivers/STM32L1xx_HAL_Driver/Src/stm32l1xx_hal_adc.c ****           (+++) Activate the ADC peripheral (master) and start conversions
 201:Drivers/STM32L1xx_HAL_Driver/Src/stm32l1xx_hal_adc.c ****                 using function HAL_ADCEx_MultiModeStart_DMA()
 202:Drivers/STM32L1xx_HAL_Driver/Src/stm32l1xx_hal_adc.c ****           (+++) Wait for ADC conversion completion by call of function
ARM GAS  C:\Users\cedri\AppData\Local\Temp\cc9WRHZF.s 			page 5


 203:Drivers/STM32L1xx_HAL_Driver/Src/stm32l1xx_hal_adc.c ****                 HAL_ADC_ConvCpltCallback() or HAL_ADC_ConvHalfCpltCallback()
 204:Drivers/STM32L1xx_HAL_Driver/Src/stm32l1xx_hal_adc.c ****                 (these functions must be implemented in user program)
 205:Drivers/STM32L1xx_HAL_Driver/Src/stm32l1xx_hal_adc.c ****           (+++) Conversion results are automatically transferred by DMA into
 206:Drivers/STM32L1xx_HAL_Driver/Src/stm32l1xx_hal_adc.c ****                 destination variable address.
 207:Drivers/STM32L1xx_HAL_Driver/Src/stm32l1xx_hal_adc.c ****           (+++) Stop conversion and disable the ADC peripheral (master)
 208:Drivers/STM32L1xx_HAL_Driver/Src/stm32l1xx_hal_adc.c ****                 using function HAL_ADCEx_MultiModeStop_DMA()
 209:Drivers/STM32L1xx_HAL_Driver/Src/stm32l1xx_hal_adc.c ****           (+++) Stop conversion and disable the ADC peripheral (slave)
 210:Drivers/STM32L1xx_HAL_Driver/Src/stm32l1xx_hal_adc.c ****                 using function HAL_ADC_Stop_IT()
 211:Drivers/STM32L1xx_HAL_Driver/Src/stm32l1xx_hal_adc.c **** 
 212:Drivers/STM32L1xx_HAL_Driver/Src/stm32l1xx_hal_adc.c ****      [..]
 213:Drivers/STM32L1xx_HAL_Driver/Src/stm32l1xx_hal_adc.c **** 
 214:Drivers/STM32L1xx_HAL_Driver/Src/stm32l1xx_hal_adc.c ****     (@) Callback functions must be implemented in user program:
 215:Drivers/STM32L1xx_HAL_Driver/Src/stm32l1xx_hal_adc.c ****       (+@) HAL_ADC_ErrorCallback()
 216:Drivers/STM32L1xx_HAL_Driver/Src/stm32l1xx_hal_adc.c ****       (+@) HAL_ADC_LevelOutOfWindowCallback() (callback of analog watchdog)
 217:Drivers/STM32L1xx_HAL_Driver/Src/stm32l1xx_hal_adc.c ****       (+@) HAL_ADC_ConvCpltCallback()
 218:Drivers/STM32L1xx_HAL_Driver/Src/stm32l1xx_hal_adc.c ****       (+@) HAL_ADC_ConvHalfCpltCallback
 219:Drivers/STM32L1xx_HAL_Driver/Src/stm32l1xx_hal_adc.c ****       (+@) HAL_ADCEx_InjectedConvCpltCallback()
 220:Drivers/STM32L1xx_HAL_Driver/Src/stm32l1xx_hal_adc.c **** 
 221:Drivers/STM32L1xx_HAL_Driver/Src/stm32l1xx_hal_adc.c ****      *** Deinitialization of ADC ***
 222:Drivers/STM32L1xx_HAL_Driver/Src/stm32l1xx_hal_adc.c ****      ============================================================
 223:Drivers/STM32L1xx_HAL_Driver/Src/stm32l1xx_hal_adc.c ****      [..]
 224:Drivers/STM32L1xx_HAL_Driver/Src/stm32l1xx_hal_adc.c **** 
 225:Drivers/STM32L1xx_HAL_Driver/Src/stm32l1xx_hal_adc.c ****     (#) Disable the ADC interface
 226:Drivers/STM32L1xx_HAL_Driver/Src/stm32l1xx_hal_adc.c ****       (++) ADC clock can be hard reset and disabled at RCC top level.
 227:Drivers/STM32L1xx_HAL_Driver/Src/stm32l1xx_hal_adc.c ****         (++) Hard reset of ADC peripherals
 228:Drivers/STM32L1xx_HAL_Driver/Src/stm32l1xx_hal_adc.c ****              using macro __ADCx_FORCE_RESET(), __ADCx_RELEASE_RESET().
 229:Drivers/STM32L1xx_HAL_Driver/Src/stm32l1xx_hal_adc.c ****         (++) ADC clock disable
 230:Drivers/STM32L1xx_HAL_Driver/Src/stm32l1xx_hal_adc.c ****              using the equivalent macro/functions as configuration step.
 231:Drivers/STM32L1xx_HAL_Driver/Src/stm32l1xx_hal_adc.c ****              (+++) Example:
 232:Drivers/STM32L1xx_HAL_Driver/Src/stm32l1xx_hal_adc.c ****                    Into HAL_ADC_MspDeInit() (recommended code location) or with
 233:Drivers/STM32L1xx_HAL_Driver/Src/stm32l1xx_hal_adc.c ****                    other device clock parameters configuration:
 234:Drivers/STM32L1xx_HAL_Driver/Src/stm32l1xx_hal_adc.c ****                (+++) HAL_RCC_GetOscConfig(&RCC_OscInitStructure);
 235:Drivers/STM32L1xx_HAL_Driver/Src/stm32l1xx_hal_adc.c ****                (+++) RCC_OscInitStructure.OscillatorType = RCC_OSCILLATORTYPE_HSI;
 236:Drivers/STM32L1xx_HAL_Driver/Src/stm32l1xx_hal_adc.c ****                (+++) RCC_OscInitStructure.HSIState = RCC_HSI_OFF; (if not used for system clock)
 237:Drivers/STM32L1xx_HAL_Driver/Src/stm32l1xx_hal_adc.c ****                (+++) HAL_RCC_OscConfig(&RCC_OscInitStructure);
 238:Drivers/STM32L1xx_HAL_Driver/Src/stm32l1xx_hal_adc.c **** 
 239:Drivers/STM32L1xx_HAL_Driver/Src/stm32l1xx_hal_adc.c ****     (#) ADC pins configuration
 240:Drivers/STM32L1xx_HAL_Driver/Src/stm32l1xx_hal_adc.c ****          (++) Disable the clock for the ADC GPIOs
 241:Drivers/STM32L1xx_HAL_Driver/Src/stm32l1xx_hal_adc.c ****               using macro __HAL_RCC_GPIOx_CLK_DISABLE()
 242:Drivers/STM32L1xx_HAL_Driver/Src/stm32l1xx_hal_adc.c **** 
 243:Drivers/STM32L1xx_HAL_Driver/Src/stm32l1xx_hal_adc.c ****     (#) Optionally, in case of usage of ADC with interruptions:
 244:Drivers/STM32L1xx_HAL_Driver/Src/stm32l1xx_hal_adc.c ****          (++) Disable the NVIC for ADC
 245:Drivers/STM32L1xx_HAL_Driver/Src/stm32l1xx_hal_adc.c ****               using function HAL_NVIC_EnableIRQ(ADCx_IRQn)
 246:Drivers/STM32L1xx_HAL_Driver/Src/stm32l1xx_hal_adc.c **** 
 247:Drivers/STM32L1xx_HAL_Driver/Src/stm32l1xx_hal_adc.c ****     (#) Optionally, in case of usage of DMA:
 248:Drivers/STM32L1xx_HAL_Driver/Src/stm32l1xx_hal_adc.c ****          (++) Deinitialize the DMA
 249:Drivers/STM32L1xx_HAL_Driver/Src/stm32l1xx_hal_adc.c ****               using function HAL_DMA_Init().
 250:Drivers/STM32L1xx_HAL_Driver/Src/stm32l1xx_hal_adc.c ****          (++) Disable the NVIC for DMA
 251:Drivers/STM32L1xx_HAL_Driver/Src/stm32l1xx_hal_adc.c ****               using function HAL_NVIC_EnableIRQ(DMAx_Channelx_IRQn)
 252:Drivers/STM32L1xx_HAL_Driver/Src/stm32l1xx_hal_adc.c **** 
 253:Drivers/STM32L1xx_HAL_Driver/Src/stm32l1xx_hal_adc.c ****     [..]
 254:Drivers/STM32L1xx_HAL_Driver/Src/stm32l1xx_hal_adc.c ****     
 255:Drivers/STM32L1xx_HAL_Driver/Src/stm32l1xx_hal_adc.c ****     *** Callback registration ***
 256:Drivers/STM32L1xx_HAL_Driver/Src/stm32l1xx_hal_adc.c ****     =============================================
 257:Drivers/STM32L1xx_HAL_Driver/Src/stm32l1xx_hal_adc.c ****     [..]
 258:Drivers/STM32L1xx_HAL_Driver/Src/stm32l1xx_hal_adc.c **** 
 259:Drivers/STM32L1xx_HAL_Driver/Src/stm32l1xx_hal_adc.c ****      The compilation flag USE_HAL_ADC_REGISTER_CALLBACKS, when set to 1,
ARM GAS  C:\Users\cedri\AppData\Local\Temp\cc9WRHZF.s 			page 6


 260:Drivers/STM32L1xx_HAL_Driver/Src/stm32l1xx_hal_adc.c ****      allows the user to configure dynamically the driver callbacks.
 261:Drivers/STM32L1xx_HAL_Driver/Src/stm32l1xx_hal_adc.c ****      Use Functions HAL_ADC_RegisterCallback()
 262:Drivers/STM32L1xx_HAL_Driver/Src/stm32l1xx_hal_adc.c ****      to register an interrupt callback.
 263:Drivers/STM32L1xx_HAL_Driver/Src/stm32l1xx_hal_adc.c ****     [..]
 264:Drivers/STM32L1xx_HAL_Driver/Src/stm32l1xx_hal_adc.c **** 
 265:Drivers/STM32L1xx_HAL_Driver/Src/stm32l1xx_hal_adc.c ****      Function HAL_ADC_RegisterCallback() allows to register following callbacks:
 266:Drivers/STM32L1xx_HAL_Driver/Src/stm32l1xx_hal_adc.c ****        (+) ConvCpltCallback               : ADC conversion complete callback
 267:Drivers/STM32L1xx_HAL_Driver/Src/stm32l1xx_hal_adc.c ****        (+) ConvHalfCpltCallback           : ADC conversion DMA half-transfer callback
 268:Drivers/STM32L1xx_HAL_Driver/Src/stm32l1xx_hal_adc.c ****        (+) LevelOutOfWindowCallback       : ADC analog watchdog 1 callback
 269:Drivers/STM32L1xx_HAL_Driver/Src/stm32l1xx_hal_adc.c ****        (+) ErrorCallback                  : ADC error callback
 270:Drivers/STM32L1xx_HAL_Driver/Src/stm32l1xx_hal_adc.c ****        (+) InjectedConvCpltCallback       : ADC group injected conversion complete callback
 271:Drivers/STM32L1xx_HAL_Driver/Src/stm32l1xx_hal_adc.c ****        (+) MspInitCallback                : ADC Msp Init callback
 272:Drivers/STM32L1xx_HAL_Driver/Src/stm32l1xx_hal_adc.c ****        (+) MspDeInitCallback              : ADC Msp DeInit callback
 273:Drivers/STM32L1xx_HAL_Driver/Src/stm32l1xx_hal_adc.c ****      This function takes as parameters the HAL peripheral handle, the Callback ID
 274:Drivers/STM32L1xx_HAL_Driver/Src/stm32l1xx_hal_adc.c ****      and a pointer to the user callback function.
 275:Drivers/STM32L1xx_HAL_Driver/Src/stm32l1xx_hal_adc.c ****     [..]
 276:Drivers/STM32L1xx_HAL_Driver/Src/stm32l1xx_hal_adc.c **** 
 277:Drivers/STM32L1xx_HAL_Driver/Src/stm32l1xx_hal_adc.c ****      Use function HAL_ADC_UnRegisterCallback to reset a callback to the default
 278:Drivers/STM32L1xx_HAL_Driver/Src/stm32l1xx_hal_adc.c ****      weak function.
 279:Drivers/STM32L1xx_HAL_Driver/Src/stm32l1xx_hal_adc.c ****     [..]
 280:Drivers/STM32L1xx_HAL_Driver/Src/stm32l1xx_hal_adc.c **** 
 281:Drivers/STM32L1xx_HAL_Driver/Src/stm32l1xx_hal_adc.c ****      HAL_ADC_UnRegisterCallback takes as parameters the HAL peripheral handle,
 282:Drivers/STM32L1xx_HAL_Driver/Src/stm32l1xx_hal_adc.c ****      and the Callback ID.
 283:Drivers/STM32L1xx_HAL_Driver/Src/stm32l1xx_hal_adc.c ****      This function allows to reset following callbacks:
 284:Drivers/STM32L1xx_HAL_Driver/Src/stm32l1xx_hal_adc.c ****        (+) ConvCpltCallback               : ADC conversion complete callback
 285:Drivers/STM32L1xx_HAL_Driver/Src/stm32l1xx_hal_adc.c ****        (+) ConvHalfCpltCallback           : ADC conversion DMA half-transfer callback
 286:Drivers/STM32L1xx_HAL_Driver/Src/stm32l1xx_hal_adc.c ****        (+) LevelOutOfWindowCallback       : ADC analog watchdog 1 callback
 287:Drivers/STM32L1xx_HAL_Driver/Src/stm32l1xx_hal_adc.c ****        (+) ErrorCallback                  : ADC error callback
 288:Drivers/STM32L1xx_HAL_Driver/Src/stm32l1xx_hal_adc.c ****        (+) InjectedConvCpltCallback       : ADC group injected conversion complete callback
 289:Drivers/STM32L1xx_HAL_Driver/Src/stm32l1xx_hal_adc.c ****        (+) MspInitCallback                : ADC Msp Init callback
 290:Drivers/STM32L1xx_HAL_Driver/Src/stm32l1xx_hal_adc.c ****        (+) MspDeInitCallback              : ADC Msp DeInit callback
 291:Drivers/STM32L1xx_HAL_Driver/Src/stm32l1xx_hal_adc.c ****      [..]
 292:Drivers/STM32L1xx_HAL_Driver/Src/stm32l1xx_hal_adc.c **** 
 293:Drivers/STM32L1xx_HAL_Driver/Src/stm32l1xx_hal_adc.c ****      By default, after the HAL_ADC_Init() and when the state is HAL_ADC_STATE_RESET
 294:Drivers/STM32L1xx_HAL_Driver/Src/stm32l1xx_hal_adc.c ****      all callbacks are set to the corresponding weak functions:
 295:Drivers/STM32L1xx_HAL_Driver/Src/stm32l1xx_hal_adc.c ****      examples HAL_ADC_ConvCpltCallback(), HAL_ADC_ErrorCallback().
 296:Drivers/STM32L1xx_HAL_Driver/Src/stm32l1xx_hal_adc.c ****      Exception done for MspInit and MspDeInit functions that are
 297:Drivers/STM32L1xx_HAL_Driver/Src/stm32l1xx_hal_adc.c ****      reset to the legacy weak functions in the HAL_ADC_Init()/ HAL_ADC_DeInit() only when
 298:Drivers/STM32L1xx_HAL_Driver/Src/stm32l1xx_hal_adc.c ****      these callbacks are null (not registered beforehand).
 299:Drivers/STM32L1xx_HAL_Driver/Src/stm32l1xx_hal_adc.c ****     [..]
 300:Drivers/STM32L1xx_HAL_Driver/Src/stm32l1xx_hal_adc.c **** 
 301:Drivers/STM32L1xx_HAL_Driver/Src/stm32l1xx_hal_adc.c ****      If MspInit or MspDeInit are not null, the HAL_ADC_Init()/ HAL_ADC_DeInit()
 302:Drivers/STM32L1xx_HAL_Driver/Src/stm32l1xx_hal_adc.c ****      keep and use the user MspInit/MspDeInit callbacks (registered beforehand) whatever the state.
 303:Drivers/STM32L1xx_HAL_Driver/Src/stm32l1xx_hal_adc.c ****      [..]
 304:Drivers/STM32L1xx_HAL_Driver/Src/stm32l1xx_hal_adc.c **** 
 305:Drivers/STM32L1xx_HAL_Driver/Src/stm32l1xx_hal_adc.c ****      Callbacks can be registered/unregistered in HAL_ADC_STATE_READY state only.
 306:Drivers/STM32L1xx_HAL_Driver/Src/stm32l1xx_hal_adc.c ****      Exception done MspInit/MspDeInit functions that can be registered/unregistered
 307:Drivers/STM32L1xx_HAL_Driver/Src/stm32l1xx_hal_adc.c ****      in HAL_ADC_STATE_READY or HAL_ADC_STATE_RESET state,
 308:Drivers/STM32L1xx_HAL_Driver/Src/stm32l1xx_hal_adc.c ****      thus registered (user) MspInit/DeInit callbacks can be used during the Init/DeInit.
 309:Drivers/STM32L1xx_HAL_Driver/Src/stm32l1xx_hal_adc.c ****     [..]
 310:Drivers/STM32L1xx_HAL_Driver/Src/stm32l1xx_hal_adc.c **** 
 311:Drivers/STM32L1xx_HAL_Driver/Src/stm32l1xx_hal_adc.c ****      Then, the user first registers the MspInit/MspDeInit user callbacks
 312:Drivers/STM32L1xx_HAL_Driver/Src/stm32l1xx_hal_adc.c ****      using HAL_ADC_RegisterCallback() before calling HAL_ADC_DeInit()
 313:Drivers/STM32L1xx_HAL_Driver/Src/stm32l1xx_hal_adc.c ****      or HAL_ADC_Init() function.
 314:Drivers/STM32L1xx_HAL_Driver/Src/stm32l1xx_hal_adc.c ****      [..]
 315:Drivers/STM32L1xx_HAL_Driver/Src/stm32l1xx_hal_adc.c **** 
 316:Drivers/STM32L1xx_HAL_Driver/Src/stm32l1xx_hal_adc.c ****      When the compilation flag USE_HAL_ADC_REGISTER_CALLBACKS is set to 0 or
ARM GAS  C:\Users\cedri\AppData\Local\Temp\cc9WRHZF.s 			page 7


 317:Drivers/STM32L1xx_HAL_Driver/Src/stm32l1xx_hal_adc.c ****      not defined, the callback registration feature is not available and all callbacks
 318:Drivers/STM32L1xx_HAL_Driver/Src/stm32l1xx_hal_adc.c ****      are set to the corresponding weak functions.
 319:Drivers/STM32L1xx_HAL_Driver/Src/stm32l1xx_hal_adc.c ****   
 320:Drivers/STM32L1xx_HAL_Driver/Src/stm32l1xx_hal_adc.c ****   @endverbatim
 321:Drivers/STM32L1xx_HAL_Driver/Src/stm32l1xx_hal_adc.c ****   */
 322:Drivers/STM32L1xx_HAL_Driver/Src/stm32l1xx_hal_adc.c **** 
 323:Drivers/STM32L1xx_HAL_Driver/Src/stm32l1xx_hal_adc.c **** /* Includes ------------------------------------------------------------------*/
 324:Drivers/STM32L1xx_HAL_Driver/Src/stm32l1xx_hal_adc.c **** #include "stm32l1xx_hal.h"
 325:Drivers/STM32L1xx_HAL_Driver/Src/stm32l1xx_hal_adc.c **** 
 326:Drivers/STM32L1xx_HAL_Driver/Src/stm32l1xx_hal_adc.c **** /** @addtogroup STM32L1xx_HAL_Driver
 327:Drivers/STM32L1xx_HAL_Driver/Src/stm32l1xx_hal_adc.c ****   * @{
 328:Drivers/STM32L1xx_HAL_Driver/Src/stm32l1xx_hal_adc.c ****   */
 329:Drivers/STM32L1xx_HAL_Driver/Src/stm32l1xx_hal_adc.c **** 
 330:Drivers/STM32L1xx_HAL_Driver/Src/stm32l1xx_hal_adc.c **** /** @defgroup ADC ADC
 331:Drivers/STM32L1xx_HAL_Driver/Src/stm32l1xx_hal_adc.c ****   * @brief ADC HAL module driver
 332:Drivers/STM32L1xx_HAL_Driver/Src/stm32l1xx_hal_adc.c ****   * @{
 333:Drivers/STM32L1xx_HAL_Driver/Src/stm32l1xx_hal_adc.c ****   */
 334:Drivers/STM32L1xx_HAL_Driver/Src/stm32l1xx_hal_adc.c **** 
 335:Drivers/STM32L1xx_HAL_Driver/Src/stm32l1xx_hal_adc.c **** #ifdef HAL_ADC_MODULE_ENABLED
 336:Drivers/STM32L1xx_HAL_Driver/Src/stm32l1xx_hal_adc.c **** 
 337:Drivers/STM32L1xx_HAL_Driver/Src/stm32l1xx_hal_adc.c **** /* Private typedef -----------------------------------------------------------*/
 338:Drivers/STM32L1xx_HAL_Driver/Src/stm32l1xx_hal_adc.c **** /* Private define ------------------------------------------------------------*/
 339:Drivers/STM32L1xx_HAL_Driver/Src/stm32l1xx_hal_adc.c **** /** @defgroup ADC_Private_Constants ADC Private Constants
 340:Drivers/STM32L1xx_HAL_Driver/Src/stm32l1xx_hal_adc.c ****   * @{
 341:Drivers/STM32L1xx_HAL_Driver/Src/stm32l1xx_hal_adc.c ****   */
 342:Drivers/STM32L1xx_HAL_Driver/Src/stm32l1xx_hal_adc.c **** 
 343:Drivers/STM32L1xx_HAL_Driver/Src/stm32l1xx_hal_adc.c ****   /* Timeout values for ADC enable and disable settling time.                 */
 344:Drivers/STM32L1xx_HAL_Driver/Src/stm32l1xx_hal_adc.c ****   /* Values defined to be higher than worst cases: low clocks freq,           */
 345:Drivers/STM32L1xx_HAL_Driver/Src/stm32l1xx_hal_adc.c ****   /* maximum prescaler.                                                       */
 346:Drivers/STM32L1xx_HAL_Driver/Src/stm32l1xx_hal_adc.c ****   /* Ex of profile low frequency : Clock source at 0.1 MHz, ADC clock         */
 347:Drivers/STM32L1xx_HAL_Driver/Src/stm32l1xx_hal_adc.c ****   /* prescaler 4, sampling time 7.5 ADC clock cycles, resolution 12 bits.     */
 348:Drivers/STM32L1xx_HAL_Driver/Src/stm32l1xx_hal_adc.c ****   /* Unit: ms                                                                 */
 349:Drivers/STM32L1xx_HAL_Driver/Src/stm32l1xx_hal_adc.c ****   #define ADC_ENABLE_TIMEOUT              (2U)
 350:Drivers/STM32L1xx_HAL_Driver/Src/stm32l1xx_hal_adc.c ****   #define ADC_DISABLE_TIMEOUT             (2U)
 351:Drivers/STM32L1xx_HAL_Driver/Src/stm32l1xx_hal_adc.c **** 
 352:Drivers/STM32L1xx_HAL_Driver/Src/stm32l1xx_hal_adc.c ****   /* Delay for ADC stabilization time.                                        */
 353:Drivers/STM32L1xx_HAL_Driver/Src/stm32l1xx_hal_adc.c ****   /* Maximum delay is 1us (refer to device datasheet, parameter tSTAB).       */
 354:Drivers/STM32L1xx_HAL_Driver/Src/stm32l1xx_hal_adc.c ****   /* Unit: us                                                                 */
 355:Drivers/STM32L1xx_HAL_Driver/Src/stm32l1xx_hal_adc.c ****   #define ADC_STAB_DELAY_US               (3U)
 356:Drivers/STM32L1xx_HAL_Driver/Src/stm32l1xx_hal_adc.c **** 
 357:Drivers/STM32L1xx_HAL_Driver/Src/stm32l1xx_hal_adc.c ****   /* Delay for temperature sensor stabilization time.                         */
 358:Drivers/STM32L1xx_HAL_Driver/Src/stm32l1xx_hal_adc.c ****   /* Maximum delay is 10us (refer to device datasheet, parameter tSTART).     */
 359:Drivers/STM32L1xx_HAL_Driver/Src/stm32l1xx_hal_adc.c ****   /* Unit: us                                                                 */
 360:Drivers/STM32L1xx_HAL_Driver/Src/stm32l1xx_hal_adc.c ****   #define ADC_TEMPSENSOR_DELAY_US         (10U)
 361:Drivers/STM32L1xx_HAL_Driver/Src/stm32l1xx_hal_adc.c **** 
 362:Drivers/STM32L1xx_HAL_Driver/Src/stm32l1xx_hal_adc.c **** /**
 363:Drivers/STM32L1xx_HAL_Driver/Src/stm32l1xx_hal_adc.c ****   * @}
 364:Drivers/STM32L1xx_HAL_Driver/Src/stm32l1xx_hal_adc.c ****   */
 365:Drivers/STM32L1xx_HAL_Driver/Src/stm32l1xx_hal_adc.c **** 
 366:Drivers/STM32L1xx_HAL_Driver/Src/stm32l1xx_hal_adc.c **** /* Private macro -------------------------------------------------------------*/
 367:Drivers/STM32L1xx_HAL_Driver/Src/stm32l1xx_hal_adc.c **** /* Private variables ---------------------------------------------------------*/
 368:Drivers/STM32L1xx_HAL_Driver/Src/stm32l1xx_hal_adc.c **** /* Private function prototypes -----------------------------------------------*/
 369:Drivers/STM32L1xx_HAL_Driver/Src/stm32l1xx_hal_adc.c **** /** @defgroup ADC_Private_Functions ADC Private Functions
 370:Drivers/STM32L1xx_HAL_Driver/Src/stm32l1xx_hal_adc.c ****   * @{
 371:Drivers/STM32L1xx_HAL_Driver/Src/stm32l1xx_hal_adc.c ****   */
 372:Drivers/STM32L1xx_HAL_Driver/Src/stm32l1xx_hal_adc.c **** static void ADC_DMAConvCplt(DMA_HandleTypeDef *hdma);
 373:Drivers/STM32L1xx_HAL_Driver/Src/stm32l1xx_hal_adc.c **** static void ADC_DMAHalfConvCplt(DMA_HandleTypeDef *hdma);
ARM GAS  C:\Users\cedri\AppData\Local\Temp\cc9WRHZF.s 			page 8


 374:Drivers/STM32L1xx_HAL_Driver/Src/stm32l1xx_hal_adc.c **** static void ADC_DMAError(DMA_HandleTypeDef *hdma);
 375:Drivers/STM32L1xx_HAL_Driver/Src/stm32l1xx_hal_adc.c **** /**
 376:Drivers/STM32L1xx_HAL_Driver/Src/stm32l1xx_hal_adc.c ****   * @}
 377:Drivers/STM32L1xx_HAL_Driver/Src/stm32l1xx_hal_adc.c ****   */
 378:Drivers/STM32L1xx_HAL_Driver/Src/stm32l1xx_hal_adc.c **** 
 379:Drivers/STM32L1xx_HAL_Driver/Src/stm32l1xx_hal_adc.c **** /* Exported functions --------------------------------------------------------*/
 380:Drivers/STM32L1xx_HAL_Driver/Src/stm32l1xx_hal_adc.c **** 
 381:Drivers/STM32L1xx_HAL_Driver/Src/stm32l1xx_hal_adc.c **** /** @defgroup ADC_Exported_Functions ADC Exported Functions
 382:Drivers/STM32L1xx_HAL_Driver/Src/stm32l1xx_hal_adc.c ****   * @{
 383:Drivers/STM32L1xx_HAL_Driver/Src/stm32l1xx_hal_adc.c ****   */
 384:Drivers/STM32L1xx_HAL_Driver/Src/stm32l1xx_hal_adc.c **** 
 385:Drivers/STM32L1xx_HAL_Driver/Src/stm32l1xx_hal_adc.c **** /** @defgroup ADC_Exported_Functions_Group1 ADC Initialization/de-initialization functions 
 386:Drivers/STM32L1xx_HAL_Driver/Src/stm32l1xx_hal_adc.c ****   * @brief    ADC Initialization and Configuration functions
 387:Drivers/STM32L1xx_HAL_Driver/Src/stm32l1xx_hal_adc.c ****   *
 388:Drivers/STM32L1xx_HAL_Driver/Src/stm32l1xx_hal_adc.c **** @verbatim    
 389:Drivers/STM32L1xx_HAL_Driver/Src/stm32l1xx_hal_adc.c ****  ===============================================================================
 390:Drivers/STM32L1xx_HAL_Driver/Src/stm32l1xx_hal_adc.c ****               ##### Initialization and de-initialization functions #####
 391:Drivers/STM32L1xx_HAL_Driver/Src/stm32l1xx_hal_adc.c ****  ===============================================================================
 392:Drivers/STM32L1xx_HAL_Driver/Src/stm32l1xx_hal_adc.c ****     [..]  This section provides functions allowing to:
 393:Drivers/STM32L1xx_HAL_Driver/Src/stm32l1xx_hal_adc.c ****       (+) Initialize and configure the ADC. 
 394:Drivers/STM32L1xx_HAL_Driver/Src/stm32l1xx_hal_adc.c ****       (+) De-initialize the ADC.
 395:Drivers/STM32L1xx_HAL_Driver/Src/stm32l1xx_hal_adc.c **** @endverbatim
 396:Drivers/STM32L1xx_HAL_Driver/Src/stm32l1xx_hal_adc.c ****   * @{
 397:Drivers/STM32L1xx_HAL_Driver/Src/stm32l1xx_hal_adc.c ****   */
 398:Drivers/STM32L1xx_HAL_Driver/Src/stm32l1xx_hal_adc.c **** 
 399:Drivers/STM32L1xx_HAL_Driver/Src/stm32l1xx_hal_adc.c **** /**
 400:Drivers/STM32L1xx_HAL_Driver/Src/stm32l1xx_hal_adc.c ****   * @brief  Initializes the ADC peripheral and regular group according to  
 401:Drivers/STM32L1xx_HAL_Driver/Src/stm32l1xx_hal_adc.c ****   *         parameters specified in structure "ADC_InitTypeDef".
 402:Drivers/STM32L1xx_HAL_Driver/Src/stm32l1xx_hal_adc.c ****   * @note   As prerequisite, ADC clock must be configured at RCC top level
 403:Drivers/STM32L1xx_HAL_Driver/Src/stm32l1xx_hal_adc.c ****   *         (clock source APB2).
 404:Drivers/STM32L1xx_HAL_Driver/Src/stm32l1xx_hal_adc.c ****   *         See commented example code below that can be copied and uncommented 
 405:Drivers/STM32L1xx_HAL_Driver/Src/stm32l1xx_hal_adc.c ****   *         into HAL_ADC_MspInit().
 406:Drivers/STM32L1xx_HAL_Driver/Src/stm32l1xx_hal_adc.c ****   * @note   Possibility to update parameters on the fly:
 407:Drivers/STM32L1xx_HAL_Driver/Src/stm32l1xx_hal_adc.c ****   *         This function initializes the ADC MSP (HAL_ADC_MspInit()) only when
 408:Drivers/STM32L1xx_HAL_Driver/Src/stm32l1xx_hal_adc.c ****   *         coming from ADC state reset. Following calls to this function can
 409:Drivers/STM32L1xx_HAL_Driver/Src/stm32l1xx_hal_adc.c ****   *         be used to reconfigure some parameters of ADC_InitTypeDef  
 410:Drivers/STM32L1xx_HAL_Driver/Src/stm32l1xx_hal_adc.c ****   *         structure on the fly, without modifying MSP configuration. If ADC  
 411:Drivers/STM32L1xx_HAL_Driver/Src/stm32l1xx_hal_adc.c ****   *         MSP has to be modified again, HAL_ADC_DeInit() must be called
 412:Drivers/STM32L1xx_HAL_Driver/Src/stm32l1xx_hal_adc.c ****   *         before HAL_ADC_Init().
 413:Drivers/STM32L1xx_HAL_Driver/Src/stm32l1xx_hal_adc.c ****   *         The setting of these parameters is conditioned to ADC state.
 414:Drivers/STM32L1xx_HAL_Driver/Src/stm32l1xx_hal_adc.c ****   *         For parameters constraints, see comments of structure 
 415:Drivers/STM32L1xx_HAL_Driver/Src/stm32l1xx_hal_adc.c ****   *         "ADC_InitTypeDef".
 416:Drivers/STM32L1xx_HAL_Driver/Src/stm32l1xx_hal_adc.c ****   * @note   This function configures the ADC within 2 scopes: scope of entire 
 417:Drivers/STM32L1xx_HAL_Driver/Src/stm32l1xx_hal_adc.c ****   *         ADC and scope of regular group. For parameters details, see comments 
 418:Drivers/STM32L1xx_HAL_Driver/Src/stm32l1xx_hal_adc.c ****   *         of structure "ADC_InitTypeDef".
 419:Drivers/STM32L1xx_HAL_Driver/Src/stm32l1xx_hal_adc.c ****   * @param  hadc ADC handle
 420:Drivers/STM32L1xx_HAL_Driver/Src/stm32l1xx_hal_adc.c ****   * @retval HAL status
 421:Drivers/STM32L1xx_HAL_Driver/Src/stm32l1xx_hal_adc.c ****   */
 422:Drivers/STM32L1xx_HAL_Driver/Src/stm32l1xx_hal_adc.c **** HAL_StatusTypeDef HAL_ADC_Init(ADC_HandleTypeDef* hadc)
 423:Drivers/STM32L1xx_HAL_Driver/Src/stm32l1xx_hal_adc.c **** {
 424:Drivers/STM32L1xx_HAL_Driver/Src/stm32l1xx_hal_adc.c ****   HAL_StatusTypeDef tmp_hal_status = HAL_OK;
 425:Drivers/STM32L1xx_HAL_Driver/Src/stm32l1xx_hal_adc.c ****   uint32_t tmp_cr1 = 0;
 426:Drivers/STM32L1xx_HAL_Driver/Src/stm32l1xx_hal_adc.c ****   uint32_t tmp_cr2 = 0;
 427:Drivers/STM32L1xx_HAL_Driver/Src/stm32l1xx_hal_adc.c ****   
 428:Drivers/STM32L1xx_HAL_Driver/Src/stm32l1xx_hal_adc.c ****   /* Check ADC handle */
 429:Drivers/STM32L1xx_HAL_Driver/Src/stm32l1xx_hal_adc.c ****   if(hadc == NULL)
 430:Drivers/STM32L1xx_HAL_Driver/Src/stm32l1xx_hal_adc.c ****   {
ARM GAS  C:\Users\cedri\AppData\Local\Temp\cc9WRHZF.s 			page 9


 431:Drivers/STM32L1xx_HAL_Driver/Src/stm32l1xx_hal_adc.c ****     return HAL_ERROR;
 432:Drivers/STM32L1xx_HAL_Driver/Src/stm32l1xx_hal_adc.c ****   }
 433:Drivers/STM32L1xx_HAL_Driver/Src/stm32l1xx_hal_adc.c ****   
 434:Drivers/STM32L1xx_HAL_Driver/Src/stm32l1xx_hal_adc.c ****   /* Check the parameters */
 435:Drivers/STM32L1xx_HAL_Driver/Src/stm32l1xx_hal_adc.c ****   assert_param(IS_ADC_ALL_INSTANCE(hadc->Instance));
 436:Drivers/STM32L1xx_HAL_Driver/Src/stm32l1xx_hal_adc.c ****   assert_param(IS_ADC_CLOCKPRESCALER(hadc->Init.ClockPrescaler));
 437:Drivers/STM32L1xx_HAL_Driver/Src/stm32l1xx_hal_adc.c ****   assert_param(IS_ADC_RESOLUTION(hadc->Init.Resolution));
 438:Drivers/STM32L1xx_HAL_Driver/Src/stm32l1xx_hal_adc.c ****   assert_param(IS_ADC_DATA_ALIGN(hadc->Init.DataAlign)); 
 439:Drivers/STM32L1xx_HAL_Driver/Src/stm32l1xx_hal_adc.c ****   assert_param(IS_ADC_SCAN_MODE(hadc->Init.ScanConvMode));
 440:Drivers/STM32L1xx_HAL_Driver/Src/stm32l1xx_hal_adc.c ****   assert_param(IS_ADC_EOC_SELECTION(hadc->Init.EOCSelection));
 441:Drivers/STM32L1xx_HAL_Driver/Src/stm32l1xx_hal_adc.c ****   assert_param(IS_ADC_AUTOWAIT(hadc->Init.LowPowerAutoWait));
 442:Drivers/STM32L1xx_HAL_Driver/Src/stm32l1xx_hal_adc.c ****   assert_param(IS_ADC_AUTOPOWEROFF(hadc->Init.LowPowerAutoPowerOff));
 443:Drivers/STM32L1xx_HAL_Driver/Src/stm32l1xx_hal_adc.c ****   assert_param(IS_ADC_CHANNELSBANK(hadc->Init.ChannelsBank));
 444:Drivers/STM32L1xx_HAL_Driver/Src/stm32l1xx_hal_adc.c ****   assert_param(IS_FUNCTIONAL_STATE(hadc->Init.ContinuousConvMode));
 445:Drivers/STM32L1xx_HAL_Driver/Src/stm32l1xx_hal_adc.c ****   assert_param(IS_ADC_EXTTRIG(hadc->Init.ExternalTrigConv));
 446:Drivers/STM32L1xx_HAL_Driver/Src/stm32l1xx_hal_adc.c ****   assert_param(IS_FUNCTIONAL_STATE(hadc->Init.DMAContinuousRequests));
 447:Drivers/STM32L1xx_HAL_Driver/Src/stm32l1xx_hal_adc.c ****   
 448:Drivers/STM32L1xx_HAL_Driver/Src/stm32l1xx_hal_adc.c ****   if(hadc->Init.ScanConvMode != ADC_SCAN_DISABLE)
 449:Drivers/STM32L1xx_HAL_Driver/Src/stm32l1xx_hal_adc.c ****   {
 450:Drivers/STM32L1xx_HAL_Driver/Src/stm32l1xx_hal_adc.c ****     assert_param(IS_ADC_REGULAR_NB_CONV(hadc->Init.NbrOfConversion));
 451:Drivers/STM32L1xx_HAL_Driver/Src/stm32l1xx_hal_adc.c ****     assert_param(IS_FUNCTIONAL_STATE(hadc->Init.DiscontinuousConvMode));
 452:Drivers/STM32L1xx_HAL_Driver/Src/stm32l1xx_hal_adc.c ****     if(hadc->Init.DiscontinuousConvMode != DISABLE)
 453:Drivers/STM32L1xx_HAL_Driver/Src/stm32l1xx_hal_adc.c ****     {
 454:Drivers/STM32L1xx_HAL_Driver/Src/stm32l1xx_hal_adc.c ****       assert_param(IS_ADC_REGULAR_DISCONT_NUMBER(hadc->Init.NbrOfDiscConversion));
 455:Drivers/STM32L1xx_HAL_Driver/Src/stm32l1xx_hal_adc.c ****     }
 456:Drivers/STM32L1xx_HAL_Driver/Src/stm32l1xx_hal_adc.c ****   }
 457:Drivers/STM32L1xx_HAL_Driver/Src/stm32l1xx_hal_adc.c ****       
 458:Drivers/STM32L1xx_HAL_Driver/Src/stm32l1xx_hal_adc.c ****   if(hadc->Init.ExternalTrigConv != ADC_SOFTWARE_START)
 459:Drivers/STM32L1xx_HAL_Driver/Src/stm32l1xx_hal_adc.c ****   {
 460:Drivers/STM32L1xx_HAL_Driver/Src/stm32l1xx_hal_adc.c ****     assert_param(IS_ADC_EXTTRIG_EDGE(hadc->Init.ExternalTrigConvEdge));
 461:Drivers/STM32L1xx_HAL_Driver/Src/stm32l1xx_hal_adc.c ****   }
 462:Drivers/STM32L1xx_HAL_Driver/Src/stm32l1xx_hal_adc.c ****   
 463:Drivers/STM32L1xx_HAL_Driver/Src/stm32l1xx_hal_adc.c ****   
 464:Drivers/STM32L1xx_HAL_Driver/Src/stm32l1xx_hal_adc.c ****   /* As prerequisite, into HAL_ADC_MspInit(), ADC clock must be configured    */
 465:Drivers/STM32L1xx_HAL_Driver/Src/stm32l1xx_hal_adc.c ****   /* at RCC top level.                                                        */
 466:Drivers/STM32L1xx_HAL_Driver/Src/stm32l1xx_hal_adc.c ****   /* Refer to header of this file for more details on clock enabling          */
 467:Drivers/STM32L1xx_HAL_Driver/Src/stm32l1xx_hal_adc.c ****   /* procedure.                                                               */
 468:Drivers/STM32L1xx_HAL_Driver/Src/stm32l1xx_hal_adc.c **** 
 469:Drivers/STM32L1xx_HAL_Driver/Src/stm32l1xx_hal_adc.c ****   /* Actions performed only if ADC is coming from state reset:                */
 470:Drivers/STM32L1xx_HAL_Driver/Src/stm32l1xx_hal_adc.c ****   /* - Initialization of ADC MSP                                              */
 471:Drivers/STM32L1xx_HAL_Driver/Src/stm32l1xx_hal_adc.c ****   if (hadc->State == HAL_ADC_STATE_RESET)
 472:Drivers/STM32L1xx_HAL_Driver/Src/stm32l1xx_hal_adc.c ****   {
 473:Drivers/STM32L1xx_HAL_Driver/Src/stm32l1xx_hal_adc.c ****     /* Initialize ADC error code */
 474:Drivers/STM32L1xx_HAL_Driver/Src/stm32l1xx_hal_adc.c ****     ADC_CLEAR_ERRORCODE(hadc);
 475:Drivers/STM32L1xx_HAL_Driver/Src/stm32l1xx_hal_adc.c ****     
 476:Drivers/STM32L1xx_HAL_Driver/Src/stm32l1xx_hal_adc.c ****     /* Allocate lock resource and initialize it */
 477:Drivers/STM32L1xx_HAL_Driver/Src/stm32l1xx_hal_adc.c ****     hadc->Lock = HAL_UNLOCKED;
 478:Drivers/STM32L1xx_HAL_Driver/Src/stm32l1xx_hal_adc.c ****     
 479:Drivers/STM32L1xx_HAL_Driver/Src/stm32l1xx_hal_adc.c ****     /* Enable SYSCFG clock to control the routing Interface (RI) */
 480:Drivers/STM32L1xx_HAL_Driver/Src/stm32l1xx_hal_adc.c ****     __HAL_RCC_SYSCFG_CLK_ENABLE();
 481:Drivers/STM32L1xx_HAL_Driver/Src/stm32l1xx_hal_adc.c **** 
 482:Drivers/STM32L1xx_HAL_Driver/Src/stm32l1xx_hal_adc.c **** #if (USE_HAL_ADC_REGISTER_CALLBACKS == 1)
 483:Drivers/STM32L1xx_HAL_Driver/Src/stm32l1xx_hal_adc.c ****     /* Init the ADC Callback settings */
 484:Drivers/STM32L1xx_HAL_Driver/Src/stm32l1xx_hal_adc.c ****     hadc->ConvCpltCallback              = HAL_ADC_ConvCpltCallback;                 /* Legacy weak 
 485:Drivers/STM32L1xx_HAL_Driver/Src/stm32l1xx_hal_adc.c ****     hadc->ConvHalfCpltCallback          = HAL_ADC_ConvHalfCpltCallback;             /* Legacy weak 
 486:Drivers/STM32L1xx_HAL_Driver/Src/stm32l1xx_hal_adc.c ****     hadc->LevelOutOfWindowCallback      = HAL_ADC_LevelOutOfWindowCallback;         /* Legacy weak 
 487:Drivers/STM32L1xx_HAL_Driver/Src/stm32l1xx_hal_adc.c ****     hadc->ErrorCallback                 = HAL_ADC_ErrorCallback;                    /* Legacy weak 
ARM GAS  C:\Users\cedri\AppData\Local\Temp\cc9WRHZF.s 			page 10


 488:Drivers/STM32L1xx_HAL_Driver/Src/stm32l1xx_hal_adc.c ****     hadc->InjectedConvCpltCallback      = HAL_ADCEx_InjectedConvCpltCallback;       /* Legacy weak 
 489:Drivers/STM32L1xx_HAL_Driver/Src/stm32l1xx_hal_adc.c ****     
 490:Drivers/STM32L1xx_HAL_Driver/Src/stm32l1xx_hal_adc.c ****     if (hadc->MspInitCallback == NULL)
 491:Drivers/STM32L1xx_HAL_Driver/Src/stm32l1xx_hal_adc.c ****     {
 492:Drivers/STM32L1xx_HAL_Driver/Src/stm32l1xx_hal_adc.c ****       hadc->MspInitCallback = HAL_ADC_MspInit; /* Legacy weak MspInit  */
 493:Drivers/STM32L1xx_HAL_Driver/Src/stm32l1xx_hal_adc.c ****     }
 494:Drivers/STM32L1xx_HAL_Driver/Src/stm32l1xx_hal_adc.c ****     
 495:Drivers/STM32L1xx_HAL_Driver/Src/stm32l1xx_hal_adc.c ****     /* Init the low level hardware */
 496:Drivers/STM32L1xx_HAL_Driver/Src/stm32l1xx_hal_adc.c ****     hadc->MspInitCallback(hadc);
 497:Drivers/STM32L1xx_HAL_Driver/Src/stm32l1xx_hal_adc.c **** #else
 498:Drivers/STM32L1xx_HAL_Driver/Src/stm32l1xx_hal_adc.c ****     /* Init the low level hardware */
 499:Drivers/STM32L1xx_HAL_Driver/Src/stm32l1xx_hal_adc.c ****     HAL_ADC_MspInit(hadc);
 500:Drivers/STM32L1xx_HAL_Driver/Src/stm32l1xx_hal_adc.c **** #endif /* USE_HAL_ADC_REGISTER_CALLBACKS */
 501:Drivers/STM32L1xx_HAL_Driver/Src/stm32l1xx_hal_adc.c ****   }
 502:Drivers/STM32L1xx_HAL_Driver/Src/stm32l1xx_hal_adc.c ****   
 503:Drivers/STM32L1xx_HAL_Driver/Src/stm32l1xx_hal_adc.c ****   /* Configuration of ADC parameters if previous preliminary actions are      */ 
 504:Drivers/STM32L1xx_HAL_Driver/Src/stm32l1xx_hal_adc.c ****   /* correctly completed.                                                     */
 505:Drivers/STM32L1xx_HAL_Driver/Src/stm32l1xx_hal_adc.c ****   if (HAL_IS_BIT_CLR(hadc->State, HAL_ADC_STATE_ERROR_INTERNAL))
 506:Drivers/STM32L1xx_HAL_Driver/Src/stm32l1xx_hal_adc.c ****   {
 507:Drivers/STM32L1xx_HAL_Driver/Src/stm32l1xx_hal_adc.c ****     /* Set ADC state */
 508:Drivers/STM32L1xx_HAL_Driver/Src/stm32l1xx_hal_adc.c ****     ADC_STATE_CLR_SET(hadc->State,
 509:Drivers/STM32L1xx_HAL_Driver/Src/stm32l1xx_hal_adc.c ****                       HAL_ADC_STATE_REG_BUSY | HAL_ADC_STATE_INJ_BUSY,
 510:Drivers/STM32L1xx_HAL_Driver/Src/stm32l1xx_hal_adc.c ****                       HAL_ADC_STATE_BUSY_INTERNAL);
 511:Drivers/STM32L1xx_HAL_Driver/Src/stm32l1xx_hal_adc.c ****     
 512:Drivers/STM32L1xx_HAL_Driver/Src/stm32l1xx_hal_adc.c ****     /* Set ADC parameters */
 513:Drivers/STM32L1xx_HAL_Driver/Src/stm32l1xx_hal_adc.c ****     
 514:Drivers/STM32L1xx_HAL_Driver/Src/stm32l1xx_hal_adc.c ****     /* Configuration of common ADC clock: clock source HSI with selectable    */
 515:Drivers/STM32L1xx_HAL_Driver/Src/stm32l1xx_hal_adc.c ****     /* prescaler                                                              */
 516:Drivers/STM32L1xx_HAL_Driver/Src/stm32l1xx_hal_adc.c ****     MODIFY_REG(ADC->CCR                 ,
 517:Drivers/STM32L1xx_HAL_Driver/Src/stm32l1xx_hal_adc.c ****                ADC_CCR_ADCPRE           ,
 518:Drivers/STM32L1xx_HAL_Driver/Src/stm32l1xx_hal_adc.c ****                hadc->Init.ClockPrescaler );
 519:Drivers/STM32L1xx_HAL_Driver/Src/stm32l1xx_hal_adc.c **** 
 520:Drivers/STM32L1xx_HAL_Driver/Src/stm32l1xx_hal_adc.c ****     /* Configuration of ADC:                                                  */
 521:Drivers/STM32L1xx_HAL_Driver/Src/stm32l1xx_hal_adc.c ****     /*  - external trigger polarity                                           */
 522:Drivers/STM32L1xx_HAL_Driver/Src/stm32l1xx_hal_adc.c ****     /*  - End of conversion selection                                         */
 523:Drivers/STM32L1xx_HAL_Driver/Src/stm32l1xx_hal_adc.c ****     /*  - DMA continuous request                                              */
 524:Drivers/STM32L1xx_HAL_Driver/Src/stm32l1xx_hal_adc.c ****     /*  - Channels bank (Banks availability depends on devices categories)    */
 525:Drivers/STM32L1xx_HAL_Driver/Src/stm32l1xx_hal_adc.c ****     /*  - continuous conversion mode                                          */
 526:Drivers/STM32L1xx_HAL_Driver/Src/stm32l1xx_hal_adc.c ****     tmp_cr2 |= (hadc->Init.DataAlign                                           |
 527:Drivers/STM32L1xx_HAL_Driver/Src/stm32l1xx_hal_adc.c ****                 hadc->Init.EOCSelection                                        |
 528:Drivers/STM32L1xx_HAL_Driver/Src/stm32l1xx_hal_adc.c ****                 ADC_CR2_DMACONTREQ((uint32_t)hadc->Init.DMAContinuousRequests) |
 529:Drivers/STM32L1xx_HAL_Driver/Src/stm32l1xx_hal_adc.c ****                 hadc->Init.ChannelsBank                                        |
 530:Drivers/STM32L1xx_HAL_Driver/Src/stm32l1xx_hal_adc.c ****                 ADC_CR2_CONTINUOUS((uint32_t)hadc->Init.ContinuousConvMode)     );
 531:Drivers/STM32L1xx_HAL_Driver/Src/stm32l1xx_hal_adc.c **** 
 532:Drivers/STM32L1xx_HAL_Driver/Src/stm32l1xx_hal_adc.c ****     /* Enable external trigger if trigger selection is different of software  */
 533:Drivers/STM32L1xx_HAL_Driver/Src/stm32l1xx_hal_adc.c ****     /* start.                                                                 */
 534:Drivers/STM32L1xx_HAL_Driver/Src/stm32l1xx_hal_adc.c ****     /* Note: This configuration keeps the hardware feature of parameter       */
 535:Drivers/STM32L1xx_HAL_Driver/Src/stm32l1xx_hal_adc.c ****     /*       ExternalTrigConvEdge "trigger edge none" equivalent to           */
 536:Drivers/STM32L1xx_HAL_Driver/Src/stm32l1xx_hal_adc.c ****     /*       software start.                                                  */
 537:Drivers/STM32L1xx_HAL_Driver/Src/stm32l1xx_hal_adc.c ****     if (hadc->Init.ExternalTrigConv != ADC_SOFTWARE_START)
 538:Drivers/STM32L1xx_HAL_Driver/Src/stm32l1xx_hal_adc.c ****     {
 539:Drivers/STM32L1xx_HAL_Driver/Src/stm32l1xx_hal_adc.c ****       tmp_cr2 |= ( hadc->Init.ExternalTrigConv    |
 540:Drivers/STM32L1xx_HAL_Driver/Src/stm32l1xx_hal_adc.c ****                   hadc->Init.ExternalTrigConvEdge );
 541:Drivers/STM32L1xx_HAL_Driver/Src/stm32l1xx_hal_adc.c ****     }
 542:Drivers/STM32L1xx_HAL_Driver/Src/stm32l1xx_hal_adc.c ****     
 543:Drivers/STM32L1xx_HAL_Driver/Src/stm32l1xx_hal_adc.c ****     /* Parameters update conditioned to ADC state:                            */
 544:Drivers/STM32L1xx_HAL_Driver/Src/stm32l1xx_hal_adc.c ****     /* Parameters that can be updated only when ADC is disabled:              */
ARM GAS  C:\Users\cedri\AppData\Local\Temp\cc9WRHZF.s 			page 11


 545:Drivers/STM32L1xx_HAL_Driver/Src/stm32l1xx_hal_adc.c ****     /*  - delay selection (LowPowerAutoWait mode)                             */
 546:Drivers/STM32L1xx_HAL_Driver/Src/stm32l1xx_hal_adc.c ****     /*  - resolution                                                          */
 547:Drivers/STM32L1xx_HAL_Driver/Src/stm32l1xx_hal_adc.c ****     /*  - auto power off (LowPowerAutoPowerOff mode)                          */
 548:Drivers/STM32L1xx_HAL_Driver/Src/stm32l1xx_hal_adc.c ****     /*  - scan mode                                                           */
 549:Drivers/STM32L1xx_HAL_Driver/Src/stm32l1xx_hal_adc.c ****     /*  - discontinuous mode disable/enable                                   */
 550:Drivers/STM32L1xx_HAL_Driver/Src/stm32l1xx_hal_adc.c ****     /*  - discontinuous mode number of conversions                            */
 551:Drivers/STM32L1xx_HAL_Driver/Src/stm32l1xx_hal_adc.c ****     if ((ADC_IS_ENABLE(hadc) == RESET))
 552:Drivers/STM32L1xx_HAL_Driver/Src/stm32l1xx_hal_adc.c ****     {
 553:Drivers/STM32L1xx_HAL_Driver/Src/stm32l1xx_hal_adc.c ****       tmp_cr2 |= hadc->Init.LowPowerAutoWait;
 554:Drivers/STM32L1xx_HAL_Driver/Src/stm32l1xx_hal_adc.c ****       
 555:Drivers/STM32L1xx_HAL_Driver/Src/stm32l1xx_hal_adc.c ****       tmp_cr1 |= (hadc->Init.Resolution                     |
 556:Drivers/STM32L1xx_HAL_Driver/Src/stm32l1xx_hal_adc.c ****                   hadc->Init.LowPowerAutoPowerOff           |
 557:Drivers/STM32L1xx_HAL_Driver/Src/stm32l1xx_hal_adc.c ****                   ADC_CR1_SCAN_SET(hadc->Init.ScanConvMode)  );
 558:Drivers/STM32L1xx_HAL_Driver/Src/stm32l1xx_hal_adc.c ****       
 559:Drivers/STM32L1xx_HAL_Driver/Src/stm32l1xx_hal_adc.c ****       /* Enable discontinuous mode only if continuous mode is disabled */
 560:Drivers/STM32L1xx_HAL_Driver/Src/stm32l1xx_hal_adc.c ****       /* Note: If parameter "Init.ScanConvMode" is set to disable, parameter  */
 561:Drivers/STM32L1xx_HAL_Driver/Src/stm32l1xx_hal_adc.c ****       /*       discontinuous is set anyway, but has no effect on ADC HW.      */
 562:Drivers/STM32L1xx_HAL_Driver/Src/stm32l1xx_hal_adc.c ****       if (hadc->Init.DiscontinuousConvMode == ENABLE)
 563:Drivers/STM32L1xx_HAL_Driver/Src/stm32l1xx_hal_adc.c ****       {
 564:Drivers/STM32L1xx_HAL_Driver/Src/stm32l1xx_hal_adc.c ****         if (hadc->Init.ContinuousConvMode == DISABLE)
 565:Drivers/STM32L1xx_HAL_Driver/Src/stm32l1xx_hal_adc.c ****         {
 566:Drivers/STM32L1xx_HAL_Driver/Src/stm32l1xx_hal_adc.c ****           /* Enable the selected ADC regular discontinuous mode */
 567:Drivers/STM32L1xx_HAL_Driver/Src/stm32l1xx_hal_adc.c ****           /* Set the number of channels to be converted in discontinuous mode */
 568:Drivers/STM32L1xx_HAL_Driver/Src/stm32l1xx_hal_adc.c ****           SET_BIT(tmp_cr1, ADC_CR1_DISCEN                                            |
 569:Drivers/STM32L1xx_HAL_Driver/Src/stm32l1xx_hal_adc.c ****                            ADC_CR1_DISCONTINUOUS_NUM(hadc->Init.NbrOfDiscConversion)  );
 570:Drivers/STM32L1xx_HAL_Driver/Src/stm32l1xx_hal_adc.c ****         }
 571:Drivers/STM32L1xx_HAL_Driver/Src/stm32l1xx_hal_adc.c ****         else
 572:Drivers/STM32L1xx_HAL_Driver/Src/stm32l1xx_hal_adc.c ****         {
 573:Drivers/STM32L1xx_HAL_Driver/Src/stm32l1xx_hal_adc.c ****           /* ADC regular group settings continuous and sequencer discontinuous*/
 574:Drivers/STM32L1xx_HAL_Driver/Src/stm32l1xx_hal_adc.c ****           /* cannot be enabled simultaneously.                                */
 575:Drivers/STM32L1xx_HAL_Driver/Src/stm32l1xx_hal_adc.c ****           
 576:Drivers/STM32L1xx_HAL_Driver/Src/stm32l1xx_hal_adc.c ****           /* Update ADC state machine to error */
 577:Drivers/STM32L1xx_HAL_Driver/Src/stm32l1xx_hal_adc.c ****           SET_BIT(hadc->State, HAL_ADC_STATE_ERROR_CONFIG);
 578:Drivers/STM32L1xx_HAL_Driver/Src/stm32l1xx_hal_adc.c ****           
 579:Drivers/STM32L1xx_HAL_Driver/Src/stm32l1xx_hal_adc.c ****           /* Set ADC error code to ADC IP internal error */
 580:Drivers/STM32L1xx_HAL_Driver/Src/stm32l1xx_hal_adc.c ****           SET_BIT(hadc->ErrorCode, HAL_ADC_ERROR_INTERNAL);
 581:Drivers/STM32L1xx_HAL_Driver/Src/stm32l1xx_hal_adc.c ****         }
 582:Drivers/STM32L1xx_HAL_Driver/Src/stm32l1xx_hal_adc.c ****       }
 583:Drivers/STM32L1xx_HAL_Driver/Src/stm32l1xx_hal_adc.c ****       
 584:Drivers/STM32L1xx_HAL_Driver/Src/stm32l1xx_hal_adc.c ****       /* Update ADC configuration register CR1 with previous settings */
 585:Drivers/STM32L1xx_HAL_Driver/Src/stm32l1xx_hal_adc.c ****         MODIFY_REG(hadc->Instance->CR1,
 586:Drivers/STM32L1xx_HAL_Driver/Src/stm32l1xx_hal_adc.c ****                    ADC_CR1_RES     |
 587:Drivers/STM32L1xx_HAL_Driver/Src/stm32l1xx_hal_adc.c ****                    ADC_CR1_PDI     |
 588:Drivers/STM32L1xx_HAL_Driver/Src/stm32l1xx_hal_adc.c ****                    ADC_CR1_PDD     |
 589:Drivers/STM32L1xx_HAL_Driver/Src/stm32l1xx_hal_adc.c ****                    ADC_CR1_DISCNUM |
 590:Drivers/STM32L1xx_HAL_Driver/Src/stm32l1xx_hal_adc.c ****                    ADC_CR1_DISCEN  |
 591:Drivers/STM32L1xx_HAL_Driver/Src/stm32l1xx_hal_adc.c ****                    ADC_CR1_SCAN     ,
 592:Drivers/STM32L1xx_HAL_Driver/Src/stm32l1xx_hal_adc.c ****                    tmp_cr1           );
 593:Drivers/STM32L1xx_HAL_Driver/Src/stm32l1xx_hal_adc.c ****     }
 594:Drivers/STM32L1xx_HAL_Driver/Src/stm32l1xx_hal_adc.c ****     
 595:Drivers/STM32L1xx_HAL_Driver/Src/stm32l1xx_hal_adc.c ****     /* Update ADC configuration register CR2 with previous settings */
 596:Drivers/STM32L1xx_HAL_Driver/Src/stm32l1xx_hal_adc.c ****     MODIFY_REG(hadc->Instance->CR2    ,
 597:Drivers/STM32L1xx_HAL_Driver/Src/stm32l1xx_hal_adc.c ****                ADC_CR2_MASK_ADCINIT() ,
 598:Drivers/STM32L1xx_HAL_Driver/Src/stm32l1xx_hal_adc.c ****                tmp_cr2                 );
 599:Drivers/STM32L1xx_HAL_Driver/Src/stm32l1xx_hal_adc.c ****     
 600:Drivers/STM32L1xx_HAL_Driver/Src/stm32l1xx_hal_adc.c ****     /* Configuration of regular group sequencer:                              */
 601:Drivers/STM32L1xx_HAL_Driver/Src/stm32l1xx_hal_adc.c ****     /* - if scan mode is disabled, regular channels sequence length is set to */
ARM GAS  C:\Users\cedri\AppData\Local\Temp\cc9WRHZF.s 			page 12


 602:Drivers/STM32L1xx_HAL_Driver/Src/stm32l1xx_hal_adc.c ****     /*   0x00: 1 channel converted (channel on regular rank 1)                */
 603:Drivers/STM32L1xx_HAL_Driver/Src/stm32l1xx_hal_adc.c ****     /*   Parameter "NbrOfConversion" is discarded.                            */
 604:Drivers/STM32L1xx_HAL_Driver/Src/stm32l1xx_hal_adc.c ****     /*   Note: Scan mode is present by hardware on this device and, if        */
 605:Drivers/STM32L1xx_HAL_Driver/Src/stm32l1xx_hal_adc.c ****     /*   disabled, discards automatically nb of conversions. Anyway, nb of    */
 606:Drivers/STM32L1xx_HAL_Driver/Src/stm32l1xx_hal_adc.c ****     /*   conversions is forced to 0x00 for alignment over all STM32 devices.  */
 607:Drivers/STM32L1xx_HAL_Driver/Src/stm32l1xx_hal_adc.c ****     /* - if scan mode is enabled, regular channels sequence length is set to  */
 608:Drivers/STM32L1xx_HAL_Driver/Src/stm32l1xx_hal_adc.c ****     /*   parameter "NbrOfConversion"                                          */
 609:Drivers/STM32L1xx_HAL_Driver/Src/stm32l1xx_hal_adc.c ****     if (ADC_CR1_SCAN_SET(hadc->Init.ScanConvMode) == ADC_SCAN_ENABLE)
 610:Drivers/STM32L1xx_HAL_Driver/Src/stm32l1xx_hal_adc.c ****     {
 611:Drivers/STM32L1xx_HAL_Driver/Src/stm32l1xx_hal_adc.c ****       MODIFY_REG(hadc->Instance->SQR1                         ,
 612:Drivers/STM32L1xx_HAL_Driver/Src/stm32l1xx_hal_adc.c ****                  ADC_SQR1_L                                   ,
 613:Drivers/STM32L1xx_HAL_Driver/Src/stm32l1xx_hal_adc.c ****                  ADC_SQR1_L_SHIFT(hadc->Init.NbrOfConversion)  );
 614:Drivers/STM32L1xx_HAL_Driver/Src/stm32l1xx_hal_adc.c ****     }
 615:Drivers/STM32L1xx_HAL_Driver/Src/stm32l1xx_hal_adc.c ****     else
 616:Drivers/STM32L1xx_HAL_Driver/Src/stm32l1xx_hal_adc.c ****     {
 617:Drivers/STM32L1xx_HAL_Driver/Src/stm32l1xx_hal_adc.c ****       MODIFY_REG(hadc->Instance->SQR1,
 618:Drivers/STM32L1xx_HAL_Driver/Src/stm32l1xx_hal_adc.c ****                  ADC_SQR1_L          ,
 619:Drivers/STM32L1xx_HAL_Driver/Src/stm32l1xx_hal_adc.c ****                  0x00000000           );
 620:Drivers/STM32L1xx_HAL_Driver/Src/stm32l1xx_hal_adc.c ****     }
 621:Drivers/STM32L1xx_HAL_Driver/Src/stm32l1xx_hal_adc.c ****     
 622:Drivers/STM32L1xx_HAL_Driver/Src/stm32l1xx_hal_adc.c ****     /* Check back that ADC registers have effectively been configured to      */
 623:Drivers/STM32L1xx_HAL_Driver/Src/stm32l1xx_hal_adc.c ****     /* ensure of no potential problem of ADC core IP clocking.                */
 624:Drivers/STM32L1xx_HAL_Driver/Src/stm32l1xx_hal_adc.c ****     /* Check through register CR2 (excluding execution control bits ADON,     */
 625:Drivers/STM32L1xx_HAL_Driver/Src/stm32l1xx_hal_adc.c ****     /* JSWSTART, SWSTART and injected trigger bits JEXTEN and JEXTSEL).       */
 626:Drivers/STM32L1xx_HAL_Driver/Src/stm32l1xx_hal_adc.c ****     if ((READ_REG(hadc->Instance->CR2) & ~(ADC_CR2_ADON |
 627:Drivers/STM32L1xx_HAL_Driver/Src/stm32l1xx_hal_adc.c ****                                            ADC_CR2_SWSTART | ADC_CR2_JSWSTART |
 628:Drivers/STM32L1xx_HAL_Driver/Src/stm32l1xx_hal_adc.c ****                                            ADC_CR2_JEXTEN  | ADC_CR2_JEXTSEL   ))
 629:Drivers/STM32L1xx_HAL_Driver/Src/stm32l1xx_hal_adc.c ****          == tmp_cr2)
 630:Drivers/STM32L1xx_HAL_Driver/Src/stm32l1xx_hal_adc.c ****     {
 631:Drivers/STM32L1xx_HAL_Driver/Src/stm32l1xx_hal_adc.c ****       /* Set ADC error code to none */
 632:Drivers/STM32L1xx_HAL_Driver/Src/stm32l1xx_hal_adc.c ****       ADC_CLEAR_ERRORCODE(hadc);
 633:Drivers/STM32L1xx_HAL_Driver/Src/stm32l1xx_hal_adc.c ****       
 634:Drivers/STM32L1xx_HAL_Driver/Src/stm32l1xx_hal_adc.c ****       /* Set the ADC state */
 635:Drivers/STM32L1xx_HAL_Driver/Src/stm32l1xx_hal_adc.c ****       ADC_STATE_CLR_SET(hadc->State,
 636:Drivers/STM32L1xx_HAL_Driver/Src/stm32l1xx_hal_adc.c ****                         HAL_ADC_STATE_BUSY_INTERNAL,
 637:Drivers/STM32L1xx_HAL_Driver/Src/stm32l1xx_hal_adc.c ****                         HAL_ADC_STATE_READY);
 638:Drivers/STM32L1xx_HAL_Driver/Src/stm32l1xx_hal_adc.c ****     }
 639:Drivers/STM32L1xx_HAL_Driver/Src/stm32l1xx_hal_adc.c ****     else
 640:Drivers/STM32L1xx_HAL_Driver/Src/stm32l1xx_hal_adc.c ****     {
 641:Drivers/STM32L1xx_HAL_Driver/Src/stm32l1xx_hal_adc.c ****       /* Update ADC state machine to error */
 642:Drivers/STM32L1xx_HAL_Driver/Src/stm32l1xx_hal_adc.c ****       ADC_STATE_CLR_SET(hadc->State,
 643:Drivers/STM32L1xx_HAL_Driver/Src/stm32l1xx_hal_adc.c ****                         HAL_ADC_STATE_BUSY_INTERNAL,
 644:Drivers/STM32L1xx_HAL_Driver/Src/stm32l1xx_hal_adc.c ****                         HAL_ADC_STATE_ERROR_INTERNAL);
 645:Drivers/STM32L1xx_HAL_Driver/Src/stm32l1xx_hal_adc.c ****       
 646:Drivers/STM32L1xx_HAL_Driver/Src/stm32l1xx_hal_adc.c ****       /* Set ADC error code to ADC IP internal error */
 647:Drivers/STM32L1xx_HAL_Driver/Src/stm32l1xx_hal_adc.c ****       SET_BIT(hadc->ErrorCode, HAL_ADC_ERROR_INTERNAL);
 648:Drivers/STM32L1xx_HAL_Driver/Src/stm32l1xx_hal_adc.c ****       
 649:Drivers/STM32L1xx_HAL_Driver/Src/stm32l1xx_hal_adc.c ****       tmp_hal_status = HAL_ERROR;
 650:Drivers/STM32L1xx_HAL_Driver/Src/stm32l1xx_hal_adc.c ****     }
 651:Drivers/STM32L1xx_HAL_Driver/Src/stm32l1xx_hal_adc.c ****     
 652:Drivers/STM32L1xx_HAL_Driver/Src/stm32l1xx_hal_adc.c ****   }
 653:Drivers/STM32L1xx_HAL_Driver/Src/stm32l1xx_hal_adc.c ****   else
 654:Drivers/STM32L1xx_HAL_Driver/Src/stm32l1xx_hal_adc.c ****   {
 655:Drivers/STM32L1xx_HAL_Driver/Src/stm32l1xx_hal_adc.c ****     tmp_hal_status = HAL_ERROR;
 656:Drivers/STM32L1xx_HAL_Driver/Src/stm32l1xx_hal_adc.c ****   }
 657:Drivers/STM32L1xx_HAL_Driver/Src/stm32l1xx_hal_adc.c ****   
 658:Drivers/STM32L1xx_HAL_Driver/Src/stm32l1xx_hal_adc.c ****   /* Return function status */
ARM GAS  C:\Users\cedri\AppData\Local\Temp\cc9WRHZF.s 			page 13


 659:Drivers/STM32L1xx_HAL_Driver/Src/stm32l1xx_hal_adc.c ****   return tmp_hal_status;
 660:Drivers/STM32L1xx_HAL_Driver/Src/stm32l1xx_hal_adc.c **** }
 661:Drivers/STM32L1xx_HAL_Driver/Src/stm32l1xx_hal_adc.c **** 
 662:Drivers/STM32L1xx_HAL_Driver/Src/stm32l1xx_hal_adc.c **** /**
 663:Drivers/STM32L1xx_HAL_Driver/Src/stm32l1xx_hal_adc.c ****   * @brief  Deinitialize the ADC peripheral registers to its default reset values.
 664:Drivers/STM32L1xx_HAL_Driver/Src/stm32l1xx_hal_adc.c ****   * @note   To not impact other ADCs, reset of common ADC registers have been
 665:Drivers/STM32L1xx_HAL_Driver/Src/stm32l1xx_hal_adc.c ****   *         left commented below.
 666:Drivers/STM32L1xx_HAL_Driver/Src/stm32l1xx_hal_adc.c ****   *         If needed, the example code can be copied and uncommented into
 667:Drivers/STM32L1xx_HAL_Driver/Src/stm32l1xx_hal_adc.c ****   *         function HAL_ADC_MspDeInit().
 668:Drivers/STM32L1xx_HAL_Driver/Src/stm32l1xx_hal_adc.c ****   * @param  hadc ADC handle
 669:Drivers/STM32L1xx_HAL_Driver/Src/stm32l1xx_hal_adc.c ****   * @retval HAL status
 670:Drivers/STM32L1xx_HAL_Driver/Src/stm32l1xx_hal_adc.c ****   */
 671:Drivers/STM32L1xx_HAL_Driver/Src/stm32l1xx_hal_adc.c **** HAL_StatusTypeDef HAL_ADC_DeInit(ADC_HandleTypeDef* hadc)
 672:Drivers/STM32L1xx_HAL_Driver/Src/stm32l1xx_hal_adc.c **** {
 673:Drivers/STM32L1xx_HAL_Driver/Src/stm32l1xx_hal_adc.c ****   HAL_StatusTypeDef tmp_hal_status = HAL_OK;
 674:Drivers/STM32L1xx_HAL_Driver/Src/stm32l1xx_hal_adc.c ****   
 675:Drivers/STM32L1xx_HAL_Driver/Src/stm32l1xx_hal_adc.c ****   /* Check ADC handle */
 676:Drivers/STM32L1xx_HAL_Driver/Src/stm32l1xx_hal_adc.c ****   if(hadc == NULL)
 677:Drivers/STM32L1xx_HAL_Driver/Src/stm32l1xx_hal_adc.c ****   {
 678:Drivers/STM32L1xx_HAL_Driver/Src/stm32l1xx_hal_adc.c ****     return HAL_ERROR;
 679:Drivers/STM32L1xx_HAL_Driver/Src/stm32l1xx_hal_adc.c ****   }
 680:Drivers/STM32L1xx_HAL_Driver/Src/stm32l1xx_hal_adc.c ****   
 681:Drivers/STM32L1xx_HAL_Driver/Src/stm32l1xx_hal_adc.c ****   /* Check the parameters */
 682:Drivers/STM32L1xx_HAL_Driver/Src/stm32l1xx_hal_adc.c ****   assert_param(IS_ADC_ALL_INSTANCE(hadc->Instance));
 683:Drivers/STM32L1xx_HAL_Driver/Src/stm32l1xx_hal_adc.c ****   
 684:Drivers/STM32L1xx_HAL_Driver/Src/stm32l1xx_hal_adc.c ****   /* Set ADC state */
 685:Drivers/STM32L1xx_HAL_Driver/Src/stm32l1xx_hal_adc.c ****   SET_BIT(hadc->State, HAL_ADC_STATE_BUSY_INTERNAL);
 686:Drivers/STM32L1xx_HAL_Driver/Src/stm32l1xx_hal_adc.c ****   
 687:Drivers/STM32L1xx_HAL_Driver/Src/stm32l1xx_hal_adc.c ****   /* Stop potential conversion on going, on regular and injected groups */
 688:Drivers/STM32L1xx_HAL_Driver/Src/stm32l1xx_hal_adc.c ****   /* Disable ADC peripheral */
 689:Drivers/STM32L1xx_HAL_Driver/Src/stm32l1xx_hal_adc.c ****   tmp_hal_status = ADC_ConversionStop_Disable(hadc);
 690:Drivers/STM32L1xx_HAL_Driver/Src/stm32l1xx_hal_adc.c ****   
 691:Drivers/STM32L1xx_HAL_Driver/Src/stm32l1xx_hal_adc.c ****   
 692:Drivers/STM32L1xx_HAL_Driver/Src/stm32l1xx_hal_adc.c ****   /* Configuration of ADC parameters if previous preliminary actions are      */ 
 693:Drivers/STM32L1xx_HAL_Driver/Src/stm32l1xx_hal_adc.c ****   /* correctly completed.                                                     */
 694:Drivers/STM32L1xx_HAL_Driver/Src/stm32l1xx_hal_adc.c ****   if (tmp_hal_status == HAL_OK)
 695:Drivers/STM32L1xx_HAL_Driver/Src/stm32l1xx_hal_adc.c ****   {
 696:Drivers/STM32L1xx_HAL_Driver/Src/stm32l1xx_hal_adc.c ****     /* ========== Reset ADC registers ========== */
 697:Drivers/STM32L1xx_HAL_Driver/Src/stm32l1xx_hal_adc.c ****     /* Reset register SR */
 698:Drivers/STM32L1xx_HAL_Driver/Src/stm32l1xx_hal_adc.c ****     __HAL_ADC_CLEAR_FLAG(hadc, (ADC_FLAG_AWD | ADC_FLAG_JEOC | ADC_FLAG_EOC |
 699:Drivers/STM32L1xx_HAL_Driver/Src/stm32l1xx_hal_adc.c ****                                 ADC_FLAG_JSTRT | ADC_FLAG_STRT));
 700:Drivers/STM32L1xx_HAL_Driver/Src/stm32l1xx_hal_adc.c ****                          
 701:Drivers/STM32L1xx_HAL_Driver/Src/stm32l1xx_hal_adc.c ****     /* Reset register CR1 */
 702:Drivers/STM32L1xx_HAL_Driver/Src/stm32l1xx_hal_adc.c ****     CLEAR_BIT(hadc->Instance->CR1, (ADC_CR1_OVRIE   | ADC_CR1_RES     | ADC_CR1_AWDEN  |
 703:Drivers/STM32L1xx_HAL_Driver/Src/stm32l1xx_hal_adc.c ****                                     ADC_CR1_JAWDEN  | ADC_CR1_PDI     | ADC_CR1_PDD    |
 704:Drivers/STM32L1xx_HAL_Driver/Src/stm32l1xx_hal_adc.c ****                                     ADC_CR1_DISCNUM | ADC_CR1_JDISCEN | ADC_CR1_DISCEN |
 705:Drivers/STM32L1xx_HAL_Driver/Src/stm32l1xx_hal_adc.c ****                                     ADC_CR1_JAUTO   | ADC_CR1_AWDSGL  | ADC_CR1_SCAN   |
 706:Drivers/STM32L1xx_HAL_Driver/Src/stm32l1xx_hal_adc.c ****                                     ADC_CR1_JEOCIE  | ADC_CR1_AWDIE   | ADC_CR1_EOCIE  |
 707:Drivers/STM32L1xx_HAL_Driver/Src/stm32l1xx_hal_adc.c ****                                     ADC_CR1_AWDCH                                       ));
 708:Drivers/STM32L1xx_HAL_Driver/Src/stm32l1xx_hal_adc.c ****     
 709:Drivers/STM32L1xx_HAL_Driver/Src/stm32l1xx_hal_adc.c ****     /* Reset register CR2 */
 710:Drivers/STM32L1xx_HAL_Driver/Src/stm32l1xx_hal_adc.c ****     ADC_CR2_CLEAR(hadc);
 711:Drivers/STM32L1xx_HAL_Driver/Src/stm32l1xx_hal_adc.c ****     
 712:Drivers/STM32L1xx_HAL_Driver/Src/stm32l1xx_hal_adc.c ****     /* Reset register SMPR0 */
 713:Drivers/STM32L1xx_HAL_Driver/Src/stm32l1xx_hal_adc.c ****     ADC_SMPR0_CLEAR(hadc);
 714:Drivers/STM32L1xx_HAL_Driver/Src/stm32l1xx_hal_adc.c ****     
 715:Drivers/STM32L1xx_HAL_Driver/Src/stm32l1xx_hal_adc.c ****     /* Reset register SMPR1 */
ARM GAS  C:\Users\cedri\AppData\Local\Temp\cc9WRHZF.s 			page 14


 716:Drivers/STM32L1xx_HAL_Driver/Src/stm32l1xx_hal_adc.c ****     ADC_SMPR1_CLEAR(hadc);
 717:Drivers/STM32L1xx_HAL_Driver/Src/stm32l1xx_hal_adc.c ****     
 718:Drivers/STM32L1xx_HAL_Driver/Src/stm32l1xx_hal_adc.c ****     /* Reset register SMPR2 */
 719:Drivers/STM32L1xx_HAL_Driver/Src/stm32l1xx_hal_adc.c ****     CLEAR_BIT(hadc->Instance->SMPR2, (ADC_SMPR2_SMP19 | ADC_SMPR2_SMP18 | ADC_SMPR2_SMP17 | 
 720:Drivers/STM32L1xx_HAL_Driver/Src/stm32l1xx_hal_adc.c ****                                       ADC_SMPR2_SMP16 | ADC_SMPR2_SMP15 | ADC_SMPR2_SMP14 | 
 721:Drivers/STM32L1xx_HAL_Driver/Src/stm32l1xx_hal_adc.c ****                                       ADC_SMPR2_SMP13 | ADC_SMPR2_SMP12 | ADC_SMPR2_SMP11 |
 722:Drivers/STM32L1xx_HAL_Driver/Src/stm32l1xx_hal_adc.c ****                                       ADC_SMPR2_SMP10                                      ));
 723:Drivers/STM32L1xx_HAL_Driver/Src/stm32l1xx_hal_adc.c ****     
 724:Drivers/STM32L1xx_HAL_Driver/Src/stm32l1xx_hal_adc.c ****     /* Reset register SMPR3 */
 725:Drivers/STM32L1xx_HAL_Driver/Src/stm32l1xx_hal_adc.c ****     CLEAR_BIT(hadc->Instance->SMPR3, (ADC_SMPR3_SMP9 | ADC_SMPR3_SMP8 | ADC_SMPR3_SMP7 | 
 726:Drivers/STM32L1xx_HAL_Driver/Src/stm32l1xx_hal_adc.c ****                                       ADC_SMPR3_SMP6 | ADC_SMPR3_SMP5 | ADC_SMPR3_SMP4 | 
 727:Drivers/STM32L1xx_HAL_Driver/Src/stm32l1xx_hal_adc.c ****                                       ADC_SMPR3_SMP3 | ADC_SMPR3_SMP2 | ADC_SMPR3_SMP1 |
 728:Drivers/STM32L1xx_HAL_Driver/Src/stm32l1xx_hal_adc.c ****                                       ADC_SMPR3_SMP0                                    ));
 729:Drivers/STM32L1xx_HAL_Driver/Src/stm32l1xx_hal_adc.c ****     
 730:Drivers/STM32L1xx_HAL_Driver/Src/stm32l1xx_hal_adc.c ****     /* Reset register JOFR1 */
 731:Drivers/STM32L1xx_HAL_Driver/Src/stm32l1xx_hal_adc.c ****     CLEAR_BIT(hadc->Instance->JOFR1, ADC_JOFR1_JOFFSET1);
 732:Drivers/STM32L1xx_HAL_Driver/Src/stm32l1xx_hal_adc.c ****     /* Reset register JOFR2 */
 733:Drivers/STM32L1xx_HAL_Driver/Src/stm32l1xx_hal_adc.c ****     CLEAR_BIT(hadc->Instance->JOFR2, ADC_JOFR2_JOFFSET2);
 734:Drivers/STM32L1xx_HAL_Driver/Src/stm32l1xx_hal_adc.c ****     /* Reset register JOFR3 */
 735:Drivers/STM32L1xx_HAL_Driver/Src/stm32l1xx_hal_adc.c ****     CLEAR_BIT(hadc->Instance->JOFR3, ADC_JOFR3_JOFFSET3);
 736:Drivers/STM32L1xx_HAL_Driver/Src/stm32l1xx_hal_adc.c ****     /* Reset register JOFR4 */
 737:Drivers/STM32L1xx_HAL_Driver/Src/stm32l1xx_hal_adc.c ****     CLEAR_BIT(hadc->Instance->JOFR4, ADC_JOFR4_JOFFSET4);
 738:Drivers/STM32L1xx_HAL_Driver/Src/stm32l1xx_hal_adc.c ****     
 739:Drivers/STM32L1xx_HAL_Driver/Src/stm32l1xx_hal_adc.c ****     /* Reset register HTR */
 740:Drivers/STM32L1xx_HAL_Driver/Src/stm32l1xx_hal_adc.c ****     CLEAR_BIT(hadc->Instance->HTR, ADC_HTR_HT);
 741:Drivers/STM32L1xx_HAL_Driver/Src/stm32l1xx_hal_adc.c ****     /* Reset register LTR */
 742:Drivers/STM32L1xx_HAL_Driver/Src/stm32l1xx_hal_adc.c ****     CLEAR_BIT(hadc->Instance->LTR, ADC_LTR_LT);
 743:Drivers/STM32L1xx_HAL_Driver/Src/stm32l1xx_hal_adc.c ****     
 744:Drivers/STM32L1xx_HAL_Driver/Src/stm32l1xx_hal_adc.c ****     /* Reset register SQR1 */
 745:Drivers/STM32L1xx_HAL_Driver/Src/stm32l1xx_hal_adc.c ****     CLEAR_BIT(hadc->Instance->SQR1, (ADC_SQR1_L | __ADC_SQR1_SQXX));
 746:Drivers/STM32L1xx_HAL_Driver/Src/stm32l1xx_hal_adc.c ****     
 747:Drivers/STM32L1xx_HAL_Driver/Src/stm32l1xx_hal_adc.c ****     /* Reset register SQR2 */
 748:Drivers/STM32L1xx_HAL_Driver/Src/stm32l1xx_hal_adc.c ****     CLEAR_BIT(hadc->Instance->SQR2, (ADC_SQR2_SQ24 | ADC_SQR2_SQ23 | ADC_SQR2_SQ22 | 
 749:Drivers/STM32L1xx_HAL_Driver/Src/stm32l1xx_hal_adc.c ****                                      ADC_SQR2_SQ21 | ADC_SQR2_SQ20 | ADC_SQR2_SQ19  ));
 750:Drivers/STM32L1xx_HAL_Driver/Src/stm32l1xx_hal_adc.c ****     
 751:Drivers/STM32L1xx_HAL_Driver/Src/stm32l1xx_hal_adc.c ****     /* Reset register SQR3 */
 752:Drivers/STM32L1xx_HAL_Driver/Src/stm32l1xx_hal_adc.c ****     CLEAR_BIT(hadc->Instance->SQR3, (ADC_SQR3_SQ18 | ADC_SQR3_SQ17 | ADC_SQR3_SQ16 | 
 753:Drivers/STM32L1xx_HAL_Driver/Src/stm32l1xx_hal_adc.c ****                                      ADC_SQR3_SQ15 | ADC_SQR3_SQ14 | ADC_SQR3_SQ13  ));
 754:Drivers/STM32L1xx_HAL_Driver/Src/stm32l1xx_hal_adc.c ****     
 755:Drivers/STM32L1xx_HAL_Driver/Src/stm32l1xx_hal_adc.c ****     /* Reset register SQR4 */
 756:Drivers/STM32L1xx_HAL_Driver/Src/stm32l1xx_hal_adc.c ****     CLEAR_BIT(hadc->Instance->SQR4, (ADC_SQR4_SQ12 | ADC_SQR4_SQ11 | ADC_SQR4_SQ10 | 
 757:Drivers/STM32L1xx_HAL_Driver/Src/stm32l1xx_hal_adc.c ****                                      ADC_SQR4_SQ9  | ADC_SQR4_SQ8  | ADC_SQR4_SQ7   ));
 758:Drivers/STM32L1xx_HAL_Driver/Src/stm32l1xx_hal_adc.c ****     
 759:Drivers/STM32L1xx_HAL_Driver/Src/stm32l1xx_hal_adc.c ****     /* Reset register SQR5 */
 760:Drivers/STM32L1xx_HAL_Driver/Src/stm32l1xx_hal_adc.c ****     CLEAR_BIT(hadc->Instance->SQR5, (ADC_SQR5_SQ6 | ADC_SQR5_SQ5 | ADC_SQR5_SQ4 | 
 761:Drivers/STM32L1xx_HAL_Driver/Src/stm32l1xx_hal_adc.c ****                                      ADC_SQR5_SQ3 | ADC_SQR5_SQ2 | ADC_SQR5_SQ1  ));
 762:Drivers/STM32L1xx_HAL_Driver/Src/stm32l1xx_hal_adc.c ****     
 763:Drivers/STM32L1xx_HAL_Driver/Src/stm32l1xx_hal_adc.c ****     
 764:Drivers/STM32L1xx_HAL_Driver/Src/stm32l1xx_hal_adc.c ****     /* Reset register JSQR */
 765:Drivers/STM32L1xx_HAL_Driver/Src/stm32l1xx_hal_adc.c ****     CLEAR_BIT(hadc->Instance->JSQR, (ADC_JSQR_JL |
 766:Drivers/STM32L1xx_HAL_Driver/Src/stm32l1xx_hal_adc.c ****                                      ADC_JSQR_JSQ4 | ADC_JSQR_JSQ3 | 
 767:Drivers/STM32L1xx_HAL_Driver/Src/stm32l1xx_hal_adc.c ****                                      ADC_JSQR_JSQ2 | ADC_JSQR_JSQ1  ));
 768:Drivers/STM32L1xx_HAL_Driver/Src/stm32l1xx_hal_adc.c ****     
 769:Drivers/STM32L1xx_HAL_Driver/Src/stm32l1xx_hal_adc.c ****     /* Reset register DR */
 770:Drivers/STM32L1xx_HAL_Driver/Src/stm32l1xx_hal_adc.c ****     /* bits in access mode read only, no direct reset applicable*/
 771:Drivers/STM32L1xx_HAL_Driver/Src/stm32l1xx_hal_adc.c ****     
 772:Drivers/STM32L1xx_HAL_Driver/Src/stm32l1xx_hal_adc.c ****     /* Reset registers JDR1, JDR2, JDR3, JDR4 */
ARM GAS  C:\Users\cedri\AppData\Local\Temp\cc9WRHZF.s 			page 15


 773:Drivers/STM32L1xx_HAL_Driver/Src/stm32l1xx_hal_adc.c ****     /* bits in access mode read only, no direct reset applicable*/
 774:Drivers/STM32L1xx_HAL_Driver/Src/stm32l1xx_hal_adc.c ****     
 775:Drivers/STM32L1xx_HAL_Driver/Src/stm32l1xx_hal_adc.c ****     /* Reset register CCR */
 776:Drivers/STM32L1xx_HAL_Driver/Src/stm32l1xx_hal_adc.c ****     CLEAR_BIT(ADC->CCR, ADC_CCR_TSVREFE);   
 777:Drivers/STM32L1xx_HAL_Driver/Src/stm32l1xx_hal_adc.c ****     
 778:Drivers/STM32L1xx_HAL_Driver/Src/stm32l1xx_hal_adc.c ****     /* ========== Hard reset ADC peripheral ========== */
 779:Drivers/STM32L1xx_HAL_Driver/Src/stm32l1xx_hal_adc.c ****     /* Performs a global reset of the entire ADC peripheral: ADC state is     */
 780:Drivers/STM32L1xx_HAL_Driver/Src/stm32l1xx_hal_adc.c ****     /* forced to a similar state after device power-on.                       */
 781:Drivers/STM32L1xx_HAL_Driver/Src/stm32l1xx_hal_adc.c ****     /* If needed, copy-paste and uncomment the following reset code into      */
 782:Drivers/STM32L1xx_HAL_Driver/Src/stm32l1xx_hal_adc.c ****     /* function "void HAL_ADC_MspInit(ADC_HandleTypeDef* hadc)":              */
 783:Drivers/STM32L1xx_HAL_Driver/Src/stm32l1xx_hal_adc.c ****     /*                                                                        */
 784:Drivers/STM32L1xx_HAL_Driver/Src/stm32l1xx_hal_adc.c ****     /*  __HAL_RCC_ADC1_FORCE_RESET()                                          */
 785:Drivers/STM32L1xx_HAL_Driver/Src/stm32l1xx_hal_adc.c ****     /*  __HAL_RCC_ADC1_RELEASE_RESET()                                        */
 786:Drivers/STM32L1xx_HAL_Driver/Src/stm32l1xx_hal_adc.c ****     
 787:Drivers/STM32L1xx_HAL_Driver/Src/stm32l1xx_hal_adc.c **** #if (USE_HAL_ADC_REGISTER_CALLBACKS == 1)
 788:Drivers/STM32L1xx_HAL_Driver/Src/stm32l1xx_hal_adc.c ****     if (hadc->MspDeInitCallback == NULL)
 789:Drivers/STM32L1xx_HAL_Driver/Src/stm32l1xx_hal_adc.c ****     {
 790:Drivers/STM32L1xx_HAL_Driver/Src/stm32l1xx_hal_adc.c ****       hadc->MspDeInitCallback = HAL_ADC_MspDeInit; /* Legacy weak MspDeInit  */
 791:Drivers/STM32L1xx_HAL_Driver/Src/stm32l1xx_hal_adc.c ****     }
 792:Drivers/STM32L1xx_HAL_Driver/Src/stm32l1xx_hal_adc.c ****     
 793:Drivers/STM32L1xx_HAL_Driver/Src/stm32l1xx_hal_adc.c ****     /* DeInit the low level hardware */
 794:Drivers/STM32L1xx_HAL_Driver/Src/stm32l1xx_hal_adc.c ****     hadc->MspDeInitCallback(hadc);
 795:Drivers/STM32L1xx_HAL_Driver/Src/stm32l1xx_hal_adc.c **** #else
 796:Drivers/STM32L1xx_HAL_Driver/Src/stm32l1xx_hal_adc.c ****     /* DeInit the low level hardware */
 797:Drivers/STM32L1xx_HAL_Driver/Src/stm32l1xx_hal_adc.c ****     HAL_ADC_MspDeInit(hadc);
 798:Drivers/STM32L1xx_HAL_Driver/Src/stm32l1xx_hal_adc.c **** #endif /* USE_HAL_ADC_REGISTER_CALLBACKS */
 799:Drivers/STM32L1xx_HAL_Driver/Src/stm32l1xx_hal_adc.c ****     
 800:Drivers/STM32L1xx_HAL_Driver/Src/stm32l1xx_hal_adc.c ****     /* Set ADC error code to none */
 801:Drivers/STM32L1xx_HAL_Driver/Src/stm32l1xx_hal_adc.c ****     ADC_CLEAR_ERRORCODE(hadc);
 802:Drivers/STM32L1xx_HAL_Driver/Src/stm32l1xx_hal_adc.c ****     
 803:Drivers/STM32L1xx_HAL_Driver/Src/stm32l1xx_hal_adc.c ****     /* Set ADC state */
 804:Drivers/STM32L1xx_HAL_Driver/Src/stm32l1xx_hal_adc.c ****     hadc->State = HAL_ADC_STATE_RESET;
 805:Drivers/STM32L1xx_HAL_Driver/Src/stm32l1xx_hal_adc.c ****     
 806:Drivers/STM32L1xx_HAL_Driver/Src/stm32l1xx_hal_adc.c ****   }
 807:Drivers/STM32L1xx_HAL_Driver/Src/stm32l1xx_hal_adc.c ****   
 808:Drivers/STM32L1xx_HAL_Driver/Src/stm32l1xx_hal_adc.c ****   /* Process unlocked */
 809:Drivers/STM32L1xx_HAL_Driver/Src/stm32l1xx_hal_adc.c ****   __HAL_UNLOCK(hadc);
 810:Drivers/STM32L1xx_HAL_Driver/Src/stm32l1xx_hal_adc.c ****   
 811:Drivers/STM32L1xx_HAL_Driver/Src/stm32l1xx_hal_adc.c ****   /* Return function status */
 812:Drivers/STM32L1xx_HAL_Driver/Src/stm32l1xx_hal_adc.c ****   return tmp_hal_status;
 813:Drivers/STM32L1xx_HAL_Driver/Src/stm32l1xx_hal_adc.c **** }
 814:Drivers/STM32L1xx_HAL_Driver/Src/stm32l1xx_hal_adc.c **** 
 815:Drivers/STM32L1xx_HAL_Driver/Src/stm32l1xx_hal_adc.c **** /**
 816:Drivers/STM32L1xx_HAL_Driver/Src/stm32l1xx_hal_adc.c ****   * @brief  Initializes the ADC MSP.
 817:Drivers/STM32L1xx_HAL_Driver/Src/stm32l1xx_hal_adc.c ****   * @param  hadc ADC handle
 818:Drivers/STM32L1xx_HAL_Driver/Src/stm32l1xx_hal_adc.c ****   * @retval None
 819:Drivers/STM32L1xx_HAL_Driver/Src/stm32l1xx_hal_adc.c ****   */
 820:Drivers/STM32L1xx_HAL_Driver/Src/stm32l1xx_hal_adc.c **** __weak void HAL_ADC_MspInit(ADC_HandleTypeDef* hadc)
 821:Drivers/STM32L1xx_HAL_Driver/Src/stm32l1xx_hal_adc.c **** {
  28              		.loc 1 821 1 view -0
  29              		.cfi_startproc
  30              		@ args = 0, pretend = 0, frame = 0
  31              		@ frame_needed = 0, uses_anonymous_args = 0
  32              		@ link register save eliminated.
 822:Drivers/STM32L1xx_HAL_Driver/Src/stm32l1xx_hal_adc.c ****   /* Prevent unused argument(s) compilation warning */
 823:Drivers/STM32L1xx_HAL_Driver/Src/stm32l1xx_hal_adc.c ****   UNUSED(hadc);
  33              		.loc 1 823 3 view .LVU1
ARM GAS  C:\Users\cedri\AppData\Local\Temp\cc9WRHZF.s 			page 16


 824:Drivers/STM32L1xx_HAL_Driver/Src/stm32l1xx_hal_adc.c **** 
 825:Drivers/STM32L1xx_HAL_Driver/Src/stm32l1xx_hal_adc.c ****   /* NOTE : This function should not be modified. When the callback is needed,
 826:Drivers/STM32L1xx_HAL_Driver/Src/stm32l1xx_hal_adc.c ****             function HAL_ADC_MspInit must be implemented in the user file.
 827:Drivers/STM32L1xx_HAL_Driver/Src/stm32l1xx_hal_adc.c ****    */ 
 828:Drivers/STM32L1xx_HAL_Driver/Src/stm32l1xx_hal_adc.c **** }
  34              		.loc 1 828 1 is_stmt 0 view .LVU2
  35 0000 7047     		bx	lr
  36              		.cfi_endproc
  37              	.LFE74:
  39              		.section	.text.HAL_ADC_Init,"ax",%progbits
  40              		.align	1
  41              		.global	HAL_ADC_Init
  42              		.syntax unified
  43              		.thumb
  44              		.thumb_func
  46              	HAL_ADC_Init:
  47              	.LVL1:
  48              	.LFB72:
 423:Drivers/STM32L1xx_HAL_Driver/Src/stm32l1xx_hal_adc.c ****   HAL_StatusTypeDef tmp_hal_status = HAL_OK;
  49              		.loc 1 423 1 is_stmt 1 view -0
  50              		.cfi_startproc
  51              		@ args = 0, pretend = 0, frame = 8
  52              		@ frame_needed = 0, uses_anonymous_args = 0
 424:Drivers/STM32L1xx_HAL_Driver/Src/stm32l1xx_hal_adc.c ****   uint32_t tmp_cr1 = 0;
  53              		.loc 1 424 3 view .LVU4
 425:Drivers/STM32L1xx_HAL_Driver/Src/stm32l1xx_hal_adc.c ****   uint32_t tmp_cr2 = 0;
  54              		.loc 1 425 3 view .LVU5
 426:Drivers/STM32L1xx_HAL_Driver/Src/stm32l1xx_hal_adc.c ****   
  55              		.loc 1 426 3 view .LVU6
 429:Drivers/STM32L1xx_HAL_Driver/Src/stm32l1xx_hal_adc.c ****   {
  56              		.loc 1 429 3 view .LVU7
 429:Drivers/STM32L1xx_HAL_Driver/Src/stm32l1xx_hal_adc.c ****   {
  57              		.loc 1 429 5 is_stmt 0 view .LVU8
  58 0000 0028     		cmp	r0, #0
  59 0002 00F0BC80 		beq	.L14
 423:Drivers/STM32L1xx_HAL_Driver/Src/stm32l1xx_hal_adc.c ****   HAL_StatusTypeDef tmp_hal_status = HAL_OK;
  60              		.loc 1 423 1 view .LVU9
  61 0006 70B5     		push	{r4, r5, r6, lr}
  62              	.LCFI0:
  63              		.cfi_def_cfa_offset 16
  64              		.cfi_offset 4, -16
  65              		.cfi_offset 5, -12
  66              		.cfi_offset 6, -8
  67              		.cfi_offset 14, -4
  68 0008 82B0     		sub	sp, sp, #8
  69              	.LCFI1:
  70              		.cfi_def_cfa_offset 24
  71 000a 0446     		mov	r4, r0
 435:Drivers/STM32L1xx_HAL_Driver/Src/stm32l1xx_hal_adc.c ****   assert_param(IS_ADC_CLOCKPRESCALER(hadc->Init.ClockPrescaler));
  72              		.loc 1 435 3 is_stmt 1 view .LVU10
 436:Drivers/STM32L1xx_HAL_Driver/Src/stm32l1xx_hal_adc.c ****   assert_param(IS_ADC_RESOLUTION(hadc->Init.Resolution));
  73              		.loc 1 436 3 view .LVU11
 437:Drivers/STM32L1xx_HAL_Driver/Src/stm32l1xx_hal_adc.c ****   assert_param(IS_ADC_DATA_ALIGN(hadc->Init.DataAlign)); 
  74              		.loc 1 437 3 view .LVU12
 438:Drivers/STM32L1xx_HAL_Driver/Src/stm32l1xx_hal_adc.c ****   assert_param(IS_ADC_SCAN_MODE(hadc->Init.ScanConvMode));
  75              		.loc 1 438 3 view .LVU13
 439:Drivers/STM32L1xx_HAL_Driver/Src/stm32l1xx_hal_adc.c ****   assert_param(IS_ADC_EOC_SELECTION(hadc->Init.EOCSelection));
ARM GAS  C:\Users\cedri\AppData\Local\Temp\cc9WRHZF.s 			page 17


  76              		.loc 1 439 3 view .LVU14
 440:Drivers/STM32L1xx_HAL_Driver/Src/stm32l1xx_hal_adc.c ****   assert_param(IS_ADC_AUTOWAIT(hadc->Init.LowPowerAutoWait));
  77              		.loc 1 440 3 view .LVU15
 441:Drivers/STM32L1xx_HAL_Driver/Src/stm32l1xx_hal_adc.c ****   assert_param(IS_ADC_AUTOPOWEROFF(hadc->Init.LowPowerAutoPowerOff));
  78              		.loc 1 441 3 view .LVU16
 442:Drivers/STM32L1xx_HAL_Driver/Src/stm32l1xx_hal_adc.c ****   assert_param(IS_ADC_CHANNELSBANK(hadc->Init.ChannelsBank));
  79              		.loc 1 442 3 view .LVU17
 443:Drivers/STM32L1xx_HAL_Driver/Src/stm32l1xx_hal_adc.c ****   assert_param(IS_FUNCTIONAL_STATE(hadc->Init.ContinuousConvMode));
  80              		.loc 1 443 3 view .LVU18
 444:Drivers/STM32L1xx_HAL_Driver/Src/stm32l1xx_hal_adc.c ****   assert_param(IS_ADC_EXTTRIG(hadc->Init.ExternalTrigConv));
  81              		.loc 1 444 3 view .LVU19
 445:Drivers/STM32L1xx_HAL_Driver/Src/stm32l1xx_hal_adc.c ****   assert_param(IS_FUNCTIONAL_STATE(hadc->Init.DMAContinuousRequests));
  82              		.loc 1 445 3 view .LVU20
 446:Drivers/STM32L1xx_HAL_Driver/Src/stm32l1xx_hal_adc.c ****   
  83              		.loc 1 446 3 view .LVU21
 448:Drivers/STM32L1xx_HAL_Driver/Src/stm32l1xx_hal_adc.c ****   {
  84              		.loc 1 448 3 view .LVU22
 454:Drivers/STM32L1xx_HAL_Driver/Src/stm32l1xx_hal_adc.c ****     }
  85              		.loc 1 454 7 view .LVU23
 458:Drivers/STM32L1xx_HAL_Driver/Src/stm32l1xx_hal_adc.c ****   {
  86              		.loc 1 458 3 view .LVU24
 460:Drivers/STM32L1xx_HAL_Driver/Src/stm32l1xx_hal_adc.c ****   }
  87              		.loc 1 460 5 view .LVU25
 471:Drivers/STM32L1xx_HAL_Driver/Src/stm32l1xx_hal_adc.c ****   {
  88              		.loc 1 471 3 view .LVU26
 471:Drivers/STM32L1xx_HAL_Driver/Src/stm32l1xx_hal_adc.c ****   {
  89              		.loc 1 471 11 is_stmt 0 view .LVU27
  90 000c C36C     		ldr	r3, [r0, #76]
 471:Drivers/STM32L1xx_HAL_Driver/Src/stm32l1xx_hal_adc.c ****   {
  91              		.loc 1 471 6 view .LVU28
  92 000e 002B     		cmp	r3, #0
  93 0010 5FD0     		beq	.L21
  94              	.LVL2:
  95              	.L4:
 505:Drivers/STM32L1xx_HAL_Driver/Src/stm32l1xx_hal_adc.c ****   {
  96              		.loc 1 505 3 is_stmt 1 view .LVU29
 505:Drivers/STM32L1xx_HAL_Driver/Src/stm32l1xx_hal_adc.c ****   {
  97              		.loc 1 505 7 is_stmt 0 view .LVU30
  98 0012 E36C     		ldr	r3, [r4, #76]
 505:Drivers/STM32L1xx_HAL_Driver/Src/stm32l1xx_hal_adc.c ****   {
  99              		.loc 1 505 6 view .LVU31
 100 0014 13F0100F 		tst	r3, #16
 101 0018 40F0B380 		bne	.L15
 508:Drivers/STM32L1xx_HAL_Driver/Src/stm32l1xx_hal_adc.c ****                       HAL_ADC_STATE_REG_BUSY | HAL_ADC_STATE_INJ_BUSY,
 102              		.loc 1 508 5 is_stmt 1 view .LVU32
 103 001c E36C     		ldr	r3, [r4, #76]
 104 001e 23F48853 		bic	r3, r3, #4352
 105 0022 23F00203 		bic	r3, r3, #2
 106 0026 43F00203 		orr	r3, r3, #2
 107 002a E364     		str	r3, [r4, #76]
 516:Drivers/STM32L1xx_HAL_Driver/Src/stm32l1xx_hal_adc.c ****                ADC_CCR_ADCPRE           ,
 108              		.loc 1 516 5 view .LVU33
 109 002c 564A     		ldr	r2, .L25
 110 002e 5368     		ldr	r3, [r2, #4]
 111 0030 23F44033 		bic	r3, r3, #196608
 112 0034 6168     		ldr	r1, [r4, #4]
 113 0036 0B43     		orrs	r3, r3, r1
ARM GAS  C:\Users\cedri\AppData\Local\Temp\cc9WRHZF.s 			page 18


 114 0038 5360     		str	r3, [r2, #4]
 526:Drivers/STM32L1xx_HAL_Driver/Src/stm32l1xx_hal_adc.c ****                 hadc->Init.EOCSelection                                        |
 115              		.loc 1 526 5 view .LVU34
 526:Drivers/STM32L1xx_HAL_Driver/Src/stm32l1xx_hal_adc.c ****                 hadc->Init.EOCSelection                                        |
 116              		.loc 1 526 27 is_stmt 0 view .LVU35
 117 003a E368     		ldr	r3, [r4, #12]
 527:Drivers/STM32L1xx_HAL_Driver/Src/stm32l1xx_hal_adc.c ****                 ADC_CR2_DMACONTREQ((uint32_t)hadc->Init.DMAContinuousRequests) |
 118              		.loc 1 527 27 view .LVU36
 119 003c 6269     		ldr	r2, [r4, #20]
 526:Drivers/STM32L1xx_HAL_Driver/Src/stm32l1xx_hal_adc.c ****                 hadc->Init.EOCSelection                                        |
 120              		.loc 1 526 80 view .LVU37
 121 003e 1343     		orrs	r3, r3, r2
 528:Drivers/STM32L1xx_HAL_Driver/Src/stm32l1xx_hal_adc.c ****                 hadc->Init.ChannelsBank                                        |
 122              		.loc 1 528 17 view .LVU38
 123 0040 94F83C10 		ldrb	r1, [r4, #60]	@ zero_extendqisi2
 124              	.LVL3:
 125              	.LBB11:
 126              	.LBI11:
 127              		.file 2 "Drivers/CMSIS/Include/cmsis_gcc.h"
   1:Drivers/CMSIS/Include/cmsis_gcc.h **** /**************************************************************************//**
   2:Drivers/CMSIS/Include/cmsis_gcc.h ****  * @file     cmsis_gcc.h
   3:Drivers/CMSIS/Include/cmsis_gcc.h ****  * @brief    CMSIS compiler GCC header file
   4:Drivers/CMSIS/Include/cmsis_gcc.h ****  * @version  V5.0.4
   5:Drivers/CMSIS/Include/cmsis_gcc.h ****  * @date     09. April 2018
   6:Drivers/CMSIS/Include/cmsis_gcc.h ****  ******************************************************************************/
   7:Drivers/CMSIS/Include/cmsis_gcc.h **** /*
   8:Drivers/CMSIS/Include/cmsis_gcc.h ****  * Copyright (c) 2009-2018 Arm Limited. All rights reserved.
   9:Drivers/CMSIS/Include/cmsis_gcc.h ****  *
  10:Drivers/CMSIS/Include/cmsis_gcc.h ****  * SPDX-License-Identifier: Apache-2.0
  11:Drivers/CMSIS/Include/cmsis_gcc.h ****  *
  12:Drivers/CMSIS/Include/cmsis_gcc.h ****  * Licensed under the Apache License, Version 2.0 (the License); you may
  13:Drivers/CMSIS/Include/cmsis_gcc.h ****  * not use this file except in compliance with the License.
  14:Drivers/CMSIS/Include/cmsis_gcc.h ****  * You may obtain a copy of the License at
  15:Drivers/CMSIS/Include/cmsis_gcc.h ****  *
  16:Drivers/CMSIS/Include/cmsis_gcc.h ****  * www.apache.org/licenses/LICENSE-2.0
  17:Drivers/CMSIS/Include/cmsis_gcc.h ****  *
  18:Drivers/CMSIS/Include/cmsis_gcc.h ****  * Unless required by applicable law or agreed to in writing, software
  19:Drivers/CMSIS/Include/cmsis_gcc.h ****  * distributed under the License is distributed on an AS IS BASIS, WITHOUT
  20:Drivers/CMSIS/Include/cmsis_gcc.h ****  * WARRANTIES OR CONDITIONS OF ANY KIND, either express or implied.
  21:Drivers/CMSIS/Include/cmsis_gcc.h ****  * See the License for the specific language governing permissions and
  22:Drivers/CMSIS/Include/cmsis_gcc.h ****  * limitations under the License.
  23:Drivers/CMSIS/Include/cmsis_gcc.h ****  */
  24:Drivers/CMSIS/Include/cmsis_gcc.h **** 
  25:Drivers/CMSIS/Include/cmsis_gcc.h **** #ifndef __CMSIS_GCC_H
  26:Drivers/CMSIS/Include/cmsis_gcc.h **** #define __CMSIS_GCC_H
  27:Drivers/CMSIS/Include/cmsis_gcc.h **** 
  28:Drivers/CMSIS/Include/cmsis_gcc.h **** /* ignore some GCC warnings */
  29:Drivers/CMSIS/Include/cmsis_gcc.h **** #pragma GCC diagnostic push
  30:Drivers/CMSIS/Include/cmsis_gcc.h **** #pragma GCC diagnostic ignored "-Wsign-conversion"
  31:Drivers/CMSIS/Include/cmsis_gcc.h **** #pragma GCC diagnostic ignored "-Wconversion"
  32:Drivers/CMSIS/Include/cmsis_gcc.h **** #pragma GCC diagnostic ignored "-Wunused-parameter"
  33:Drivers/CMSIS/Include/cmsis_gcc.h **** 
  34:Drivers/CMSIS/Include/cmsis_gcc.h **** /* Fallback for __has_builtin */
  35:Drivers/CMSIS/Include/cmsis_gcc.h **** #ifndef __has_builtin
  36:Drivers/CMSIS/Include/cmsis_gcc.h ****   #define __has_builtin(x) (0)
  37:Drivers/CMSIS/Include/cmsis_gcc.h **** #endif
  38:Drivers/CMSIS/Include/cmsis_gcc.h **** 
ARM GAS  C:\Users\cedri\AppData\Local\Temp\cc9WRHZF.s 			page 19


  39:Drivers/CMSIS/Include/cmsis_gcc.h **** /* CMSIS compiler specific defines */
  40:Drivers/CMSIS/Include/cmsis_gcc.h **** #ifndef   __ASM
  41:Drivers/CMSIS/Include/cmsis_gcc.h ****   #define __ASM                                  __asm
  42:Drivers/CMSIS/Include/cmsis_gcc.h **** #endif
  43:Drivers/CMSIS/Include/cmsis_gcc.h **** #ifndef   __INLINE
  44:Drivers/CMSIS/Include/cmsis_gcc.h ****   #define __INLINE                               inline
  45:Drivers/CMSIS/Include/cmsis_gcc.h **** #endif
  46:Drivers/CMSIS/Include/cmsis_gcc.h **** #ifndef   __STATIC_INLINE
  47:Drivers/CMSIS/Include/cmsis_gcc.h ****   #define __STATIC_INLINE                        static inline
  48:Drivers/CMSIS/Include/cmsis_gcc.h **** #endif
  49:Drivers/CMSIS/Include/cmsis_gcc.h **** #ifndef   __STATIC_FORCEINLINE                 
  50:Drivers/CMSIS/Include/cmsis_gcc.h ****   #define __STATIC_FORCEINLINE                   __attribute__((always_inline)) static inline
  51:Drivers/CMSIS/Include/cmsis_gcc.h **** #endif                                           
  52:Drivers/CMSIS/Include/cmsis_gcc.h **** #ifndef   __NO_RETURN
  53:Drivers/CMSIS/Include/cmsis_gcc.h ****   #define __NO_RETURN                            __attribute__((__noreturn__))
  54:Drivers/CMSIS/Include/cmsis_gcc.h **** #endif
  55:Drivers/CMSIS/Include/cmsis_gcc.h **** #ifndef   __USED
  56:Drivers/CMSIS/Include/cmsis_gcc.h ****   #define __USED                                 __attribute__((used))
  57:Drivers/CMSIS/Include/cmsis_gcc.h **** #endif
  58:Drivers/CMSIS/Include/cmsis_gcc.h **** #ifndef   __WEAK
  59:Drivers/CMSIS/Include/cmsis_gcc.h ****   #define __WEAK                                 __attribute__((weak))
  60:Drivers/CMSIS/Include/cmsis_gcc.h **** #endif
  61:Drivers/CMSIS/Include/cmsis_gcc.h **** #ifndef   __PACKED
  62:Drivers/CMSIS/Include/cmsis_gcc.h ****   #define __PACKED                               __attribute__((packed, aligned(1)))
  63:Drivers/CMSIS/Include/cmsis_gcc.h **** #endif
  64:Drivers/CMSIS/Include/cmsis_gcc.h **** #ifndef   __PACKED_STRUCT
  65:Drivers/CMSIS/Include/cmsis_gcc.h ****   #define __PACKED_STRUCT                        struct __attribute__((packed, aligned(1)))
  66:Drivers/CMSIS/Include/cmsis_gcc.h **** #endif
  67:Drivers/CMSIS/Include/cmsis_gcc.h **** #ifndef   __PACKED_UNION
  68:Drivers/CMSIS/Include/cmsis_gcc.h ****   #define __PACKED_UNION                         union __attribute__((packed, aligned(1)))
  69:Drivers/CMSIS/Include/cmsis_gcc.h **** #endif
  70:Drivers/CMSIS/Include/cmsis_gcc.h **** #ifndef   __UNALIGNED_UINT32        /* deprecated */
  71:Drivers/CMSIS/Include/cmsis_gcc.h ****   #pragma GCC diagnostic push
  72:Drivers/CMSIS/Include/cmsis_gcc.h ****   #pragma GCC diagnostic ignored "-Wpacked"
  73:Drivers/CMSIS/Include/cmsis_gcc.h ****   #pragma GCC diagnostic ignored "-Wattributes"
  74:Drivers/CMSIS/Include/cmsis_gcc.h ****   struct __attribute__((packed)) T_UINT32 { uint32_t v; };
  75:Drivers/CMSIS/Include/cmsis_gcc.h ****   #pragma GCC diagnostic pop
  76:Drivers/CMSIS/Include/cmsis_gcc.h ****   #define __UNALIGNED_UINT32(x)                  (((struct T_UINT32 *)(x))->v)
  77:Drivers/CMSIS/Include/cmsis_gcc.h **** #endif
  78:Drivers/CMSIS/Include/cmsis_gcc.h **** #ifndef   __UNALIGNED_UINT16_WRITE
  79:Drivers/CMSIS/Include/cmsis_gcc.h ****   #pragma GCC diagnostic push
  80:Drivers/CMSIS/Include/cmsis_gcc.h ****   #pragma GCC diagnostic ignored "-Wpacked"
  81:Drivers/CMSIS/Include/cmsis_gcc.h ****   #pragma GCC diagnostic ignored "-Wattributes"
  82:Drivers/CMSIS/Include/cmsis_gcc.h ****   __PACKED_STRUCT T_UINT16_WRITE { uint16_t v; };
  83:Drivers/CMSIS/Include/cmsis_gcc.h ****   #pragma GCC diagnostic pop
  84:Drivers/CMSIS/Include/cmsis_gcc.h ****   #define __UNALIGNED_UINT16_WRITE(addr, val)    (void)((((struct T_UINT16_WRITE *)(void *)(addr))-
  85:Drivers/CMSIS/Include/cmsis_gcc.h **** #endif
  86:Drivers/CMSIS/Include/cmsis_gcc.h **** #ifndef   __UNALIGNED_UINT16_READ
  87:Drivers/CMSIS/Include/cmsis_gcc.h ****   #pragma GCC diagnostic push
  88:Drivers/CMSIS/Include/cmsis_gcc.h ****   #pragma GCC diagnostic ignored "-Wpacked"
  89:Drivers/CMSIS/Include/cmsis_gcc.h ****   #pragma GCC diagnostic ignored "-Wattributes"
  90:Drivers/CMSIS/Include/cmsis_gcc.h ****   __PACKED_STRUCT T_UINT16_READ { uint16_t v; };
  91:Drivers/CMSIS/Include/cmsis_gcc.h ****   #pragma GCC diagnostic pop
  92:Drivers/CMSIS/Include/cmsis_gcc.h ****   #define __UNALIGNED_UINT16_READ(addr)          (((const struct T_UINT16_READ *)(const void *)(add
  93:Drivers/CMSIS/Include/cmsis_gcc.h **** #endif
  94:Drivers/CMSIS/Include/cmsis_gcc.h **** #ifndef   __UNALIGNED_UINT32_WRITE
  95:Drivers/CMSIS/Include/cmsis_gcc.h ****   #pragma GCC diagnostic push
ARM GAS  C:\Users\cedri\AppData\Local\Temp\cc9WRHZF.s 			page 20


  96:Drivers/CMSIS/Include/cmsis_gcc.h ****   #pragma GCC diagnostic ignored "-Wpacked"
  97:Drivers/CMSIS/Include/cmsis_gcc.h ****   #pragma GCC diagnostic ignored "-Wattributes"
  98:Drivers/CMSIS/Include/cmsis_gcc.h ****   __PACKED_STRUCT T_UINT32_WRITE { uint32_t v; };
  99:Drivers/CMSIS/Include/cmsis_gcc.h ****   #pragma GCC diagnostic pop
 100:Drivers/CMSIS/Include/cmsis_gcc.h ****   #define __UNALIGNED_UINT32_WRITE(addr, val)    (void)((((struct T_UINT32_WRITE *)(void *)(addr))-
 101:Drivers/CMSIS/Include/cmsis_gcc.h **** #endif
 102:Drivers/CMSIS/Include/cmsis_gcc.h **** #ifndef   __UNALIGNED_UINT32_READ
 103:Drivers/CMSIS/Include/cmsis_gcc.h ****   #pragma GCC diagnostic push
 104:Drivers/CMSIS/Include/cmsis_gcc.h ****   #pragma GCC diagnostic ignored "-Wpacked"
 105:Drivers/CMSIS/Include/cmsis_gcc.h ****   #pragma GCC diagnostic ignored "-Wattributes"
 106:Drivers/CMSIS/Include/cmsis_gcc.h ****   __PACKED_STRUCT T_UINT32_READ { uint32_t v; };
 107:Drivers/CMSIS/Include/cmsis_gcc.h ****   #pragma GCC diagnostic pop
 108:Drivers/CMSIS/Include/cmsis_gcc.h ****   #define __UNALIGNED_UINT32_READ(addr)          (((const struct T_UINT32_READ *)(const void *)(add
 109:Drivers/CMSIS/Include/cmsis_gcc.h **** #endif
 110:Drivers/CMSIS/Include/cmsis_gcc.h **** #ifndef   __ALIGNED
 111:Drivers/CMSIS/Include/cmsis_gcc.h ****   #define __ALIGNED(x)                           __attribute__((aligned(x)))
 112:Drivers/CMSIS/Include/cmsis_gcc.h **** #endif
 113:Drivers/CMSIS/Include/cmsis_gcc.h **** #ifndef   __RESTRICT
 114:Drivers/CMSIS/Include/cmsis_gcc.h ****   #define __RESTRICT                             __restrict
 115:Drivers/CMSIS/Include/cmsis_gcc.h **** #endif
 116:Drivers/CMSIS/Include/cmsis_gcc.h **** 
 117:Drivers/CMSIS/Include/cmsis_gcc.h **** 
 118:Drivers/CMSIS/Include/cmsis_gcc.h **** /* ###########################  Core Function Access  ########################### */
 119:Drivers/CMSIS/Include/cmsis_gcc.h **** /** \ingroup  CMSIS_Core_FunctionInterface
 120:Drivers/CMSIS/Include/cmsis_gcc.h ****     \defgroup CMSIS_Core_RegAccFunctions CMSIS Core Register Access Functions
 121:Drivers/CMSIS/Include/cmsis_gcc.h ****   @{
 122:Drivers/CMSIS/Include/cmsis_gcc.h ****  */
 123:Drivers/CMSIS/Include/cmsis_gcc.h **** 
 124:Drivers/CMSIS/Include/cmsis_gcc.h **** /**
 125:Drivers/CMSIS/Include/cmsis_gcc.h ****   \brief   Enable IRQ Interrupts
 126:Drivers/CMSIS/Include/cmsis_gcc.h ****   \details Enables IRQ interrupts by clearing the I-bit in the CPSR.
 127:Drivers/CMSIS/Include/cmsis_gcc.h ****            Can only be executed in Privileged modes.
 128:Drivers/CMSIS/Include/cmsis_gcc.h ****  */
 129:Drivers/CMSIS/Include/cmsis_gcc.h **** __STATIC_FORCEINLINE void __enable_irq(void)
 130:Drivers/CMSIS/Include/cmsis_gcc.h **** {
 131:Drivers/CMSIS/Include/cmsis_gcc.h ****   __ASM volatile ("cpsie i" : : : "memory");
 132:Drivers/CMSIS/Include/cmsis_gcc.h **** }
 133:Drivers/CMSIS/Include/cmsis_gcc.h **** 
 134:Drivers/CMSIS/Include/cmsis_gcc.h **** 
 135:Drivers/CMSIS/Include/cmsis_gcc.h **** /**
 136:Drivers/CMSIS/Include/cmsis_gcc.h ****   \brief   Disable IRQ Interrupts
 137:Drivers/CMSIS/Include/cmsis_gcc.h ****   \details Disables IRQ interrupts by setting the I-bit in the CPSR.
 138:Drivers/CMSIS/Include/cmsis_gcc.h ****            Can only be executed in Privileged modes.
 139:Drivers/CMSIS/Include/cmsis_gcc.h ****  */
 140:Drivers/CMSIS/Include/cmsis_gcc.h **** __STATIC_FORCEINLINE void __disable_irq(void)
 141:Drivers/CMSIS/Include/cmsis_gcc.h **** {
 142:Drivers/CMSIS/Include/cmsis_gcc.h ****   __ASM volatile ("cpsid i" : : : "memory");
 143:Drivers/CMSIS/Include/cmsis_gcc.h **** }
 144:Drivers/CMSIS/Include/cmsis_gcc.h **** 
 145:Drivers/CMSIS/Include/cmsis_gcc.h **** 
 146:Drivers/CMSIS/Include/cmsis_gcc.h **** /**
 147:Drivers/CMSIS/Include/cmsis_gcc.h ****   \brief   Get Control Register
 148:Drivers/CMSIS/Include/cmsis_gcc.h ****   \details Returns the content of the Control Register.
 149:Drivers/CMSIS/Include/cmsis_gcc.h ****   \return               Control Register value
 150:Drivers/CMSIS/Include/cmsis_gcc.h ****  */
 151:Drivers/CMSIS/Include/cmsis_gcc.h **** __STATIC_FORCEINLINE uint32_t __get_CONTROL(void)
 152:Drivers/CMSIS/Include/cmsis_gcc.h **** {
ARM GAS  C:\Users\cedri\AppData\Local\Temp\cc9WRHZF.s 			page 21


 153:Drivers/CMSIS/Include/cmsis_gcc.h ****   uint32_t result;
 154:Drivers/CMSIS/Include/cmsis_gcc.h **** 
 155:Drivers/CMSIS/Include/cmsis_gcc.h ****   __ASM volatile ("MRS %0, control" : "=r" (result) );
 156:Drivers/CMSIS/Include/cmsis_gcc.h ****   return(result);
 157:Drivers/CMSIS/Include/cmsis_gcc.h **** }
 158:Drivers/CMSIS/Include/cmsis_gcc.h **** 
 159:Drivers/CMSIS/Include/cmsis_gcc.h **** 
 160:Drivers/CMSIS/Include/cmsis_gcc.h **** #if (defined (__ARM_FEATURE_CMSE ) && (__ARM_FEATURE_CMSE == 3))
 161:Drivers/CMSIS/Include/cmsis_gcc.h **** /**
 162:Drivers/CMSIS/Include/cmsis_gcc.h ****   \brief   Get Control Register (non-secure)
 163:Drivers/CMSIS/Include/cmsis_gcc.h ****   \details Returns the content of the non-secure Control Register when in secure mode.
 164:Drivers/CMSIS/Include/cmsis_gcc.h ****   \return               non-secure Control Register value
 165:Drivers/CMSIS/Include/cmsis_gcc.h ****  */
 166:Drivers/CMSIS/Include/cmsis_gcc.h **** __STATIC_FORCEINLINE uint32_t __TZ_get_CONTROL_NS(void)
 167:Drivers/CMSIS/Include/cmsis_gcc.h **** {
 168:Drivers/CMSIS/Include/cmsis_gcc.h ****   uint32_t result;
 169:Drivers/CMSIS/Include/cmsis_gcc.h **** 
 170:Drivers/CMSIS/Include/cmsis_gcc.h ****   __ASM volatile ("MRS %0, control_ns" : "=r" (result) );
 171:Drivers/CMSIS/Include/cmsis_gcc.h ****   return(result);
 172:Drivers/CMSIS/Include/cmsis_gcc.h **** }
 173:Drivers/CMSIS/Include/cmsis_gcc.h **** #endif
 174:Drivers/CMSIS/Include/cmsis_gcc.h **** 
 175:Drivers/CMSIS/Include/cmsis_gcc.h **** 
 176:Drivers/CMSIS/Include/cmsis_gcc.h **** /**
 177:Drivers/CMSIS/Include/cmsis_gcc.h ****   \brief   Set Control Register
 178:Drivers/CMSIS/Include/cmsis_gcc.h ****   \details Writes the given value to the Control Register.
 179:Drivers/CMSIS/Include/cmsis_gcc.h ****   \param [in]    control  Control Register value to set
 180:Drivers/CMSIS/Include/cmsis_gcc.h ****  */
 181:Drivers/CMSIS/Include/cmsis_gcc.h **** __STATIC_FORCEINLINE void __set_CONTROL(uint32_t control)
 182:Drivers/CMSIS/Include/cmsis_gcc.h **** {
 183:Drivers/CMSIS/Include/cmsis_gcc.h ****   __ASM volatile ("MSR control, %0" : : "r" (control) : "memory");
 184:Drivers/CMSIS/Include/cmsis_gcc.h **** }
 185:Drivers/CMSIS/Include/cmsis_gcc.h **** 
 186:Drivers/CMSIS/Include/cmsis_gcc.h **** 
 187:Drivers/CMSIS/Include/cmsis_gcc.h **** #if (defined (__ARM_FEATURE_CMSE ) && (__ARM_FEATURE_CMSE == 3))
 188:Drivers/CMSIS/Include/cmsis_gcc.h **** /**
 189:Drivers/CMSIS/Include/cmsis_gcc.h ****   \brief   Set Control Register (non-secure)
 190:Drivers/CMSIS/Include/cmsis_gcc.h ****   \details Writes the given value to the non-secure Control Register when in secure state.
 191:Drivers/CMSIS/Include/cmsis_gcc.h ****   \param [in]    control  Control Register value to set
 192:Drivers/CMSIS/Include/cmsis_gcc.h ****  */
 193:Drivers/CMSIS/Include/cmsis_gcc.h **** __STATIC_FORCEINLINE void __TZ_set_CONTROL_NS(uint32_t control)
 194:Drivers/CMSIS/Include/cmsis_gcc.h **** {
 195:Drivers/CMSIS/Include/cmsis_gcc.h ****   __ASM volatile ("MSR control_ns, %0" : : "r" (control) : "memory");
 196:Drivers/CMSIS/Include/cmsis_gcc.h **** }
 197:Drivers/CMSIS/Include/cmsis_gcc.h **** #endif
 198:Drivers/CMSIS/Include/cmsis_gcc.h **** 
 199:Drivers/CMSIS/Include/cmsis_gcc.h **** 
 200:Drivers/CMSIS/Include/cmsis_gcc.h **** /**
 201:Drivers/CMSIS/Include/cmsis_gcc.h ****   \brief   Get IPSR Register
 202:Drivers/CMSIS/Include/cmsis_gcc.h ****   \details Returns the content of the IPSR Register.
 203:Drivers/CMSIS/Include/cmsis_gcc.h ****   \return               IPSR Register value
 204:Drivers/CMSIS/Include/cmsis_gcc.h ****  */
 205:Drivers/CMSIS/Include/cmsis_gcc.h **** __STATIC_FORCEINLINE uint32_t __get_IPSR(void)
 206:Drivers/CMSIS/Include/cmsis_gcc.h **** {
 207:Drivers/CMSIS/Include/cmsis_gcc.h ****   uint32_t result;
 208:Drivers/CMSIS/Include/cmsis_gcc.h **** 
 209:Drivers/CMSIS/Include/cmsis_gcc.h ****   __ASM volatile ("MRS %0, ipsr" : "=r" (result) );
ARM GAS  C:\Users\cedri\AppData\Local\Temp\cc9WRHZF.s 			page 22


 210:Drivers/CMSIS/Include/cmsis_gcc.h ****   return(result);
 211:Drivers/CMSIS/Include/cmsis_gcc.h **** }
 212:Drivers/CMSIS/Include/cmsis_gcc.h **** 
 213:Drivers/CMSIS/Include/cmsis_gcc.h **** 
 214:Drivers/CMSIS/Include/cmsis_gcc.h **** /**
 215:Drivers/CMSIS/Include/cmsis_gcc.h ****   \brief   Get APSR Register
 216:Drivers/CMSIS/Include/cmsis_gcc.h ****   \details Returns the content of the APSR Register.
 217:Drivers/CMSIS/Include/cmsis_gcc.h ****   \return               APSR Register value
 218:Drivers/CMSIS/Include/cmsis_gcc.h ****  */
 219:Drivers/CMSIS/Include/cmsis_gcc.h **** __STATIC_FORCEINLINE uint32_t __get_APSR(void)
 220:Drivers/CMSIS/Include/cmsis_gcc.h **** {
 221:Drivers/CMSIS/Include/cmsis_gcc.h ****   uint32_t result;
 222:Drivers/CMSIS/Include/cmsis_gcc.h **** 
 223:Drivers/CMSIS/Include/cmsis_gcc.h ****   __ASM volatile ("MRS %0, apsr" : "=r" (result) );
 224:Drivers/CMSIS/Include/cmsis_gcc.h ****   return(result);
 225:Drivers/CMSIS/Include/cmsis_gcc.h **** }
 226:Drivers/CMSIS/Include/cmsis_gcc.h **** 
 227:Drivers/CMSIS/Include/cmsis_gcc.h **** 
 228:Drivers/CMSIS/Include/cmsis_gcc.h **** /**
 229:Drivers/CMSIS/Include/cmsis_gcc.h ****   \brief   Get xPSR Register
 230:Drivers/CMSIS/Include/cmsis_gcc.h ****   \details Returns the content of the xPSR Register.
 231:Drivers/CMSIS/Include/cmsis_gcc.h ****   \return               xPSR Register value
 232:Drivers/CMSIS/Include/cmsis_gcc.h ****  */
 233:Drivers/CMSIS/Include/cmsis_gcc.h **** __STATIC_FORCEINLINE uint32_t __get_xPSR(void)
 234:Drivers/CMSIS/Include/cmsis_gcc.h **** {
 235:Drivers/CMSIS/Include/cmsis_gcc.h ****   uint32_t result;
 236:Drivers/CMSIS/Include/cmsis_gcc.h **** 
 237:Drivers/CMSIS/Include/cmsis_gcc.h ****   __ASM volatile ("MRS %0, xpsr" : "=r" (result) );
 238:Drivers/CMSIS/Include/cmsis_gcc.h ****   return(result);
 239:Drivers/CMSIS/Include/cmsis_gcc.h **** }
 240:Drivers/CMSIS/Include/cmsis_gcc.h **** 
 241:Drivers/CMSIS/Include/cmsis_gcc.h **** 
 242:Drivers/CMSIS/Include/cmsis_gcc.h **** /**
 243:Drivers/CMSIS/Include/cmsis_gcc.h ****   \brief   Get Process Stack Pointer
 244:Drivers/CMSIS/Include/cmsis_gcc.h ****   \details Returns the current value of the Process Stack Pointer (PSP).
 245:Drivers/CMSIS/Include/cmsis_gcc.h ****   \return               PSP Register value
 246:Drivers/CMSIS/Include/cmsis_gcc.h ****  */
 247:Drivers/CMSIS/Include/cmsis_gcc.h **** __STATIC_FORCEINLINE uint32_t __get_PSP(void)
 248:Drivers/CMSIS/Include/cmsis_gcc.h **** {
 249:Drivers/CMSIS/Include/cmsis_gcc.h ****   uint32_t result;
 250:Drivers/CMSIS/Include/cmsis_gcc.h **** 
 251:Drivers/CMSIS/Include/cmsis_gcc.h ****   __ASM volatile ("MRS %0, psp"  : "=r" (result) );
 252:Drivers/CMSIS/Include/cmsis_gcc.h ****   return(result);
 253:Drivers/CMSIS/Include/cmsis_gcc.h **** }
 254:Drivers/CMSIS/Include/cmsis_gcc.h **** 
 255:Drivers/CMSIS/Include/cmsis_gcc.h **** 
 256:Drivers/CMSIS/Include/cmsis_gcc.h **** #if (defined (__ARM_FEATURE_CMSE ) && (__ARM_FEATURE_CMSE == 3))
 257:Drivers/CMSIS/Include/cmsis_gcc.h **** /**
 258:Drivers/CMSIS/Include/cmsis_gcc.h ****   \brief   Get Process Stack Pointer (non-secure)
 259:Drivers/CMSIS/Include/cmsis_gcc.h ****   \details Returns the current value of the non-secure Process Stack Pointer (PSP) when in secure s
 260:Drivers/CMSIS/Include/cmsis_gcc.h ****   \return               PSP Register value
 261:Drivers/CMSIS/Include/cmsis_gcc.h ****  */
 262:Drivers/CMSIS/Include/cmsis_gcc.h **** __STATIC_FORCEINLINE uint32_t __TZ_get_PSP_NS(void)
 263:Drivers/CMSIS/Include/cmsis_gcc.h **** {
 264:Drivers/CMSIS/Include/cmsis_gcc.h ****   uint32_t result;
 265:Drivers/CMSIS/Include/cmsis_gcc.h **** 
 266:Drivers/CMSIS/Include/cmsis_gcc.h ****   __ASM volatile ("MRS %0, psp_ns"  : "=r" (result) );
ARM GAS  C:\Users\cedri\AppData\Local\Temp\cc9WRHZF.s 			page 23


 267:Drivers/CMSIS/Include/cmsis_gcc.h ****   return(result);
 268:Drivers/CMSIS/Include/cmsis_gcc.h **** }
 269:Drivers/CMSIS/Include/cmsis_gcc.h **** #endif
 270:Drivers/CMSIS/Include/cmsis_gcc.h **** 
 271:Drivers/CMSIS/Include/cmsis_gcc.h **** 
 272:Drivers/CMSIS/Include/cmsis_gcc.h **** /**
 273:Drivers/CMSIS/Include/cmsis_gcc.h ****   \brief   Set Process Stack Pointer
 274:Drivers/CMSIS/Include/cmsis_gcc.h ****   \details Assigns the given value to the Process Stack Pointer (PSP).
 275:Drivers/CMSIS/Include/cmsis_gcc.h ****   \param [in]    topOfProcStack  Process Stack Pointer value to set
 276:Drivers/CMSIS/Include/cmsis_gcc.h ****  */
 277:Drivers/CMSIS/Include/cmsis_gcc.h **** __STATIC_FORCEINLINE void __set_PSP(uint32_t topOfProcStack)
 278:Drivers/CMSIS/Include/cmsis_gcc.h **** {
 279:Drivers/CMSIS/Include/cmsis_gcc.h ****   __ASM volatile ("MSR psp, %0" : : "r" (topOfProcStack) : );
 280:Drivers/CMSIS/Include/cmsis_gcc.h **** }
 281:Drivers/CMSIS/Include/cmsis_gcc.h **** 
 282:Drivers/CMSIS/Include/cmsis_gcc.h **** 
 283:Drivers/CMSIS/Include/cmsis_gcc.h **** #if (defined (__ARM_FEATURE_CMSE ) && (__ARM_FEATURE_CMSE == 3))
 284:Drivers/CMSIS/Include/cmsis_gcc.h **** /**
 285:Drivers/CMSIS/Include/cmsis_gcc.h ****   \brief   Set Process Stack Pointer (non-secure)
 286:Drivers/CMSIS/Include/cmsis_gcc.h ****   \details Assigns the given value to the non-secure Process Stack Pointer (PSP) when in secure sta
 287:Drivers/CMSIS/Include/cmsis_gcc.h ****   \param [in]    topOfProcStack  Process Stack Pointer value to set
 288:Drivers/CMSIS/Include/cmsis_gcc.h ****  */
 289:Drivers/CMSIS/Include/cmsis_gcc.h **** __STATIC_FORCEINLINE void __TZ_set_PSP_NS(uint32_t topOfProcStack)
 290:Drivers/CMSIS/Include/cmsis_gcc.h **** {
 291:Drivers/CMSIS/Include/cmsis_gcc.h ****   __ASM volatile ("MSR psp_ns, %0" : : "r" (topOfProcStack) : );
 292:Drivers/CMSIS/Include/cmsis_gcc.h **** }
 293:Drivers/CMSIS/Include/cmsis_gcc.h **** #endif
 294:Drivers/CMSIS/Include/cmsis_gcc.h **** 
 295:Drivers/CMSIS/Include/cmsis_gcc.h **** 
 296:Drivers/CMSIS/Include/cmsis_gcc.h **** /**
 297:Drivers/CMSIS/Include/cmsis_gcc.h ****   \brief   Get Main Stack Pointer
 298:Drivers/CMSIS/Include/cmsis_gcc.h ****   \details Returns the current value of the Main Stack Pointer (MSP).
 299:Drivers/CMSIS/Include/cmsis_gcc.h ****   \return               MSP Register value
 300:Drivers/CMSIS/Include/cmsis_gcc.h ****  */
 301:Drivers/CMSIS/Include/cmsis_gcc.h **** __STATIC_FORCEINLINE uint32_t __get_MSP(void)
 302:Drivers/CMSIS/Include/cmsis_gcc.h **** {
 303:Drivers/CMSIS/Include/cmsis_gcc.h ****   uint32_t result;
 304:Drivers/CMSIS/Include/cmsis_gcc.h **** 
 305:Drivers/CMSIS/Include/cmsis_gcc.h ****   __ASM volatile ("MRS %0, msp" : "=r" (result) );
 306:Drivers/CMSIS/Include/cmsis_gcc.h ****   return(result);
 307:Drivers/CMSIS/Include/cmsis_gcc.h **** }
 308:Drivers/CMSIS/Include/cmsis_gcc.h **** 
 309:Drivers/CMSIS/Include/cmsis_gcc.h **** 
 310:Drivers/CMSIS/Include/cmsis_gcc.h **** #if (defined (__ARM_FEATURE_CMSE ) && (__ARM_FEATURE_CMSE == 3))
 311:Drivers/CMSIS/Include/cmsis_gcc.h **** /**
 312:Drivers/CMSIS/Include/cmsis_gcc.h ****   \brief   Get Main Stack Pointer (non-secure)
 313:Drivers/CMSIS/Include/cmsis_gcc.h ****   \details Returns the current value of the non-secure Main Stack Pointer (MSP) when in secure stat
 314:Drivers/CMSIS/Include/cmsis_gcc.h ****   \return               MSP Register value
 315:Drivers/CMSIS/Include/cmsis_gcc.h ****  */
 316:Drivers/CMSIS/Include/cmsis_gcc.h **** __STATIC_FORCEINLINE uint32_t __TZ_get_MSP_NS(void)
 317:Drivers/CMSIS/Include/cmsis_gcc.h **** {
 318:Drivers/CMSIS/Include/cmsis_gcc.h ****   uint32_t result;
 319:Drivers/CMSIS/Include/cmsis_gcc.h **** 
 320:Drivers/CMSIS/Include/cmsis_gcc.h ****   __ASM volatile ("MRS %0, msp_ns" : "=r" (result) );
 321:Drivers/CMSIS/Include/cmsis_gcc.h ****   return(result);
 322:Drivers/CMSIS/Include/cmsis_gcc.h **** }
 323:Drivers/CMSIS/Include/cmsis_gcc.h **** #endif
ARM GAS  C:\Users\cedri\AppData\Local\Temp\cc9WRHZF.s 			page 24


 324:Drivers/CMSIS/Include/cmsis_gcc.h **** 
 325:Drivers/CMSIS/Include/cmsis_gcc.h **** 
 326:Drivers/CMSIS/Include/cmsis_gcc.h **** /**
 327:Drivers/CMSIS/Include/cmsis_gcc.h ****   \brief   Set Main Stack Pointer
 328:Drivers/CMSIS/Include/cmsis_gcc.h ****   \details Assigns the given value to the Main Stack Pointer (MSP).
 329:Drivers/CMSIS/Include/cmsis_gcc.h ****   \param [in]    topOfMainStack  Main Stack Pointer value to set
 330:Drivers/CMSIS/Include/cmsis_gcc.h ****  */
 331:Drivers/CMSIS/Include/cmsis_gcc.h **** __STATIC_FORCEINLINE void __set_MSP(uint32_t topOfMainStack)
 332:Drivers/CMSIS/Include/cmsis_gcc.h **** {
 333:Drivers/CMSIS/Include/cmsis_gcc.h ****   __ASM volatile ("MSR msp, %0" : : "r" (topOfMainStack) : );
 334:Drivers/CMSIS/Include/cmsis_gcc.h **** }
 335:Drivers/CMSIS/Include/cmsis_gcc.h **** 
 336:Drivers/CMSIS/Include/cmsis_gcc.h **** 
 337:Drivers/CMSIS/Include/cmsis_gcc.h **** #if (defined (__ARM_FEATURE_CMSE ) && (__ARM_FEATURE_CMSE == 3))
 338:Drivers/CMSIS/Include/cmsis_gcc.h **** /**
 339:Drivers/CMSIS/Include/cmsis_gcc.h ****   \brief   Set Main Stack Pointer (non-secure)
 340:Drivers/CMSIS/Include/cmsis_gcc.h ****   \details Assigns the given value to the non-secure Main Stack Pointer (MSP) when in secure state.
 341:Drivers/CMSIS/Include/cmsis_gcc.h ****   \param [in]    topOfMainStack  Main Stack Pointer value to set
 342:Drivers/CMSIS/Include/cmsis_gcc.h ****  */
 343:Drivers/CMSIS/Include/cmsis_gcc.h **** __STATIC_FORCEINLINE void __TZ_set_MSP_NS(uint32_t topOfMainStack)
 344:Drivers/CMSIS/Include/cmsis_gcc.h **** {
 345:Drivers/CMSIS/Include/cmsis_gcc.h ****   __ASM volatile ("MSR msp_ns, %0" : : "r" (topOfMainStack) : );
 346:Drivers/CMSIS/Include/cmsis_gcc.h **** }
 347:Drivers/CMSIS/Include/cmsis_gcc.h **** #endif
 348:Drivers/CMSIS/Include/cmsis_gcc.h **** 
 349:Drivers/CMSIS/Include/cmsis_gcc.h **** 
 350:Drivers/CMSIS/Include/cmsis_gcc.h **** #if (defined (__ARM_FEATURE_CMSE ) && (__ARM_FEATURE_CMSE == 3))
 351:Drivers/CMSIS/Include/cmsis_gcc.h **** /**
 352:Drivers/CMSIS/Include/cmsis_gcc.h ****   \brief   Get Stack Pointer (non-secure)
 353:Drivers/CMSIS/Include/cmsis_gcc.h ****   \details Returns the current value of the non-secure Stack Pointer (SP) when in secure state.
 354:Drivers/CMSIS/Include/cmsis_gcc.h ****   \return               SP Register value
 355:Drivers/CMSIS/Include/cmsis_gcc.h ****  */
 356:Drivers/CMSIS/Include/cmsis_gcc.h **** __STATIC_FORCEINLINE uint32_t __TZ_get_SP_NS(void)
 357:Drivers/CMSIS/Include/cmsis_gcc.h **** {
 358:Drivers/CMSIS/Include/cmsis_gcc.h ****   uint32_t result;
 359:Drivers/CMSIS/Include/cmsis_gcc.h **** 
 360:Drivers/CMSIS/Include/cmsis_gcc.h ****   __ASM volatile ("MRS %0, sp_ns" : "=r" (result) );
 361:Drivers/CMSIS/Include/cmsis_gcc.h ****   return(result);
 362:Drivers/CMSIS/Include/cmsis_gcc.h **** }
 363:Drivers/CMSIS/Include/cmsis_gcc.h **** 
 364:Drivers/CMSIS/Include/cmsis_gcc.h **** 
 365:Drivers/CMSIS/Include/cmsis_gcc.h **** /**
 366:Drivers/CMSIS/Include/cmsis_gcc.h ****   \brief   Set Stack Pointer (non-secure)
 367:Drivers/CMSIS/Include/cmsis_gcc.h ****   \details Assigns the given value to the non-secure Stack Pointer (SP) when in secure state.
 368:Drivers/CMSIS/Include/cmsis_gcc.h ****   \param [in]    topOfStack  Stack Pointer value to set
 369:Drivers/CMSIS/Include/cmsis_gcc.h ****  */
 370:Drivers/CMSIS/Include/cmsis_gcc.h **** __STATIC_FORCEINLINE void __TZ_set_SP_NS(uint32_t topOfStack)
 371:Drivers/CMSIS/Include/cmsis_gcc.h **** {
 372:Drivers/CMSIS/Include/cmsis_gcc.h ****   __ASM volatile ("MSR sp_ns, %0" : : "r" (topOfStack) : );
 373:Drivers/CMSIS/Include/cmsis_gcc.h **** }
 374:Drivers/CMSIS/Include/cmsis_gcc.h **** #endif
 375:Drivers/CMSIS/Include/cmsis_gcc.h **** 
 376:Drivers/CMSIS/Include/cmsis_gcc.h **** 
 377:Drivers/CMSIS/Include/cmsis_gcc.h **** /**
 378:Drivers/CMSIS/Include/cmsis_gcc.h ****   \brief   Get Priority Mask
 379:Drivers/CMSIS/Include/cmsis_gcc.h ****   \details Returns the current state of the priority mask bit from the Priority Mask Register.
 380:Drivers/CMSIS/Include/cmsis_gcc.h ****   \return               Priority Mask value
ARM GAS  C:\Users\cedri\AppData\Local\Temp\cc9WRHZF.s 			page 25


 381:Drivers/CMSIS/Include/cmsis_gcc.h ****  */
 382:Drivers/CMSIS/Include/cmsis_gcc.h **** __STATIC_FORCEINLINE uint32_t __get_PRIMASK(void)
 383:Drivers/CMSIS/Include/cmsis_gcc.h **** {
 384:Drivers/CMSIS/Include/cmsis_gcc.h ****   uint32_t result;
 385:Drivers/CMSIS/Include/cmsis_gcc.h **** 
 386:Drivers/CMSIS/Include/cmsis_gcc.h ****   __ASM volatile ("MRS %0, primask" : "=r" (result) :: "memory");
 387:Drivers/CMSIS/Include/cmsis_gcc.h ****   return(result);
 388:Drivers/CMSIS/Include/cmsis_gcc.h **** }
 389:Drivers/CMSIS/Include/cmsis_gcc.h **** 
 390:Drivers/CMSIS/Include/cmsis_gcc.h **** 
 391:Drivers/CMSIS/Include/cmsis_gcc.h **** #if (defined (__ARM_FEATURE_CMSE ) && (__ARM_FEATURE_CMSE == 3))
 392:Drivers/CMSIS/Include/cmsis_gcc.h **** /**
 393:Drivers/CMSIS/Include/cmsis_gcc.h ****   \brief   Get Priority Mask (non-secure)
 394:Drivers/CMSIS/Include/cmsis_gcc.h ****   \details Returns the current state of the non-secure priority mask bit from the Priority Mask Reg
 395:Drivers/CMSIS/Include/cmsis_gcc.h ****   \return               Priority Mask value
 396:Drivers/CMSIS/Include/cmsis_gcc.h ****  */
 397:Drivers/CMSIS/Include/cmsis_gcc.h **** __STATIC_FORCEINLINE uint32_t __TZ_get_PRIMASK_NS(void)
 398:Drivers/CMSIS/Include/cmsis_gcc.h **** {
 399:Drivers/CMSIS/Include/cmsis_gcc.h ****   uint32_t result;
 400:Drivers/CMSIS/Include/cmsis_gcc.h **** 
 401:Drivers/CMSIS/Include/cmsis_gcc.h ****   __ASM volatile ("MRS %0, primask_ns" : "=r" (result) :: "memory");
 402:Drivers/CMSIS/Include/cmsis_gcc.h ****   return(result);
 403:Drivers/CMSIS/Include/cmsis_gcc.h **** }
 404:Drivers/CMSIS/Include/cmsis_gcc.h **** #endif
 405:Drivers/CMSIS/Include/cmsis_gcc.h **** 
 406:Drivers/CMSIS/Include/cmsis_gcc.h **** 
 407:Drivers/CMSIS/Include/cmsis_gcc.h **** /**
 408:Drivers/CMSIS/Include/cmsis_gcc.h ****   \brief   Set Priority Mask
 409:Drivers/CMSIS/Include/cmsis_gcc.h ****   \details Assigns the given value to the Priority Mask Register.
 410:Drivers/CMSIS/Include/cmsis_gcc.h ****   \param [in]    priMask  Priority Mask
 411:Drivers/CMSIS/Include/cmsis_gcc.h ****  */
 412:Drivers/CMSIS/Include/cmsis_gcc.h **** __STATIC_FORCEINLINE void __set_PRIMASK(uint32_t priMask)
 413:Drivers/CMSIS/Include/cmsis_gcc.h **** {
 414:Drivers/CMSIS/Include/cmsis_gcc.h ****   __ASM volatile ("MSR primask, %0" : : "r" (priMask) : "memory");
 415:Drivers/CMSIS/Include/cmsis_gcc.h **** }
 416:Drivers/CMSIS/Include/cmsis_gcc.h **** 
 417:Drivers/CMSIS/Include/cmsis_gcc.h **** 
 418:Drivers/CMSIS/Include/cmsis_gcc.h **** #if (defined (__ARM_FEATURE_CMSE ) && (__ARM_FEATURE_CMSE == 3))
 419:Drivers/CMSIS/Include/cmsis_gcc.h **** /**
 420:Drivers/CMSIS/Include/cmsis_gcc.h ****   \brief   Set Priority Mask (non-secure)
 421:Drivers/CMSIS/Include/cmsis_gcc.h ****   \details Assigns the given value to the non-secure Priority Mask Register when in secure state.
 422:Drivers/CMSIS/Include/cmsis_gcc.h ****   \param [in]    priMask  Priority Mask
 423:Drivers/CMSIS/Include/cmsis_gcc.h ****  */
 424:Drivers/CMSIS/Include/cmsis_gcc.h **** __STATIC_FORCEINLINE void __TZ_set_PRIMASK_NS(uint32_t priMask)
 425:Drivers/CMSIS/Include/cmsis_gcc.h **** {
 426:Drivers/CMSIS/Include/cmsis_gcc.h ****   __ASM volatile ("MSR primask_ns, %0" : : "r" (priMask) : "memory");
 427:Drivers/CMSIS/Include/cmsis_gcc.h **** }
 428:Drivers/CMSIS/Include/cmsis_gcc.h **** #endif
 429:Drivers/CMSIS/Include/cmsis_gcc.h **** 
 430:Drivers/CMSIS/Include/cmsis_gcc.h **** 
 431:Drivers/CMSIS/Include/cmsis_gcc.h **** #if ((defined (__ARM_ARCH_7M__      ) && (__ARM_ARCH_7M__      == 1)) || \
 432:Drivers/CMSIS/Include/cmsis_gcc.h ****      (defined (__ARM_ARCH_7EM__     ) && (__ARM_ARCH_7EM__     == 1)) || \
 433:Drivers/CMSIS/Include/cmsis_gcc.h ****      (defined (__ARM_ARCH_8M_MAIN__ ) && (__ARM_ARCH_8M_MAIN__ == 1))    )
 434:Drivers/CMSIS/Include/cmsis_gcc.h **** /**
 435:Drivers/CMSIS/Include/cmsis_gcc.h ****   \brief   Enable FIQ
 436:Drivers/CMSIS/Include/cmsis_gcc.h ****   \details Enables FIQ interrupts by clearing the F-bit in the CPSR.
 437:Drivers/CMSIS/Include/cmsis_gcc.h ****            Can only be executed in Privileged modes.
ARM GAS  C:\Users\cedri\AppData\Local\Temp\cc9WRHZF.s 			page 26


 438:Drivers/CMSIS/Include/cmsis_gcc.h ****  */
 439:Drivers/CMSIS/Include/cmsis_gcc.h **** __STATIC_FORCEINLINE void __enable_fault_irq(void)
 440:Drivers/CMSIS/Include/cmsis_gcc.h **** {
 441:Drivers/CMSIS/Include/cmsis_gcc.h ****   __ASM volatile ("cpsie f" : : : "memory");
 442:Drivers/CMSIS/Include/cmsis_gcc.h **** }
 443:Drivers/CMSIS/Include/cmsis_gcc.h **** 
 444:Drivers/CMSIS/Include/cmsis_gcc.h **** 
 445:Drivers/CMSIS/Include/cmsis_gcc.h **** /**
 446:Drivers/CMSIS/Include/cmsis_gcc.h ****   \brief   Disable FIQ
 447:Drivers/CMSIS/Include/cmsis_gcc.h ****   \details Disables FIQ interrupts by setting the F-bit in the CPSR.
 448:Drivers/CMSIS/Include/cmsis_gcc.h ****            Can only be executed in Privileged modes.
 449:Drivers/CMSIS/Include/cmsis_gcc.h ****  */
 450:Drivers/CMSIS/Include/cmsis_gcc.h **** __STATIC_FORCEINLINE void __disable_fault_irq(void)
 451:Drivers/CMSIS/Include/cmsis_gcc.h **** {
 452:Drivers/CMSIS/Include/cmsis_gcc.h ****   __ASM volatile ("cpsid f" : : : "memory");
 453:Drivers/CMSIS/Include/cmsis_gcc.h **** }
 454:Drivers/CMSIS/Include/cmsis_gcc.h **** 
 455:Drivers/CMSIS/Include/cmsis_gcc.h **** 
 456:Drivers/CMSIS/Include/cmsis_gcc.h **** /**
 457:Drivers/CMSIS/Include/cmsis_gcc.h ****   \brief   Get Base Priority
 458:Drivers/CMSIS/Include/cmsis_gcc.h ****   \details Returns the current value of the Base Priority register.
 459:Drivers/CMSIS/Include/cmsis_gcc.h ****   \return               Base Priority register value
 460:Drivers/CMSIS/Include/cmsis_gcc.h ****  */
 461:Drivers/CMSIS/Include/cmsis_gcc.h **** __STATIC_FORCEINLINE uint32_t __get_BASEPRI(void)
 462:Drivers/CMSIS/Include/cmsis_gcc.h **** {
 463:Drivers/CMSIS/Include/cmsis_gcc.h ****   uint32_t result;
 464:Drivers/CMSIS/Include/cmsis_gcc.h **** 
 465:Drivers/CMSIS/Include/cmsis_gcc.h ****   __ASM volatile ("MRS %0, basepri" : "=r" (result) );
 466:Drivers/CMSIS/Include/cmsis_gcc.h ****   return(result);
 467:Drivers/CMSIS/Include/cmsis_gcc.h **** }
 468:Drivers/CMSIS/Include/cmsis_gcc.h **** 
 469:Drivers/CMSIS/Include/cmsis_gcc.h **** 
 470:Drivers/CMSIS/Include/cmsis_gcc.h **** #if (defined (__ARM_FEATURE_CMSE ) && (__ARM_FEATURE_CMSE == 3))
 471:Drivers/CMSIS/Include/cmsis_gcc.h **** /**
 472:Drivers/CMSIS/Include/cmsis_gcc.h ****   \brief   Get Base Priority (non-secure)
 473:Drivers/CMSIS/Include/cmsis_gcc.h ****   \details Returns the current value of the non-secure Base Priority register when in secure state.
 474:Drivers/CMSIS/Include/cmsis_gcc.h ****   \return               Base Priority register value
 475:Drivers/CMSIS/Include/cmsis_gcc.h ****  */
 476:Drivers/CMSIS/Include/cmsis_gcc.h **** __STATIC_FORCEINLINE uint32_t __TZ_get_BASEPRI_NS(void)
 477:Drivers/CMSIS/Include/cmsis_gcc.h **** {
 478:Drivers/CMSIS/Include/cmsis_gcc.h ****   uint32_t result;
 479:Drivers/CMSIS/Include/cmsis_gcc.h **** 
 480:Drivers/CMSIS/Include/cmsis_gcc.h ****   __ASM volatile ("MRS %0, basepri_ns" : "=r" (result) );
 481:Drivers/CMSIS/Include/cmsis_gcc.h ****   return(result);
 482:Drivers/CMSIS/Include/cmsis_gcc.h **** }
 483:Drivers/CMSIS/Include/cmsis_gcc.h **** #endif
 484:Drivers/CMSIS/Include/cmsis_gcc.h **** 
 485:Drivers/CMSIS/Include/cmsis_gcc.h **** 
 486:Drivers/CMSIS/Include/cmsis_gcc.h **** /**
 487:Drivers/CMSIS/Include/cmsis_gcc.h ****   \brief   Set Base Priority
 488:Drivers/CMSIS/Include/cmsis_gcc.h ****   \details Assigns the given value to the Base Priority register.
 489:Drivers/CMSIS/Include/cmsis_gcc.h ****   \param [in]    basePri  Base Priority value to set
 490:Drivers/CMSIS/Include/cmsis_gcc.h ****  */
 491:Drivers/CMSIS/Include/cmsis_gcc.h **** __STATIC_FORCEINLINE void __set_BASEPRI(uint32_t basePri)
 492:Drivers/CMSIS/Include/cmsis_gcc.h **** {
 493:Drivers/CMSIS/Include/cmsis_gcc.h ****   __ASM volatile ("MSR basepri, %0" : : "r" (basePri) : "memory");
 494:Drivers/CMSIS/Include/cmsis_gcc.h **** }
ARM GAS  C:\Users\cedri\AppData\Local\Temp\cc9WRHZF.s 			page 27


 495:Drivers/CMSIS/Include/cmsis_gcc.h **** 
 496:Drivers/CMSIS/Include/cmsis_gcc.h **** 
 497:Drivers/CMSIS/Include/cmsis_gcc.h **** #if (defined (__ARM_FEATURE_CMSE ) && (__ARM_FEATURE_CMSE == 3))
 498:Drivers/CMSIS/Include/cmsis_gcc.h **** /**
 499:Drivers/CMSIS/Include/cmsis_gcc.h ****   \brief   Set Base Priority (non-secure)
 500:Drivers/CMSIS/Include/cmsis_gcc.h ****   \details Assigns the given value to the non-secure Base Priority register when in secure state.
 501:Drivers/CMSIS/Include/cmsis_gcc.h ****   \param [in]    basePri  Base Priority value to set
 502:Drivers/CMSIS/Include/cmsis_gcc.h ****  */
 503:Drivers/CMSIS/Include/cmsis_gcc.h **** __STATIC_FORCEINLINE void __TZ_set_BASEPRI_NS(uint32_t basePri)
 504:Drivers/CMSIS/Include/cmsis_gcc.h **** {
 505:Drivers/CMSIS/Include/cmsis_gcc.h ****   __ASM volatile ("MSR basepri_ns, %0" : : "r" (basePri) : "memory");
 506:Drivers/CMSIS/Include/cmsis_gcc.h **** }
 507:Drivers/CMSIS/Include/cmsis_gcc.h **** #endif
 508:Drivers/CMSIS/Include/cmsis_gcc.h **** 
 509:Drivers/CMSIS/Include/cmsis_gcc.h **** 
 510:Drivers/CMSIS/Include/cmsis_gcc.h **** /**
 511:Drivers/CMSIS/Include/cmsis_gcc.h ****   \brief   Set Base Priority with condition
 512:Drivers/CMSIS/Include/cmsis_gcc.h ****   \details Assigns the given value to the Base Priority register only if BASEPRI masking is disable
 513:Drivers/CMSIS/Include/cmsis_gcc.h ****            or the new value increases the BASEPRI priority level.
 514:Drivers/CMSIS/Include/cmsis_gcc.h ****   \param [in]    basePri  Base Priority value to set
 515:Drivers/CMSIS/Include/cmsis_gcc.h ****  */
 516:Drivers/CMSIS/Include/cmsis_gcc.h **** __STATIC_FORCEINLINE void __set_BASEPRI_MAX(uint32_t basePri)
 517:Drivers/CMSIS/Include/cmsis_gcc.h **** {
 518:Drivers/CMSIS/Include/cmsis_gcc.h ****   __ASM volatile ("MSR basepri_max, %0" : : "r" (basePri) : "memory");
 519:Drivers/CMSIS/Include/cmsis_gcc.h **** }
 520:Drivers/CMSIS/Include/cmsis_gcc.h **** 
 521:Drivers/CMSIS/Include/cmsis_gcc.h **** 
 522:Drivers/CMSIS/Include/cmsis_gcc.h **** /**
 523:Drivers/CMSIS/Include/cmsis_gcc.h ****   \brief   Get Fault Mask
 524:Drivers/CMSIS/Include/cmsis_gcc.h ****   \details Returns the current value of the Fault Mask register.
 525:Drivers/CMSIS/Include/cmsis_gcc.h ****   \return               Fault Mask register value
 526:Drivers/CMSIS/Include/cmsis_gcc.h ****  */
 527:Drivers/CMSIS/Include/cmsis_gcc.h **** __STATIC_FORCEINLINE uint32_t __get_FAULTMASK(void)
 528:Drivers/CMSIS/Include/cmsis_gcc.h **** {
 529:Drivers/CMSIS/Include/cmsis_gcc.h ****   uint32_t result;
 530:Drivers/CMSIS/Include/cmsis_gcc.h **** 
 531:Drivers/CMSIS/Include/cmsis_gcc.h ****   __ASM volatile ("MRS %0, faultmask" : "=r" (result) );
 532:Drivers/CMSIS/Include/cmsis_gcc.h ****   return(result);
 533:Drivers/CMSIS/Include/cmsis_gcc.h **** }
 534:Drivers/CMSIS/Include/cmsis_gcc.h **** 
 535:Drivers/CMSIS/Include/cmsis_gcc.h **** 
 536:Drivers/CMSIS/Include/cmsis_gcc.h **** #if (defined (__ARM_FEATURE_CMSE ) && (__ARM_FEATURE_CMSE == 3))
 537:Drivers/CMSIS/Include/cmsis_gcc.h **** /**
 538:Drivers/CMSIS/Include/cmsis_gcc.h ****   \brief   Get Fault Mask (non-secure)
 539:Drivers/CMSIS/Include/cmsis_gcc.h ****   \details Returns the current value of the non-secure Fault Mask register when in secure state.
 540:Drivers/CMSIS/Include/cmsis_gcc.h ****   \return               Fault Mask register value
 541:Drivers/CMSIS/Include/cmsis_gcc.h ****  */
 542:Drivers/CMSIS/Include/cmsis_gcc.h **** __STATIC_FORCEINLINE uint32_t __TZ_get_FAULTMASK_NS(void)
 543:Drivers/CMSIS/Include/cmsis_gcc.h **** {
 544:Drivers/CMSIS/Include/cmsis_gcc.h ****   uint32_t result;
 545:Drivers/CMSIS/Include/cmsis_gcc.h **** 
 546:Drivers/CMSIS/Include/cmsis_gcc.h ****   __ASM volatile ("MRS %0, faultmask_ns" : "=r" (result) );
 547:Drivers/CMSIS/Include/cmsis_gcc.h ****   return(result);
 548:Drivers/CMSIS/Include/cmsis_gcc.h **** }
 549:Drivers/CMSIS/Include/cmsis_gcc.h **** #endif
 550:Drivers/CMSIS/Include/cmsis_gcc.h **** 
 551:Drivers/CMSIS/Include/cmsis_gcc.h **** 
ARM GAS  C:\Users\cedri\AppData\Local\Temp\cc9WRHZF.s 			page 28


 552:Drivers/CMSIS/Include/cmsis_gcc.h **** /**
 553:Drivers/CMSIS/Include/cmsis_gcc.h ****   \brief   Set Fault Mask
 554:Drivers/CMSIS/Include/cmsis_gcc.h ****   \details Assigns the given value to the Fault Mask register.
 555:Drivers/CMSIS/Include/cmsis_gcc.h ****   \param [in]    faultMask  Fault Mask value to set
 556:Drivers/CMSIS/Include/cmsis_gcc.h ****  */
 557:Drivers/CMSIS/Include/cmsis_gcc.h **** __STATIC_FORCEINLINE void __set_FAULTMASK(uint32_t faultMask)
 558:Drivers/CMSIS/Include/cmsis_gcc.h **** {
 559:Drivers/CMSIS/Include/cmsis_gcc.h ****   __ASM volatile ("MSR faultmask, %0" : : "r" (faultMask) : "memory");
 560:Drivers/CMSIS/Include/cmsis_gcc.h **** }
 561:Drivers/CMSIS/Include/cmsis_gcc.h **** 
 562:Drivers/CMSIS/Include/cmsis_gcc.h **** 
 563:Drivers/CMSIS/Include/cmsis_gcc.h **** #if (defined (__ARM_FEATURE_CMSE ) && (__ARM_FEATURE_CMSE == 3))
 564:Drivers/CMSIS/Include/cmsis_gcc.h **** /**
 565:Drivers/CMSIS/Include/cmsis_gcc.h ****   \brief   Set Fault Mask (non-secure)
 566:Drivers/CMSIS/Include/cmsis_gcc.h ****   \details Assigns the given value to the non-secure Fault Mask register when in secure state.
 567:Drivers/CMSIS/Include/cmsis_gcc.h ****   \param [in]    faultMask  Fault Mask value to set
 568:Drivers/CMSIS/Include/cmsis_gcc.h ****  */
 569:Drivers/CMSIS/Include/cmsis_gcc.h **** __STATIC_FORCEINLINE void __TZ_set_FAULTMASK_NS(uint32_t faultMask)
 570:Drivers/CMSIS/Include/cmsis_gcc.h **** {
 571:Drivers/CMSIS/Include/cmsis_gcc.h ****   __ASM volatile ("MSR faultmask_ns, %0" : : "r" (faultMask) : "memory");
 572:Drivers/CMSIS/Include/cmsis_gcc.h **** }
 573:Drivers/CMSIS/Include/cmsis_gcc.h **** #endif
 574:Drivers/CMSIS/Include/cmsis_gcc.h **** 
 575:Drivers/CMSIS/Include/cmsis_gcc.h **** #endif /* ((defined (__ARM_ARCH_7M__      ) && (__ARM_ARCH_7M__      == 1)) || \
 576:Drivers/CMSIS/Include/cmsis_gcc.h ****            (defined (__ARM_ARCH_7EM__     ) && (__ARM_ARCH_7EM__     == 1)) || \
 577:Drivers/CMSIS/Include/cmsis_gcc.h ****            (defined (__ARM_ARCH_8M_MAIN__ ) && (__ARM_ARCH_8M_MAIN__ == 1))    ) */
 578:Drivers/CMSIS/Include/cmsis_gcc.h **** 
 579:Drivers/CMSIS/Include/cmsis_gcc.h **** 
 580:Drivers/CMSIS/Include/cmsis_gcc.h **** #if ((defined (__ARM_ARCH_8M_MAIN__ ) && (__ARM_ARCH_8M_MAIN__ == 1)) || \
 581:Drivers/CMSIS/Include/cmsis_gcc.h ****      (defined (__ARM_ARCH_8M_BASE__ ) && (__ARM_ARCH_8M_BASE__ == 1))    )
 582:Drivers/CMSIS/Include/cmsis_gcc.h **** 
 583:Drivers/CMSIS/Include/cmsis_gcc.h **** /**
 584:Drivers/CMSIS/Include/cmsis_gcc.h ****   \brief   Get Process Stack Pointer Limit
 585:Drivers/CMSIS/Include/cmsis_gcc.h ****   Devices without ARMv8-M Main Extensions (i.e. Cortex-M23) lack the non-secure
 586:Drivers/CMSIS/Include/cmsis_gcc.h ****   Stack Pointer Limit register hence zero is returned always in non-secure
 587:Drivers/CMSIS/Include/cmsis_gcc.h ****   mode.
 588:Drivers/CMSIS/Include/cmsis_gcc.h ****   
 589:Drivers/CMSIS/Include/cmsis_gcc.h ****   \details Returns the current value of the Process Stack Pointer Limit (PSPLIM).
 590:Drivers/CMSIS/Include/cmsis_gcc.h ****   \return               PSPLIM Register value
 591:Drivers/CMSIS/Include/cmsis_gcc.h ****  */
 592:Drivers/CMSIS/Include/cmsis_gcc.h **** __STATIC_FORCEINLINE uint32_t __get_PSPLIM(void)
 593:Drivers/CMSIS/Include/cmsis_gcc.h **** {
 594:Drivers/CMSIS/Include/cmsis_gcc.h **** #if (!(defined (__ARM_ARCH_8M_MAIN__ ) && (__ARM_ARCH_8M_MAIN__ == 1)) && \
 595:Drivers/CMSIS/Include/cmsis_gcc.h ****     (!defined (__ARM_FEATURE_CMSE) || (__ARM_FEATURE_CMSE < 3)))
 596:Drivers/CMSIS/Include/cmsis_gcc.h ****     // without main extensions, the non-secure PSPLIM is RAZ/WI
 597:Drivers/CMSIS/Include/cmsis_gcc.h ****   return 0U;
 598:Drivers/CMSIS/Include/cmsis_gcc.h **** #else
 599:Drivers/CMSIS/Include/cmsis_gcc.h ****   uint32_t result;
 600:Drivers/CMSIS/Include/cmsis_gcc.h ****   __ASM volatile ("MRS %0, psplim"  : "=r" (result) );
 601:Drivers/CMSIS/Include/cmsis_gcc.h ****   return result;
 602:Drivers/CMSIS/Include/cmsis_gcc.h **** #endif
 603:Drivers/CMSIS/Include/cmsis_gcc.h **** }
 604:Drivers/CMSIS/Include/cmsis_gcc.h **** 
 605:Drivers/CMSIS/Include/cmsis_gcc.h **** #if (defined (__ARM_FEATURE_CMSE) && (__ARM_FEATURE_CMSE == 3))
 606:Drivers/CMSIS/Include/cmsis_gcc.h **** /**
 607:Drivers/CMSIS/Include/cmsis_gcc.h ****   \brief   Get Process Stack Pointer Limit (non-secure)
 608:Drivers/CMSIS/Include/cmsis_gcc.h ****   Devices without ARMv8-M Main Extensions (i.e. Cortex-M23) lack the non-secure
ARM GAS  C:\Users\cedri\AppData\Local\Temp\cc9WRHZF.s 			page 29


 609:Drivers/CMSIS/Include/cmsis_gcc.h ****   Stack Pointer Limit register hence zero is returned always.
 610:Drivers/CMSIS/Include/cmsis_gcc.h **** 
 611:Drivers/CMSIS/Include/cmsis_gcc.h ****   \details Returns the current value of the non-secure Process Stack Pointer Limit (PSPLIM) when in
 612:Drivers/CMSIS/Include/cmsis_gcc.h ****   \return               PSPLIM Register value
 613:Drivers/CMSIS/Include/cmsis_gcc.h ****  */
 614:Drivers/CMSIS/Include/cmsis_gcc.h **** __STATIC_FORCEINLINE uint32_t __TZ_get_PSPLIM_NS(void)
 615:Drivers/CMSIS/Include/cmsis_gcc.h **** {
 616:Drivers/CMSIS/Include/cmsis_gcc.h **** #if (!(defined (__ARM_ARCH_8M_MAIN__ ) && (__ARM_ARCH_8M_MAIN__ == 1)))
 617:Drivers/CMSIS/Include/cmsis_gcc.h ****   // without main extensions, the non-secure PSPLIM is RAZ/WI
 618:Drivers/CMSIS/Include/cmsis_gcc.h ****   return 0U;
 619:Drivers/CMSIS/Include/cmsis_gcc.h **** #else
 620:Drivers/CMSIS/Include/cmsis_gcc.h ****   uint32_t result;
 621:Drivers/CMSIS/Include/cmsis_gcc.h ****   __ASM volatile ("MRS %0, psplim_ns"  : "=r" (result) );
 622:Drivers/CMSIS/Include/cmsis_gcc.h ****   return result;
 623:Drivers/CMSIS/Include/cmsis_gcc.h **** #endif
 624:Drivers/CMSIS/Include/cmsis_gcc.h **** }
 625:Drivers/CMSIS/Include/cmsis_gcc.h **** #endif
 626:Drivers/CMSIS/Include/cmsis_gcc.h **** 
 627:Drivers/CMSIS/Include/cmsis_gcc.h **** 
 628:Drivers/CMSIS/Include/cmsis_gcc.h **** /**
 629:Drivers/CMSIS/Include/cmsis_gcc.h ****   \brief   Set Process Stack Pointer Limit
 630:Drivers/CMSIS/Include/cmsis_gcc.h ****   Devices without ARMv8-M Main Extensions (i.e. Cortex-M23) lack the non-secure
 631:Drivers/CMSIS/Include/cmsis_gcc.h ****   Stack Pointer Limit register hence the write is silently ignored in non-secure
 632:Drivers/CMSIS/Include/cmsis_gcc.h ****   mode.
 633:Drivers/CMSIS/Include/cmsis_gcc.h ****   
 634:Drivers/CMSIS/Include/cmsis_gcc.h ****   \details Assigns the given value to the Process Stack Pointer Limit (PSPLIM).
 635:Drivers/CMSIS/Include/cmsis_gcc.h ****   \param [in]    ProcStackPtrLimit  Process Stack Pointer Limit value to set
 636:Drivers/CMSIS/Include/cmsis_gcc.h ****  */
 637:Drivers/CMSIS/Include/cmsis_gcc.h **** __STATIC_FORCEINLINE void __set_PSPLIM(uint32_t ProcStackPtrLimit)
 638:Drivers/CMSIS/Include/cmsis_gcc.h **** {
 639:Drivers/CMSIS/Include/cmsis_gcc.h **** #if (!(defined (__ARM_ARCH_8M_MAIN__ ) && (__ARM_ARCH_8M_MAIN__ == 1)) && \
 640:Drivers/CMSIS/Include/cmsis_gcc.h ****     (!defined (__ARM_FEATURE_CMSE) || (__ARM_FEATURE_CMSE < 3)))
 641:Drivers/CMSIS/Include/cmsis_gcc.h ****   // without main extensions, the non-secure PSPLIM is RAZ/WI
 642:Drivers/CMSIS/Include/cmsis_gcc.h ****   (void)ProcStackPtrLimit;
 643:Drivers/CMSIS/Include/cmsis_gcc.h **** #else
 644:Drivers/CMSIS/Include/cmsis_gcc.h ****   __ASM volatile ("MSR psplim, %0" : : "r" (ProcStackPtrLimit));
 645:Drivers/CMSIS/Include/cmsis_gcc.h **** #endif
 646:Drivers/CMSIS/Include/cmsis_gcc.h **** }
 647:Drivers/CMSIS/Include/cmsis_gcc.h **** 
 648:Drivers/CMSIS/Include/cmsis_gcc.h **** 
 649:Drivers/CMSIS/Include/cmsis_gcc.h **** #if (defined (__ARM_FEATURE_CMSE  ) && (__ARM_FEATURE_CMSE   == 3))
 650:Drivers/CMSIS/Include/cmsis_gcc.h **** /**
 651:Drivers/CMSIS/Include/cmsis_gcc.h ****   \brief   Set Process Stack Pointer (non-secure)
 652:Drivers/CMSIS/Include/cmsis_gcc.h ****   Devices without ARMv8-M Main Extensions (i.e. Cortex-M23) lack the non-secure
 653:Drivers/CMSIS/Include/cmsis_gcc.h ****   Stack Pointer Limit register hence the write is silently ignored.
 654:Drivers/CMSIS/Include/cmsis_gcc.h **** 
 655:Drivers/CMSIS/Include/cmsis_gcc.h ****   \details Assigns the given value to the non-secure Process Stack Pointer Limit (PSPLIM) when in s
 656:Drivers/CMSIS/Include/cmsis_gcc.h ****   \param [in]    ProcStackPtrLimit  Process Stack Pointer Limit value to set
 657:Drivers/CMSIS/Include/cmsis_gcc.h ****  */
 658:Drivers/CMSIS/Include/cmsis_gcc.h **** __STATIC_FORCEINLINE void __TZ_set_PSPLIM_NS(uint32_t ProcStackPtrLimit)
 659:Drivers/CMSIS/Include/cmsis_gcc.h **** {
 660:Drivers/CMSIS/Include/cmsis_gcc.h **** #if (!(defined (__ARM_ARCH_8M_MAIN__ ) && (__ARM_ARCH_8M_MAIN__ == 1)))
 661:Drivers/CMSIS/Include/cmsis_gcc.h ****   // without main extensions, the non-secure PSPLIM is RAZ/WI
 662:Drivers/CMSIS/Include/cmsis_gcc.h ****   (void)ProcStackPtrLimit;
 663:Drivers/CMSIS/Include/cmsis_gcc.h **** #else
 664:Drivers/CMSIS/Include/cmsis_gcc.h ****   __ASM volatile ("MSR psplim_ns, %0\n" : : "r" (ProcStackPtrLimit));
 665:Drivers/CMSIS/Include/cmsis_gcc.h **** #endif
ARM GAS  C:\Users\cedri\AppData\Local\Temp\cc9WRHZF.s 			page 30


 666:Drivers/CMSIS/Include/cmsis_gcc.h **** }
 667:Drivers/CMSIS/Include/cmsis_gcc.h **** #endif
 668:Drivers/CMSIS/Include/cmsis_gcc.h **** 
 669:Drivers/CMSIS/Include/cmsis_gcc.h **** 
 670:Drivers/CMSIS/Include/cmsis_gcc.h **** /**
 671:Drivers/CMSIS/Include/cmsis_gcc.h ****   \brief   Get Main Stack Pointer Limit
 672:Drivers/CMSIS/Include/cmsis_gcc.h ****   Devices without ARMv8-M Main Extensions (i.e. Cortex-M23) lack the non-secure
 673:Drivers/CMSIS/Include/cmsis_gcc.h ****   Stack Pointer Limit register hence zero is returned always in non-secure
 674:Drivers/CMSIS/Include/cmsis_gcc.h ****   mode.
 675:Drivers/CMSIS/Include/cmsis_gcc.h **** 
 676:Drivers/CMSIS/Include/cmsis_gcc.h ****   \details Returns the current value of the Main Stack Pointer Limit (MSPLIM).
 677:Drivers/CMSIS/Include/cmsis_gcc.h ****   \return               MSPLIM Register value
 678:Drivers/CMSIS/Include/cmsis_gcc.h ****  */
 679:Drivers/CMSIS/Include/cmsis_gcc.h **** __STATIC_FORCEINLINE uint32_t __get_MSPLIM(void)
 680:Drivers/CMSIS/Include/cmsis_gcc.h **** {
 681:Drivers/CMSIS/Include/cmsis_gcc.h **** #if (!(defined (__ARM_ARCH_8M_MAIN__ ) && (__ARM_ARCH_8M_MAIN__ == 1)) && \
 682:Drivers/CMSIS/Include/cmsis_gcc.h ****     (!defined (__ARM_FEATURE_CMSE) || (__ARM_FEATURE_CMSE < 3)))
 683:Drivers/CMSIS/Include/cmsis_gcc.h ****   // without main extensions, the non-secure MSPLIM is RAZ/WI
 684:Drivers/CMSIS/Include/cmsis_gcc.h ****   return 0U;
 685:Drivers/CMSIS/Include/cmsis_gcc.h **** #else
 686:Drivers/CMSIS/Include/cmsis_gcc.h ****   uint32_t result;
 687:Drivers/CMSIS/Include/cmsis_gcc.h ****   __ASM volatile ("MRS %0, msplim" : "=r" (result) );
 688:Drivers/CMSIS/Include/cmsis_gcc.h ****   return result;
 689:Drivers/CMSIS/Include/cmsis_gcc.h **** #endif
 690:Drivers/CMSIS/Include/cmsis_gcc.h **** }
 691:Drivers/CMSIS/Include/cmsis_gcc.h **** 
 692:Drivers/CMSIS/Include/cmsis_gcc.h **** 
 693:Drivers/CMSIS/Include/cmsis_gcc.h **** #if (defined (__ARM_FEATURE_CMSE  ) && (__ARM_FEATURE_CMSE   == 3))
 694:Drivers/CMSIS/Include/cmsis_gcc.h **** /**
 695:Drivers/CMSIS/Include/cmsis_gcc.h ****   \brief   Get Main Stack Pointer Limit (non-secure)
 696:Drivers/CMSIS/Include/cmsis_gcc.h ****   Devices without ARMv8-M Main Extensions (i.e. Cortex-M23) lack the non-secure
 697:Drivers/CMSIS/Include/cmsis_gcc.h ****   Stack Pointer Limit register hence zero is returned always.
 698:Drivers/CMSIS/Include/cmsis_gcc.h **** 
 699:Drivers/CMSIS/Include/cmsis_gcc.h ****   \details Returns the current value of the non-secure Main Stack Pointer Limit(MSPLIM) when in sec
 700:Drivers/CMSIS/Include/cmsis_gcc.h ****   \return               MSPLIM Register value
 701:Drivers/CMSIS/Include/cmsis_gcc.h ****  */
 702:Drivers/CMSIS/Include/cmsis_gcc.h **** __STATIC_FORCEINLINE uint32_t __TZ_get_MSPLIM_NS(void)
 703:Drivers/CMSIS/Include/cmsis_gcc.h **** {
 704:Drivers/CMSIS/Include/cmsis_gcc.h **** #if (!(defined (__ARM_ARCH_8M_MAIN__ ) && (__ARM_ARCH_8M_MAIN__ == 1)))
 705:Drivers/CMSIS/Include/cmsis_gcc.h ****   // without main extensions, the non-secure MSPLIM is RAZ/WI
 706:Drivers/CMSIS/Include/cmsis_gcc.h ****   return 0U;
 707:Drivers/CMSIS/Include/cmsis_gcc.h **** #else
 708:Drivers/CMSIS/Include/cmsis_gcc.h ****   uint32_t result;
 709:Drivers/CMSIS/Include/cmsis_gcc.h ****   __ASM volatile ("MRS %0, msplim_ns" : "=r" (result) );
 710:Drivers/CMSIS/Include/cmsis_gcc.h ****   return result;
 711:Drivers/CMSIS/Include/cmsis_gcc.h **** #endif
 712:Drivers/CMSIS/Include/cmsis_gcc.h **** }
 713:Drivers/CMSIS/Include/cmsis_gcc.h **** #endif
 714:Drivers/CMSIS/Include/cmsis_gcc.h **** 
 715:Drivers/CMSIS/Include/cmsis_gcc.h **** 
 716:Drivers/CMSIS/Include/cmsis_gcc.h **** /**
 717:Drivers/CMSIS/Include/cmsis_gcc.h ****   \brief   Set Main Stack Pointer Limit
 718:Drivers/CMSIS/Include/cmsis_gcc.h ****   Devices without ARMv8-M Main Extensions (i.e. Cortex-M23) lack the non-secure
 719:Drivers/CMSIS/Include/cmsis_gcc.h ****   Stack Pointer Limit register hence the write is silently ignored in non-secure
 720:Drivers/CMSIS/Include/cmsis_gcc.h ****   mode.
 721:Drivers/CMSIS/Include/cmsis_gcc.h **** 
 722:Drivers/CMSIS/Include/cmsis_gcc.h ****   \details Assigns the given value to the Main Stack Pointer Limit (MSPLIM).
ARM GAS  C:\Users\cedri\AppData\Local\Temp\cc9WRHZF.s 			page 31


 723:Drivers/CMSIS/Include/cmsis_gcc.h ****   \param [in]    MainStackPtrLimit  Main Stack Pointer Limit value to set
 724:Drivers/CMSIS/Include/cmsis_gcc.h ****  */
 725:Drivers/CMSIS/Include/cmsis_gcc.h **** __STATIC_FORCEINLINE void __set_MSPLIM(uint32_t MainStackPtrLimit)
 726:Drivers/CMSIS/Include/cmsis_gcc.h **** {
 727:Drivers/CMSIS/Include/cmsis_gcc.h **** #if (!(defined (__ARM_ARCH_8M_MAIN__ ) && (__ARM_ARCH_8M_MAIN__ == 1)) && \
 728:Drivers/CMSIS/Include/cmsis_gcc.h ****     (!defined (__ARM_FEATURE_CMSE) || (__ARM_FEATURE_CMSE < 3)))
 729:Drivers/CMSIS/Include/cmsis_gcc.h ****   // without main extensions, the non-secure MSPLIM is RAZ/WI
 730:Drivers/CMSIS/Include/cmsis_gcc.h ****   (void)MainStackPtrLimit;
 731:Drivers/CMSIS/Include/cmsis_gcc.h **** #else
 732:Drivers/CMSIS/Include/cmsis_gcc.h ****   __ASM volatile ("MSR msplim, %0" : : "r" (MainStackPtrLimit));
 733:Drivers/CMSIS/Include/cmsis_gcc.h **** #endif
 734:Drivers/CMSIS/Include/cmsis_gcc.h **** }
 735:Drivers/CMSIS/Include/cmsis_gcc.h **** 
 736:Drivers/CMSIS/Include/cmsis_gcc.h **** 
 737:Drivers/CMSIS/Include/cmsis_gcc.h **** #if (defined (__ARM_FEATURE_CMSE  ) && (__ARM_FEATURE_CMSE   == 3))
 738:Drivers/CMSIS/Include/cmsis_gcc.h **** /**
 739:Drivers/CMSIS/Include/cmsis_gcc.h ****   \brief   Set Main Stack Pointer Limit (non-secure)
 740:Drivers/CMSIS/Include/cmsis_gcc.h ****   Devices without ARMv8-M Main Extensions (i.e. Cortex-M23) lack the non-secure
 741:Drivers/CMSIS/Include/cmsis_gcc.h ****   Stack Pointer Limit register hence the write is silently ignored.
 742:Drivers/CMSIS/Include/cmsis_gcc.h **** 
 743:Drivers/CMSIS/Include/cmsis_gcc.h ****   \details Assigns the given value to the non-secure Main Stack Pointer Limit (MSPLIM) when in secu
 744:Drivers/CMSIS/Include/cmsis_gcc.h ****   \param [in]    MainStackPtrLimit  Main Stack Pointer value to set
 745:Drivers/CMSIS/Include/cmsis_gcc.h ****  */
 746:Drivers/CMSIS/Include/cmsis_gcc.h **** __STATIC_FORCEINLINE void __TZ_set_MSPLIM_NS(uint32_t MainStackPtrLimit)
 747:Drivers/CMSIS/Include/cmsis_gcc.h **** {
 748:Drivers/CMSIS/Include/cmsis_gcc.h **** #if (!(defined (__ARM_ARCH_8M_MAIN__ ) && (__ARM_ARCH_8M_MAIN__ == 1)))
 749:Drivers/CMSIS/Include/cmsis_gcc.h ****   // without main extensions, the non-secure MSPLIM is RAZ/WI
 750:Drivers/CMSIS/Include/cmsis_gcc.h ****   (void)MainStackPtrLimit;
 751:Drivers/CMSIS/Include/cmsis_gcc.h **** #else
 752:Drivers/CMSIS/Include/cmsis_gcc.h ****   __ASM volatile ("MSR msplim_ns, %0" : : "r" (MainStackPtrLimit));
 753:Drivers/CMSIS/Include/cmsis_gcc.h **** #endif
 754:Drivers/CMSIS/Include/cmsis_gcc.h **** }
 755:Drivers/CMSIS/Include/cmsis_gcc.h **** #endif
 756:Drivers/CMSIS/Include/cmsis_gcc.h **** 
 757:Drivers/CMSIS/Include/cmsis_gcc.h **** #endif /* ((defined (__ARM_ARCH_8M_MAIN__ ) && (__ARM_ARCH_8M_MAIN__ == 1)) || \
 758:Drivers/CMSIS/Include/cmsis_gcc.h ****            (defined (__ARM_ARCH_8M_BASE__ ) && (__ARM_ARCH_8M_BASE__ == 1))    ) */
 759:Drivers/CMSIS/Include/cmsis_gcc.h **** 
 760:Drivers/CMSIS/Include/cmsis_gcc.h **** 
 761:Drivers/CMSIS/Include/cmsis_gcc.h **** /**
 762:Drivers/CMSIS/Include/cmsis_gcc.h ****   \brief   Get FPSCR
 763:Drivers/CMSIS/Include/cmsis_gcc.h ****   \details Returns the current value of the Floating Point Status/Control register.
 764:Drivers/CMSIS/Include/cmsis_gcc.h ****   \return               Floating Point Status/Control register value
 765:Drivers/CMSIS/Include/cmsis_gcc.h ****  */
 766:Drivers/CMSIS/Include/cmsis_gcc.h **** __STATIC_FORCEINLINE uint32_t __get_FPSCR(void)
 767:Drivers/CMSIS/Include/cmsis_gcc.h **** {
 768:Drivers/CMSIS/Include/cmsis_gcc.h **** #if ((defined (__FPU_PRESENT) && (__FPU_PRESENT == 1U)) && \
 769:Drivers/CMSIS/Include/cmsis_gcc.h ****      (defined (__FPU_USED   ) && (__FPU_USED    == 1U))     )
 770:Drivers/CMSIS/Include/cmsis_gcc.h **** #if __has_builtin(__builtin_arm_get_fpscr) 
 771:Drivers/CMSIS/Include/cmsis_gcc.h **** // Re-enable using built-in when GCC has been fixed
 772:Drivers/CMSIS/Include/cmsis_gcc.h **** // || (__GNUC__ > 7) || (__GNUC__ == 7 && __GNUC_MINOR__ >= 2)
 773:Drivers/CMSIS/Include/cmsis_gcc.h ****   /* see https://gcc.gnu.org/ml/gcc-patches/2017-04/msg00443.html */
 774:Drivers/CMSIS/Include/cmsis_gcc.h ****   return __builtin_arm_get_fpscr();
 775:Drivers/CMSIS/Include/cmsis_gcc.h **** #else
 776:Drivers/CMSIS/Include/cmsis_gcc.h ****   uint32_t result;
 777:Drivers/CMSIS/Include/cmsis_gcc.h **** 
 778:Drivers/CMSIS/Include/cmsis_gcc.h ****   __ASM volatile ("VMRS %0, fpscr" : "=r" (result) );
 779:Drivers/CMSIS/Include/cmsis_gcc.h ****   return(result);
ARM GAS  C:\Users\cedri\AppData\Local\Temp\cc9WRHZF.s 			page 32


 780:Drivers/CMSIS/Include/cmsis_gcc.h **** #endif
 781:Drivers/CMSIS/Include/cmsis_gcc.h **** #else
 782:Drivers/CMSIS/Include/cmsis_gcc.h ****   return(0U);
 783:Drivers/CMSIS/Include/cmsis_gcc.h **** #endif
 784:Drivers/CMSIS/Include/cmsis_gcc.h **** }
 785:Drivers/CMSIS/Include/cmsis_gcc.h **** 
 786:Drivers/CMSIS/Include/cmsis_gcc.h **** 
 787:Drivers/CMSIS/Include/cmsis_gcc.h **** /**
 788:Drivers/CMSIS/Include/cmsis_gcc.h ****   \brief   Set FPSCR
 789:Drivers/CMSIS/Include/cmsis_gcc.h ****   \details Assigns the given value to the Floating Point Status/Control register.
 790:Drivers/CMSIS/Include/cmsis_gcc.h ****   \param [in]    fpscr  Floating Point Status/Control value to set
 791:Drivers/CMSIS/Include/cmsis_gcc.h ****  */
 792:Drivers/CMSIS/Include/cmsis_gcc.h **** __STATIC_FORCEINLINE void __set_FPSCR(uint32_t fpscr)
 793:Drivers/CMSIS/Include/cmsis_gcc.h **** {
 794:Drivers/CMSIS/Include/cmsis_gcc.h **** #if ((defined (__FPU_PRESENT) && (__FPU_PRESENT == 1U)) && \
 795:Drivers/CMSIS/Include/cmsis_gcc.h ****      (defined (__FPU_USED   ) && (__FPU_USED    == 1U))     )
 796:Drivers/CMSIS/Include/cmsis_gcc.h **** #if __has_builtin(__builtin_arm_set_fpscr)
 797:Drivers/CMSIS/Include/cmsis_gcc.h **** // Re-enable using built-in when GCC has been fixed
 798:Drivers/CMSIS/Include/cmsis_gcc.h **** // || (__GNUC__ > 7) || (__GNUC__ == 7 && __GNUC_MINOR__ >= 2)
 799:Drivers/CMSIS/Include/cmsis_gcc.h ****   /* see https://gcc.gnu.org/ml/gcc-patches/2017-04/msg00443.html */
 800:Drivers/CMSIS/Include/cmsis_gcc.h ****   __builtin_arm_set_fpscr(fpscr);
 801:Drivers/CMSIS/Include/cmsis_gcc.h **** #else
 802:Drivers/CMSIS/Include/cmsis_gcc.h ****   __ASM volatile ("VMSR fpscr, %0" : : "r" (fpscr) : "vfpcc", "memory");
 803:Drivers/CMSIS/Include/cmsis_gcc.h **** #endif
 804:Drivers/CMSIS/Include/cmsis_gcc.h **** #else
 805:Drivers/CMSIS/Include/cmsis_gcc.h ****   (void)fpscr;
 806:Drivers/CMSIS/Include/cmsis_gcc.h **** #endif
 807:Drivers/CMSIS/Include/cmsis_gcc.h **** }
 808:Drivers/CMSIS/Include/cmsis_gcc.h **** 
 809:Drivers/CMSIS/Include/cmsis_gcc.h **** 
 810:Drivers/CMSIS/Include/cmsis_gcc.h **** /*@} end of CMSIS_Core_RegAccFunctions */
 811:Drivers/CMSIS/Include/cmsis_gcc.h **** 
 812:Drivers/CMSIS/Include/cmsis_gcc.h **** 
 813:Drivers/CMSIS/Include/cmsis_gcc.h **** /* ##########################  Core Instruction Access  ######################### */
 814:Drivers/CMSIS/Include/cmsis_gcc.h **** /** \defgroup CMSIS_Core_InstructionInterface CMSIS Core Instruction Interface
 815:Drivers/CMSIS/Include/cmsis_gcc.h ****   Access to dedicated instructions
 816:Drivers/CMSIS/Include/cmsis_gcc.h ****   @{
 817:Drivers/CMSIS/Include/cmsis_gcc.h **** */
 818:Drivers/CMSIS/Include/cmsis_gcc.h **** 
 819:Drivers/CMSIS/Include/cmsis_gcc.h **** /* Define macros for porting to both thumb1 and thumb2.
 820:Drivers/CMSIS/Include/cmsis_gcc.h ****  * For thumb1, use low register (r0-r7), specified by constraint "l"
 821:Drivers/CMSIS/Include/cmsis_gcc.h ****  * Otherwise, use general registers, specified by constraint "r" */
 822:Drivers/CMSIS/Include/cmsis_gcc.h **** #if defined (__thumb__) && !defined (__thumb2__)
 823:Drivers/CMSIS/Include/cmsis_gcc.h **** #define __CMSIS_GCC_OUT_REG(r) "=l" (r)
 824:Drivers/CMSIS/Include/cmsis_gcc.h **** #define __CMSIS_GCC_RW_REG(r) "+l" (r)
 825:Drivers/CMSIS/Include/cmsis_gcc.h **** #define __CMSIS_GCC_USE_REG(r) "l" (r)
 826:Drivers/CMSIS/Include/cmsis_gcc.h **** #else
 827:Drivers/CMSIS/Include/cmsis_gcc.h **** #define __CMSIS_GCC_OUT_REG(r) "=r" (r)
 828:Drivers/CMSIS/Include/cmsis_gcc.h **** #define __CMSIS_GCC_RW_REG(r) "+r" (r)
 829:Drivers/CMSIS/Include/cmsis_gcc.h **** #define __CMSIS_GCC_USE_REG(r) "r" (r)
 830:Drivers/CMSIS/Include/cmsis_gcc.h **** #endif
 831:Drivers/CMSIS/Include/cmsis_gcc.h **** 
 832:Drivers/CMSIS/Include/cmsis_gcc.h **** /**
 833:Drivers/CMSIS/Include/cmsis_gcc.h ****   \brief   No Operation
 834:Drivers/CMSIS/Include/cmsis_gcc.h ****   \details No Operation does nothing. This instruction can be used for code alignment purposes.
 835:Drivers/CMSIS/Include/cmsis_gcc.h ****  */
 836:Drivers/CMSIS/Include/cmsis_gcc.h **** #define __NOP()                             __ASM volatile ("nop")
ARM GAS  C:\Users\cedri\AppData\Local\Temp\cc9WRHZF.s 			page 33


 837:Drivers/CMSIS/Include/cmsis_gcc.h **** 
 838:Drivers/CMSIS/Include/cmsis_gcc.h **** /**
 839:Drivers/CMSIS/Include/cmsis_gcc.h ****   \brief   Wait For Interrupt
 840:Drivers/CMSIS/Include/cmsis_gcc.h ****   \details Wait For Interrupt is a hint instruction that suspends execution until one of a number o
 841:Drivers/CMSIS/Include/cmsis_gcc.h ****  */
 842:Drivers/CMSIS/Include/cmsis_gcc.h **** #define __WFI()                             __ASM volatile ("wfi")
 843:Drivers/CMSIS/Include/cmsis_gcc.h **** 
 844:Drivers/CMSIS/Include/cmsis_gcc.h **** 
 845:Drivers/CMSIS/Include/cmsis_gcc.h **** /**
 846:Drivers/CMSIS/Include/cmsis_gcc.h ****   \brief   Wait For Event
 847:Drivers/CMSIS/Include/cmsis_gcc.h ****   \details Wait For Event is a hint instruction that permits the processor to enter
 848:Drivers/CMSIS/Include/cmsis_gcc.h ****            a low-power state until one of a number of events occurs.
 849:Drivers/CMSIS/Include/cmsis_gcc.h ****  */
 850:Drivers/CMSIS/Include/cmsis_gcc.h **** #define __WFE()                             __ASM volatile ("wfe")
 851:Drivers/CMSIS/Include/cmsis_gcc.h **** 
 852:Drivers/CMSIS/Include/cmsis_gcc.h **** 
 853:Drivers/CMSIS/Include/cmsis_gcc.h **** /**
 854:Drivers/CMSIS/Include/cmsis_gcc.h ****   \brief   Send Event
 855:Drivers/CMSIS/Include/cmsis_gcc.h ****   \details Send Event is a hint instruction. It causes an event to be signaled to the CPU.
 856:Drivers/CMSIS/Include/cmsis_gcc.h ****  */
 857:Drivers/CMSIS/Include/cmsis_gcc.h **** #define __SEV()                             __ASM volatile ("sev")
 858:Drivers/CMSIS/Include/cmsis_gcc.h **** 
 859:Drivers/CMSIS/Include/cmsis_gcc.h **** 
 860:Drivers/CMSIS/Include/cmsis_gcc.h **** /**
 861:Drivers/CMSIS/Include/cmsis_gcc.h ****   \brief   Instruction Synchronization Barrier
 862:Drivers/CMSIS/Include/cmsis_gcc.h ****   \details Instruction Synchronization Barrier flushes the pipeline in the processor,
 863:Drivers/CMSIS/Include/cmsis_gcc.h ****            so that all instructions following the ISB are fetched from cache or memory,
 864:Drivers/CMSIS/Include/cmsis_gcc.h ****            after the instruction has been completed.
 865:Drivers/CMSIS/Include/cmsis_gcc.h ****  */
 866:Drivers/CMSIS/Include/cmsis_gcc.h **** __STATIC_FORCEINLINE void __ISB(void)
 867:Drivers/CMSIS/Include/cmsis_gcc.h **** {
 868:Drivers/CMSIS/Include/cmsis_gcc.h ****   __ASM volatile ("isb 0xF":::"memory");
 869:Drivers/CMSIS/Include/cmsis_gcc.h **** }
 870:Drivers/CMSIS/Include/cmsis_gcc.h **** 
 871:Drivers/CMSIS/Include/cmsis_gcc.h **** 
 872:Drivers/CMSIS/Include/cmsis_gcc.h **** /**
 873:Drivers/CMSIS/Include/cmsis_gcc.h ****   \brief   Data Synchronization Barrier
 874:Drivers/CMSIS/Include/cmsis_gcc.h ****   \details Acts as a special kind of Data Memory Barrier.
 875:Drivers/CMSIS/Include/cmsis_gcc.h ****            It completes when all explicit memory accesses before this instruction complete.
 876:Drivers/CMSIS/Include/cmsis_gcc.h ****  */
 877:Drivers/CMSIS/Include/cmsis_gcc.h **** __STATIC_FORCEINLINE void __DSB(void)
 878:Drivers/CMSIS/Include/cmsis_gcc.h **** {
 879:Drivers/CMSIS/Include/cmsis_gcc.h ****   __ASM volatile ("dsb 0xF":::"memory");
 880:Drivers/CMSIS/Include/cmsis_gcc.h **** }
 881:Drivers/CMSIS/Include/cmsis_gcc.h **** 
 882:Drivers/CMSIS/Include/cmsis_gcc.h **** 
 883:Drivers/CMSIS/Include/cmsis_gcc.h **** /**
 884:Drivers/CMSIS/Include/cmsis_gcc.h ****   \brief   Data Memory Barrier
 885:Drivers/CMSIS/Include/cmsis_gcc.h ****   \details Ensures the apparent order of the explicit memory operations before
 886:Drivers/CMSIS/Include/cmsis_gcc.h ****            and after the instruction, without ensuring their completion.
 887:Drivers/CMSIS/Include/cmsis_gcc.h ****  */
 888:Drivers/CMSIS/Include/cmsis_gcc.h **** __STATIC_FORCEINLINE void __DMB(void)
 889:Drivers/CMSIS/Include/cmsis_gcc.h **** {
 890:Drivers/CMSIS/Include/cmsis_gcc.h ****   __ASM volatile ("dmb 0xF":::"memory");
 891:Drivers/CMSIS/Include/cmsis_gcc.h **** }
 892:Drivers/CMSIS/Include/cmsis_gcc.h **** 
 893:Drivers/CMSIS/Include/cmsis_gcc.h **** 
ARM GAS  C:\Users\cedri\AppData\Local\Temp\cc9WRHZF.s 			page 34


 894:Drivers/CMSIS/Include/cmsis_gcc.h **** /**
 895:Drivers/CMSIS/Include/cmsis_gcc.h ****   \brief   Reverse byte order (32 bit)
 896:Drivers/CMSIS/Include/cmsis_gcc.h ****   \details Reverses the byte order in unsigned integer value. For example, 0x12345678 becomes 0x785
 897:Drivers/CMSIS/Include/cmsis_gcc.h ****   \param [in]    value  Value to reverse
 898:Drivers/CMSIS/Include/cmsis_gcc.h ****   \return               Reversed value
 899:Drivers/CMSIS/Include/cmsis_gcc.h ****  */
 900:Drivers/CMSIS/Include/cmsis_gcc.h **** __STATIC_FORCEINLINE uint32_t __REV(uint32_t value)
 901:Drivers/CMSIS/Include/cmsis_gcc.h **** {
 902:Drivers/CMSIS/Include/cmsis_gcc.h **** #if (__GNUC__ > 4) || (__GNUC__ == 4 && __GNUC_MINOR__ >= 5)
 903:Drivers/CMSIS/Include/cmsis_gcc.h ****   return __builtin_bswap32(value);
 904:Drivers/CMSIS/Include/cmsis_gcc.h **** #else
 905:Drivers/CMSIS/Include/cmsis_gcc.h ****   uint32_t result;
 906:Drivers/CMSIS/Include/cmsis_gcc.h **** 
 907:Drivers/CMSIS/Include/cmsis_gcc.h ****   __ASM volatile ("rev %0, %1" : __CMSIS_GCC_OUT_REG (result) : __CMSIS_GCC_USE_REG (value) );
 908:Drivers/CMSIS/Include/cmsis_gcc.h ****   return result;
 909:Drivers/CMSIS/Include/cmsis_gcc.h **** #endif
 910:Drivers/CMSIS/Include/cmsis_gcc.h **** }
 911:Drivers/CMSIS/Include/cmsis_gcc.h **** 
 912:Drivers/CMSIS/Include/cmsis_gcc.h **** 
 913:Drivers/CMSIS/Include/cmsis_gcc.h **** /**
 914:Drivers/CMSIS/Include/cmsis_gcc.h ****   \brief   Reverse byte order (16 bit)
 915:Drivers/CMSIS/Include/cmsis_gcc.h ****   \details Reverses the byte order within each halfword of a word. For example, 0x12345678 becomes 
 916:Drivers/CMSIS/Include/cmsis_gcc.h ****   \param [in]    value  Value to reverse
 917:Drivers/CMSIS/Include/cmsis_gcc.h ****   \return               Reversed value
 918:Drivers/CMSIS/Include/cmsis_gcc.h ****  */
 919:Drivers/CMSIS/Include/cmsis_gcc.h **** __STATIC_FORCEINLINE uint32_t __REV16(uint32_t value)
 920:Drivers/CMSIS/Include/cmsis_gcc.h **** {
 921:Drivers/CMSIS/Include/cmsis_gcc.h ****   uint32_t result;
 922:Drivers/CMSIS/Include/cmsis_gcc.h **** 
 923:Drivers/CMSIS/Include/cmsis_gcc.h ****   __ASM volatile ("rev16 %0, %1" : __CMSIS_GCC_OUT_REG (result) : __CMSIS_GCC_USE_REG (value) );
 924:Drivers/CMSIS/Include/cmsis_gcc.h ****   return result;
 925:Drivers/CMSIS/Include/cmsis_gcc.h **** }
 926:Drivers/CMSIS/Include/cmsis_gcc.h **** 
 927:Drivers/CMSIS/Include/cmsis_gcc.h **** 
 928:Drivers/CMSIS/Include/cmsis_gcc.h **** /**
 929:Drivers/CMSIS/Include/cmsis_gcc.h ****   \brief   Reverse byte order (16 bit)
 930:Drivers/CMSIS/Include/cmsis_gcc.h ****   \details Reverses the byte order in a 16-bit value and returns the signed 16-bit result. For exam
 931:Drivers/CMSIS/Include/cmsis_gcc.h ****   \param [in]    value  Value to reverse
 932:Drivers/CMSIS/Include/cmsis_gcc.h ****   \return               Reversed value
 933:Drivers/CMSIS/Include/cmsis_gcc.h ****  */
 934:Drivers/CMSIS/Include/cmsis_gcc.h **** __STATIC_FORCEINLINE int16_t __REVSH(int16_t value)
 935:Drivers/CMSIS/Include/cmsis_gcc.h **** {
 936:Drivers/CMSIS/Include/cmsis_gcc.h **** #if (__GNUC__ > 4) || (__GNUC__ == 4 && __GNUC_MINOR__ >= 8)
 937:Drivers/CMSIS/Include/cmsis_gcc.h ****   return (int16_t)__builtin_bswap16(value);
 938:Drivers/CMSIS/Include/cmsis_gcc.h **** #else
 939:Drivers/CMSIS/Include/cmsis_gcc.h ****   int16_t result;
 940:Drivers/CMSIS/Include/cmsis_gcc.h **** 
 941:Drivers/CMSIS/Include/cmsis_gcc.h ****   __ASM volatile ("revsh %0, %1" : __CMSIS_GCC_OUT_REG (result) : __CMSIS_GCC_USE_REG (value) );
 942:Drivers/CMSIS/Include/cmsis_gcc.h ****   return result;
 943:Drivers/CMSIS/Include/cmsis_gcc.h **** #endif
 944:Drivers/CMSIS/Include/cmsis_gcc.h **** }
 945:Drivers/CMSIS/Include/cmsis_gcc.h **** 
 946:Drivers/CMSIS/Include/cmsis_gcc.h **** 
 947:Drivers/CMSIS/Include/cmsis_gcc.h **** /**
 948:Drivers/CMSIS/Include/cmsis_gcc.h ****   \brief   Rotate Right in unsigned value (32 bit)
 949:Drivers/CMSIS/Include/cmsis_gcc.h ****   \details Rotate Right (immediate) provides the value of the contents of a register rotated by a v
 950:Drivers/CMSIS/Include/cmsis_gcc.h ****   \param [in]    op1  Value to rotate
ARM GAS  C:\Users\cedri\AppData\Local\Temp\cc9WRHZF.s 			page 35


 951:Drivers/CMSIS/Include/cmsis_gcc.h ****   \param [in]    op2  Number of Bits to rotate
 952:Drivers/CMSIS/Include/cmsis_gcc.h ****   \return               Rotated value
 953:Drivers/CMSIS/Include/cmsis_gcc.h ****  */
 954:Drivers/CMSIS/Include/cmsis_gcc.h **** __STATIC_FORCEINLINE uint32_t __ROR(uint32_t op1, uint32_t op2)
 955:Drivers/CMSIS/Include/cmsis_gcc.h **** {
 956:Drivers/CMSIS/Include/cmsis_gcc.h ****   op2 %= 32U;
 957:Drivers/CMSIS/Include/cmsis_gcc.h ****   if (op2 == 0U)
 958:Drivers/CMSIS/Include/cmsis_gcc.h ****   {
 959:Drivers/CMSIS/Include/cmsis_gcc.h ****     return op1;
 960:Drivers/CMSIS/Include/cmsis_gcc.h ****   }
 961:Drivers/CMSIS/Include/cmsis_gcc.h ****   return (op1 >> op2) | (op1 << (32U - op2));
 962:Drivers/CMSIS/Include/cmsis_gcc.h **** }
 963:Drivers/CMSIS/Include/cmsis_gcc.h **** 
 964:Drivers/CMSIS/Include/cmsis_gcc.h **** 
 965:Drivers/CMSIS/Include/cmsis_gcc.h **** /**
 966:Drivers/CMSIS/Include/cmsis_gcc.h ****   \brief   Breakpoint
 967:Drivers/CMSIS/Include/cmsis_gcc.h ****   \details Causes the processor to enter Debug state.
 968:Drivers/CMSIS/Include/cmsis_gcc.h ****            Debug tools can use this to investigate system state when the instruction at a particula
 969:Drivers/CMSIS/Include/cmsis_gcc.h ****   \param [in]    value  is ignored by the processor.
 970:Drivers/CMSIS/Include/cmsis_gcc.h ****                  If required, a debugger can use it to store additional information about the break
 971:Drivers/CMSIS/Include/cmsis_gcc.h ****  */
 972:Drivers/CMSIS/Include/cmsis_gcc.h **** #define __BKPT(value)                       __ASM volatile ("bkpt "#value)
 973:Drivers/CMSIS/Include/cmsis_gcc.h **** 
 974:Drivers/CMSIS/Include/cmsis_gcc.h **** 
 975:Drivers/CMSIS/Include/cmsis_gcc.h **** /**
 976:Drivers/CMSIS/Include/cmsis_gcc.h ****   \brief   Reverse bit order of value
 977:Drivers/CMSIS/Include/cmsis_gcc.h ****   \details Reverses the bit order of the given value.
 978:Drivers/CMSIS/Include/cmsis_gcc.h ****   \param [in]    value  Value to reverse
 979:Drivers/CMSIS/Include/cmsis_gcc.h ****   \return               Reversed value
 980:Drivers/CMSIS/Include/cmsis_gcc.h ****  */
 981:Drivers/CMSIS/Include/cmsis_gcc.h **** __STATIC_FORCEINLINE uint32_t __RBIT(uint32_t value)
 128              		.loc 2 981 31 is_stmt 1 view .LVU39
 129              	.LBB12:
 982:Drivers/CMSIS/Include/cmsis_gcc.h **** {
 983:Drivers/CMSIS/Include/cmsis_gcc.h ****   uint32_t result;
 130              		.loc 2 983 3 view .LVU40
 984:Drivers/CMSIS/Include/cmsis_gcc.h **** 
 985:Drivers/CMSIS/Include/cmsis_gcc.h **** #if ((defined (__ARM_ARCH_7M__      ) && (__ARM_ARCH_7M__      == 1)) || \
 986:Drivers/CMSIS/Include/cmsis_gcc.h ****      (defined (__ARM_ARCH_7EM__     ) && (__ARM_ARCH_7EM__     == 1)) || \
 987:Drivers/CMSIS/Include/cmsis_gcc.h ****      (defined (__ARM_ARCH_8M_MAIN__ ) && (__ARM_ARCH_8M_MAIN__ == 1))    )
 988:Drivers/CMSIS/Include/cmsis_gcc.h ****    __ASM volatile ("rbit %0, %1" : "=r" (result) : "r" (value) );
 131              		.loc 2 988 4 view .LVU41
 132 0044 4FF40072 		mov	r2, #512
 133              		.syntax unified
 134              	@ 988 "Drivers/CMSIS/Include/cmsis_gcc.h" 1
 135 0048 92FAA2F2 		rbit r2, r2
 136              	@ 0 "" 2
 137              	.LVL4:
 989:Drivers/CMSIS/Include/cmsis_gcc.h **** #else
 990:Drivers/CMSIS/Include/cmsis_gcc.h ****   uint32_t s = (4U /*sizeof(v)*/ * 8U) - 1U; /* extra shift needed at end */
 991:Drivers/CMSIS/Include/cmsis_gcc.h **** 
 992:Drivers/CMSIS/Include/cmsis_gcc.h ****   result = value;                      /* r will be reversed bits of v; first get LSB of v */
 993:Drivers/CMSIS/Include/cmsis_gcc.h ****   for (value >>= 1U; value != 0U; value >>= 1U)
 994:Drivers/CMSIS/Include/cmsis_gcc.h ****   {
 995:Drivers/CMSIS/Include/cmsis_gcc.h ****     result <<= 1U;
 996:Drivers/CMSIS/Include/cmsis_gcc.h ****     result |= value & 1U;
 997:Drivers/CMSIS/Include/cmsis_gcc.h ****     s--;
ARM GAS  C:\Users\cedri\AppData\Local\Temp\cc9WRHZF.s 			page 36


 998:Drivers/CMSIS/Include/cmsis_gcc.h ****   }
 999:Drivers/CMSIS/Include/cmsis_gcc.h ****   result <<= s;                        /* shift when v's highest bits are zero */
1000:Drivers/CMSIS/Include/cmsis_gcc.h **** #endif
1001:Drivers/CMSIS/Include/cmsis_gcc.h ****   return result;
 138              		.loc 2 1001 3 view .LVU42
 139              		.loc 2 1001 3 is_stmt 0 view .LVU43
 140              		.thumb
 141              		.syntax unified
 142              	.LBE12:
 143              	.LBE11:
 528:Drivers/STM32L1xx_HAL_Driver/Src/stm32l1xx_hal_adc.c ****                 hadc->Init.ChannelsBank                                        |
 144              		.loc 1 528 17 view .LVU44
 145 004c B2FA82F2 		clz	r2, r2
 146 0050 01FA02F2 		lsl	r2, r1, r2
 527:Drivers/STM32L1xx_HAL_Driver/Src/stm32l1xx_hal_adc.c ****                 ADC_CR2_DMACONTREQ((uint32_t)hadc->Init.DMAContinuousRequests) |
 147              		.loc 1 527 80 view .LVU45
 148 0054 1343     		orrs	r3, r3, r2
 529:Drivers/STM32L1xx_HAL_Driver/Src/stm32l1xx_hal_adc.c ****                 ADC_CR2_CONTINUOUS((uint32_t)hadc->Init.ContinuousConvMode)     );
 149              		.loc 1 529 27 view .LVU46
 150 0056 226A     		ldr	r2, [r4, #32]
 528:Drivers/STM32L1xx_HAL_Driver/Src/stm32l1xx_hal_adc.c ****                 hadc->Init.ChannelsBank                                        |
 151              		.loc 1 528 80 view .LVU47
 152 0058 1343     		orrs	r3, r3, r2
 530:Drivers/STM32L1xx_HAL_Driver/Src/stm32l1xx_hal_adc.c **** 
 153              		.loc 1 530 17 view .LVU48
 154 005a 94F82400 		ldrb	r0, [r4, #36]	@ zero_extendqisi2
 155              	.LVL5:
 156              	.LBB13:
 157              	.LBI13:
 981:Drivers/CMSIS/Include/cmsis_gcc.h **** {
 158              		.loc 2 981 31 is_stmt 1 view .LVU49
 159              	.LBB14:
 983:Drivers/CMSIS/Include/cmsis_gcc.h **** 
 160              		.loc 2 983 3 view .LVU50
 988:Drivers/CMSIS/Include/cmsis_gcc.h **** #else
 161              		.loc 2 988 4 view .LVU51
 162 005e 0222     		movs	r2, #2
 163              		.syntax unified
 164              	@ 988 "Drivers/CMSIS/Include/cmsis_gcc.h" 1
 165 0060 92FAA2F2 		rbit r2, r2
 166              	@ 0 "" 2
 167              	.LVL6:
 168              		.loc 2 1001 3 view .LVU52
 169              		.loc 2 1001 3 is_stmt 0 view .LVU53
 170              		.thumb
 171              		.syntax unified
 172              	.LBE14:
 173              	.LBE13:
 530:Drivers/STM32L1xx_HAL_Driver/Src/stm32l1xx_hal_adc.c **** 
 174              		.loc 1 530 17 view .LVU54
 175 0064 B2FA82F2 		clz	r2, r2
 176 0068 00FA02F2 		lsl	r2, r0, r2
 529:Drivers/STM32L1xx_HAL_Driver/Src/stm32l1xx_hal_adc.c ****                 ADC_CR2_CONTINUOUS((uint32_t)hadc->Init.ContinuousConvMode)     );
 177              		.loc 1 529 80 view .LVU55
 178 006c 1343     		orrs	r3, r3, r2
 179              	.LVL7:
 537:Drivers/STM32L1xx_HAL_Driver/Src/stm32l1xx_hal_adc.c ****     {
ARM GAS  C:\Users\cedri\AppData\Local\Temp\cc9WRHZF.s 			page 37


 180              		.loc 1 537 5 is_stmt 1 view .LVU56
 537:Drivers/STM32L1xx_HAL_Driver/Src/stm32l1xx_hal_adc.c ****     {
 181              		.loc 1 537 19 is_stmt 0 view .LVU57
 182 006e 626B     		ldr	r2, [r4, #52]
 537:Drivers/STM32L1xx_HAL_Driver/Src/stm32l1xx_hal_adc.c ****     {
 183              		.loc 1 537 8 view .LVU58
 184 0070 102A     		cmp	r2, #16
 185 0072 02D0     		beq	.L5
 539:Drivers/STM32L1xx_HAL_Driver/Src/stm32l1xx_hal_adc.c ****                   hadc->Init.ExternalTrigConvEdge );
 186              		.loc 1 539 7 is_stmt 1 view .LVU59
 540:Drivers/STM32L1xx_HAL_Driver/Src/stm32l1xx_hal_adc.c ****     }
 187              		.loc 1 540 29 is_stmt 0 view .LVU60
 188 0074 A16B     		ldr	r1, [r4, #56]
 539:Drivers/STM32L1xx_HAL_Driver/Src/stm32l1xx_hal_adc.c ****                   hadc->Init.ExternalTrigConvEdge );
 189              		.loc 1 539 51 view .LVU61
 190 0076 0A43     		orrs	r2, r2, r1
 539:Drivers/STM32L1xx_HAL_Driver/Src/stm32l1xx_hal_adc.c ****                   hadc->Init.ExternalTrigConvEdge );
 191              		.loc 1 539 15 view .LVU62
 192 0078 1343     		orrs	r3, r3, r2
 193              	.LVL8:
 194              	.L5:
 551:Drivers/STM32L1xx_HAL_Driver/Src/stm32l1xx_hal_adc.c ****     {
 195              		.loc 1 551 5 is_stmt 1 view .LVU63
 551:Drivers/STM32L1xx_HAL_Driver/Src/stm32l1xx_hal_adc.c ****     {
 196              		.loc 1 551 10 is_stmt 0 view .LVU64
 197 007a 2568     		ldr	r5, [r4]
 198 007c 2A68     		ldr	r2, [r5]
 551:Drivers/STM32L1xx_HAL_Driver/Src/stm32l1xx_hal_adc.c ****     {
 199              		.loc 1 551 8 view .LVU65
 200 007e 12F04002 		ands	r2, r2, #64
 201 0082 14D1     		bne	.L6
 553:Drivers/STM32L1xx_HAL_Driver/Src/stm32l1xx_hal_adc.c ****       
 202              		.loc 1 553 7 is_stmt 1 view .LVU66
 553:Drivers/STM32L1xx_HAL_Driver/Src/stm32l1xx_hal_adc.c ****       
 203              		.loc 1 553 28 is_stmt 0 view .LVU67
 204 0084 A169     		ldr	r1, [r4, #24]
 553:Drivers/STM32L1xx_HAL_Driver/Src/stm32l1xx_hal_adc.c ****       
 205              		.loc 1 553 15 view .LVU68
 206 0086 0B43     		orrs	r3, r3, r1
 207              	.LVL9:
 555:Drivers/STM32L1xx_HAL_Driver/Src/stm32l1xx_hal_adc.c ****                   hadc->Init.LowPowerAutoPowerOff           |
 208              		.loc 1 555 7 is_stmt 1 view .LVU69
 555:Drivers/STM32L1xx_HAL_Driver/Src/stm32l1xx_hal_adc.c ****                   hadc->Init.LowPowerAutoPowerOff           |
 209              		.loc 1 555 29 is_stmt 0 view .LVU70
 210 0088 A168     		ldr	r1, [r4, #8]
 556:Drivers/STM32L1xx_HAL_Driver/Src/stm32l1xx_hal_adc.c ****                   ADC_CR1_SCAN_SET(hadc->Init.ScanConvMode)  );
 211              		.loc 1 556 29 view .LVU71
 212 008a E669     		ldr	r6, [r4, #28]
 555:Drivers/STM32L1xx_HAL_Driver/Src/stm32l1xx_hal_adc.c ****                   hadc->Init.LowPowerAutoPowerOff           |
 213              		.loc 1 555 61 view .LVU72
 214 008c 3143     		orrs	r1, r1, r6
 557:Drivers/STM32L1xx_HAL_Driver/Src/stm32l1xx_hal_adc.c ****       
 215              		.loc 1 557 19 view .LVU73
 216 008e 2669     		ldr	r6, [r4, #16]
 217 0090 B6F5807F 		cmp	r6, #256
 218 0094 30D0     		beq	.L16
 557:Drivers/STM32L1xx_HAL_Driver/Src/stm32l1xx_hal_adc.c ****       
ARM GAS  C:\Users\cedri\AppData\Local\Temp\cc9WRHZF.s 			page 38


 219              		.loc 1 557 19 discriminator 2 view .LVU74
 220 0096 012E     		cmp	r6, #1
 221 0098 2BD0     		beq	.L22
 222              	.L7:
 556:Drivers/STM32L1xx_HAL_Driver/Src/stm32l1xx_hal_adc.c ****                   ADC_CR1_SCAN_SET(hadc->Init.ScanConvMode)  );
 223              		.loc 1 556 61 view .LVU75
 224 009a 0A43     		orrs	r2, r2, r1
 225              	.LVL10:
 562:Drivers/STM32L1xx_HAL_Driver/Src/stm32l1xx_hal_adc.c ****       {
 226              		.loc 1 562 7 is_stmt 1 view .LVU76
 562:Drivers/STM32L1xx_HAL_Driver/Src/stm32l1xx_hal_adc.c ****       {
 227              		.loc 1 562 21 is_stmt 0 view .LVU77
 228 009c 94F82C10 		ldrb	r1, [r4, #44]	@ zero_extendqisi2
 562:Drivers/STM32L1xx_HAL_Driver/Src/stm32l1xx_hal_adc.c ****       {
 229              		.loc 1 562 10 view .LVU78
 230 00a0 0129     		cmp	r1, #1
 231 00a2 2BD0     		beq	.L23
 232              	.L8:
 585:Drivers/STM32L1xx_HAL_Driver/Src/stm32l1xx_hal_adc.c ****                    ADC_CR1_RES     |
 233              		.loc 1 585 9 is_stmt 1 view .LVU79
 234 00a4 6868     		ldr	r0, [r5, #4]
 235 00a6 3949     		ldr	r1, .L25+4
 236 00a8 0140     		ands	r1, r1, r0
 237 00aa 1143     		orrs	r1, r1, r2
 238 00ac 6960     		str	r1, [r5, #4]
 239              	.LVL11:
 240              	.L6:
 596:Drivers/STM32L1xx_HAL_Driver/Src/stm32l1xx_hal_adc.c ****                ADC_CR2_MASK_ADCINIT() ,
 241              		.loc 1 596 5 view .LVU80
 242 00ae 2168     		ldr	r1, [r4]
 243 00b0 8868     		ldr	r0, [r1, #8]
 244 00b2 374A     		ldr	r2, .L25+8
 245 00b4 0240     		ands	r2, r2, r0
 246 00b6 1A43     		orrs	r2, r2, r3
 247 00b8 8A60     		str	r2, [r1, #8]
 609:Drivers/STM32L1xx_HAL_Driver/Src/stm32l1xx_hal_adc.c ****     {
 248              		.loc 1 609 5 view .LVU81
 609:Drivers/STM32L1xx_HAL_Driver/Src/stm32l1xx_hal_adc.c ****     {
 249              		.loc 1 609 9 is_stmt 0 view .LVU82
 250 00ba 2269     		ldr	r2, [r4, #16]
 609:Drivers/STM32L1xx_HAL_Driver/Src/stm32l1xx_hal_adc.c ****     {
 251              		.loc 1 609 8 view .LVU83
 252 00bc B2F5807F 		cmp	r2, #256
 253 00c0 33D0     		beq	.L10
 609:Drivers/STM32L1xx_HAL_Driver/Src/stm32l1xx_hal_adc.c ****     {
 254              		.loc 1 609 51 discriminator 1 view .LVU84
 255 00c2 012A     		cmp	r2, #1
 256 00c4 31D0     		beq	.L10
 617:Drivers/STM32L1xx_HAL_Driver/Src/stm32l1xx_hal_adc.c ****                  ADC_SQR1_L          ,
 257              		.loc 1 617 7 is_stmt 1 view .LVU85
 258 00c6 2168     		ldr	r1, [r4]
 259 00c8 0A6B     		ldr	r2, [r1, #48]
 260 00ca 22F0F872 		bic	r2, r2, #32505856
 261 00ce 0A63     		str	r2, [r1, #48]
 262 00d0 3AE0     		b	.L12
 263              	.LVL12:
 264              	.L21:
ARM GAS  C:\Users\cedri\AppData\Local\Temp\cc9WRHZF.s 			page 39


 474:Drivers/STM32L1xx_HAL_Driver/Src/stm32l1xx_hal_adc.c ****     
 265              		.loc 1 474 5 view .LVU86
 266 00d2 0365     		str	r3, [r0, #80]
 477:Drivers/STM32L1xx_HAL_Driver/Src/stm32l1xx_hal_adc.c ****     
 267              		.loc 1 477 5 view .LVU87
 477:Drivers/STM32L1xx_HAL_Driver/Src/stm32l1xx_hal_adc.c ****     
 268              		.loc 1 477 16 is_stmt 0 view .LVU88
 269 00d4 80F84830 		strb	r3, [r0, #72]
 480:Drivers/STM32L1xx_HAL_Driver/Src/stm32l1xx_hal_adc.c **** 
 270              		.loc 1 480 5 is_stmt 1 view .LVU89
 271              	.LBB15:
 480:Drivers/STM32L1xx_HAL_Driver/Src/stm32l1xx_hal_adc.c **** 
 272              		.loc 1 480 5 view .LVU90
 480:Drivers/STM32L1xx_HAL_Driver/Src/stm32l1xx_hal_adc.c **** 
 273              		.loc 1 480 5 view .LVU91
 274 00d8 2E4B     		ldr	r3, .L25+12
 275 00da 1A6A     		ldr	r2, [r3, #32]
 276 00dc 42F00102 		orr	r2, r2, #1
 277 00e0 1A62     		str	r2, [r3, #32]
 480:Drivers/STM32L1xx_HAL_Driver/Src/stm32l1xx_hal_adc.c **** 
 278              		.loc 1 480 5 view .LVU92
 279 00e2 1B6A     		ldr	r3, [r3, #32]
 280 00e4 03F00103 		and	r3, r3, #1
 281 00e8 0193     		str	r3, [sp, #4]
 480:Drivers/STM32L1xx_HAL_Driver/Src/stm32l1xx_hal_adc.c **** 
 282              		.loc 1 480 5 view .LVU93
 283 00ea 019B     		ldr	r3, [sp, #4]
 284              	.LBE15:
 480:Drivers/STM32L1xx_HAL_Driver/Src/stm32l1xx_hal_adc.c **** 
 285              		.loc 1 480 5 view .LVU94
 499:Drivers/STM32L1xx_HAL_Driver/Src/stm32l1xx_hal_adc.c **** #endif /* USE_HAL_ADC_REGISTER_CALLBACKS */
 286              		.loc 1 499 5 view .LVU95
 287 00ec FFF7FEFF 		bl	HAL_ADC_MspInit
 288              	.LVL13:
 499:Drivers/STM32L1xx_HAL_Driver/Src/stm32l1xx_hal_adc.c **** #endif /* USE_HAL_ADC_REGISTER_CALLBACKS */
 289              		.loc 1 499 5 is_stmt 0 view .LVU96
 290 00f0 8FE7     		b	.L4
 291              	.LVL14:
 292              	.L22:
 557:Drivers/STM32L1xx_HAL_Driver/Src/stm32l1xx_hal_adc.c ****       
 293              		.loc 1 557 19 view .LVU97
 294 00f2 4FF48072 		mov	r2, #256
 295 00f6 D0E7     		b	.L7
 296              	.L16:
 297 00f8 3246     		mov	r2, r6
 298 00fa CEE7     		b	.L7
 299              	.LVL15:
 300              	.L23:
 564:Drivers/STM32L1xx_HAL_Driver/Src/stm32l1xx_hal_adc.c ****         {
 301              		.loc 1 564 9 is_stmt 1 view .LVU98
 564:Drivers/STM32L1xx_HAL_Driver/Src/stm32l1xx_hal_adc.c ****         {
 302              		.loc 1 564 12 is_stmt 0 view .LVU99
 303 00fc 60B9     		cbnz	r0, .L9
 568:Drivers/STM32L1xx_HAL_Driver/Src/stm32l1xx_hal_adc.c ****                            ADC_CR1_DISCONTINUOUS_NUM(hadc->Init.NbrOfDiscConversion)  );
 304              		.loc 1 568 11 is_stmt 1 view .LVU100
 305 00fe 216B     		ldr	r1, [r4, #48]
 306 0100 0139     		subs	r1, r1, #1
ARM GAS  C:\Users\cedri\AppData\Local\Temp\cc9WRHZF.s 			page 40


 307              	.LVL16:
 308              	.LBB16:
 309              	.LBI16:
 981:Drivers/CMSIS/Include/cmsis_gcc.h **** {
 310              		.loc 2 981 31 view .LVU101
 311              	.LBB17:
 983:Drivers/CMSIS/Include/cmsis_gcc.h **** 
 312              		.loc 2 983 3 view .LVU102
 988:Drivers/CMSIS/Include/cmsis_gcc.h **** #else
 313              		.loc 2 988 4 view .LVU103
 314 0102 4FF46040 		mov	r0, #57344
 315              		.syntax unified
 316              	@ 988 "Drivers/CMSIS/Include/cmsis_gcc.h" 1
 317 0106 90FAA0F0 		rbit r0, r0
 318              	@ 0 "" 2
 319              	.LVL17:
 320              		.loc 2 1001 3 view .LVU104
 321              		.loc 2 1001 3 is_stmt 0 view .LVU105
 322              		.thumb
 323              		.syntax unified
 324              	.LBE17:
 325              	.LBE16:
 568:Drivers/STM32L1xx_HAL_Driver/Src/stm32l1xx_hal_adc.c ****                            ADC_CR1_DISCONTINUOUS_NUM(hadc->Init.NbrOfDiscConversion)  );
 326              		.loc 1 568 11 view .LVU106
 327 010a B0FA80F0 		clz	r0, r0
 328 010e 8140     		lsls	r1, r1, r0
 329 0110 41F40061 		orr	r1, r1, #2048
 330 0114 0A43     		orrs	r2, r2, r1
 331              	.LVL18:
 568:Drivers/STM32L1xx_HAL_Driver/Src/stm32l1xx_hal_adc.c ****                            ADC_CR1_DISCONTINUOUS_NUM(hadc->Init.NbrOfDiscConversion)  );
 332              		.loc 1 568 11 view .LVU107
 333 0116 C5E7     		b	.L8
 334              	.L9:
 577:Drivers/STM32L1xx_HAL_Driver/Src/stm32l1xx_hal_adc.c ****           
 335              		.loc 1 577 11 is_stmt 1 view .LVU108
 336 0118 E16C     		ldr	r1, [r4, #76]
 337 011a 41F02001 		orr	r1, r1, #32
 338 011e E164     		str	r1, [r4, #76]
 580:Drivers/STM32L1xx_HAL_Driver/Src/stm32l1xx_hal_adc.c ****         }
 339              		.loc 1 580 11 view .LVU109
 340 0120 216D     		ldr	r1, [r4, #80]
 341 0122 41F00101 		orr	r1, r1, #1
 342 0126 2165     		str	r1, [r4, #80]
 343 0128 BCE7     		b	.L8
 344              	.LVL19:
 345              	.L10:
 611:Drivers/STM32L1xx_HAL_Driver/Src/stm32l1xx_hal_adc.c ****                  ADC_SQR1_L                                   ,
 346              		.loc 1 611 7 view .LVU110
 347 012a 2568     		ldr	r5, [r4]
 348 012c 2A6B     		ldr	r2, [r5, #48]
 349 012e 22F0F872 		bic	r2, r2, #32505856
 350 0132 A16A     		ldr	r1, [r4, #40]
 351 0134 0139     		subs	r1, r1, #1
 352              	.LVL20:
 353              	.LBB18:
 354              	.LBI18:
 981:Drivers/CMSIS/Include/cmsis_gcc.h **** {
ARM GAS  C:\Users\cedri\AppData\Local\Temp\cc9WRHZF.s 			page 41


 355              		.loc 2 981 31 view .LVU111
 356              	.LBB19:
 983:Drivers/CMSIS/Include/cmsis_gcc.h **** 
 357              		.loc 2 983 3 view .LVU112
 988:Drivers/CMSIS/Include/cmsis_gcc.h **** #else
 358              		.loc 2 988 4 view .LVU113
 359 0136 4FF0F870 		mov	r0, #32505856
 360              		.syntax unified
 361              	@ 988 "Drivers/CMSIS/Include/cmsis_gcc.h" 1
 362 013a 90FAA0F0 		rbit r0, r0
 363              	@ 0 "" 2
 364              	.LVL21:
 365              		.loc 2 1001 3 view .LVU114
 366              		.loc 2 1001 3 is_stmt 0 view .LVU115
 367              		.thumb
 368              		.syntax unified
 369              	.LBE19:
 370              	.LBE18:
 611:Drivers/STM32L1xx_HAL_Driver/Src/stm32l1xx_hal_adc.c ****                  ADC_SQR1_L                                   ,
 371              		.loc 1 611 7 view .LVU116
 372 013e B0FA80F0 		clz	r0, r0
 373 0142 8140     		lsls	r1, r1, r0
 374 0144 0A43     		orrs	r2, r2, r1
 375 0146 2A63     		str	r2, [r5, #48]
 376              	.L12:
 626:Drivers/STM32L1xx_HAL_Driver/Src/stm32l1xx_hal_adc.c ****                                            ADC_CR2_SWSTART | ADC_CR2_JSWSTART |
 377              		.loc 1 626 5 is_stmt 1 view .LVU117
 626:Drivers/STM32L1xx_HAL_Driver/Src/stm32l1xx_hal_adc.c ****                                            ADC_CR2_SWSTART | ADC_CR2_JSWSTART |
 378              		.loc 1 626 10 is_stmt 0 view .LVU118
 379 0148 2268     		ldr	r2, [r4]
 380 014a 9168     		ldr	r1, [r2, #8]
 626:Drivers/STM32L1xx_HAL_Driver/Src/stm32l1xx_hal_adc.c ****                                            ADC_CR2_SWSTART | ADC_CR2_JSWSTART |
 381              		.loc 1 626 40 view .LVU119
 382 014c 124A     		ldr	r2, .L25+16
 383 014e 0A40     		ands	r2, r2, r1
 626:Drivers/STM32L1xx_HAL_Driver/Src/stm32l1xx_hal_adc.c ****                                            ADC_CR2_SWSTART | ADC_CR2_JSWSTART |
 384              		.loc 1 626 8 view .LVU120
 385 0150 9A42     		cmp	r2, r3
 386 0152 0BD0     		beq	.L24
 642:Drivers/STM32L1xx_HAL_Driver/Src/stm32l1xx_hal_adc.c ****                         HAL_ADC_STATE_BUSY_INTERNAL,
 387              		.loc 1 642 7 is_stmt 1 view .LVU121
 388 0154 E36C     		ldr	r3, [r4, #76]
 389              	.LVL22:
 642:Drivers/STM32L1xx_HAL_Driver/Src/stm32l1xx_hal_adc.c ****                         HAL_ADC_STATE_BUSY_INTERNAL,
 390              		.loc 1 642 7 is_stmt 0 view .LVU122
 391 0156 23F01203 		bic	r3, r3, #18
 392 015a 43F01003 		orr	r3, r3, #16
 393 015e E364     		str	r3, [r4, #76]
 647:Drivers/STM32L1xx_HAL_Driver/Src/stm32l1xx_hal_adc.c ****       
 394              		.loc 1 647 7 is_stmt 1 view .LVU123
 395 0160 236D     		ldr	r3, [r4, #80]
 396 0162 43F00103 		orr	r3, r3, #1
 397 0166 2365     		str	r3, [r4, #80]
 649:Drivers/STM32L1xx_HAL_Driver/Src/stm32l1xx_hal_adc.c ****     }
 398              		.loc 1 649 7 view .LVU124
 399              	.LVL23:
 649:Drivers/STM32L1xx_HAL_Driver/Src/stm32l1xx_hal_adc.c ****     }
ARM GAS  C:\Users\cedri\AppData\Local\Temp\cc9WRHZF.s 			page 42


 400              		.loc 1 649 22 is_stmt 0 view .LVU125
 401 0168 0120     		movs	r0, #1
 402 016a 0BE0     		b	.L3
 403              	.LVL24:
 404              	.L24:
 632:Drivers/STM32L1xx_HAL_Driver/Src/stm32l1xx_hal_adc.c ****       
 405              		.loc 1 632 7 is_stmt 1 view .LVU126
 406 016c 0020     		movs	r0, #0
 407 016e 2065     		str	r0, [r4, #80]
 635:Drivers/STM32L1xx_HAL_Driver/Src/stm32l1xx_hal_adc.c ****                         HAL_ADC_STATE_BUSY_INTERNAL,
 408              		.loc 1 635 7 view .LVU127
 409 0170 E36C     		ldr	r3, [r4, #76]
 410              	.LVL25:
 635:Drivers/STM32L1xx_HAL_Driver/Src/stm32l1xx_hal_adc.c ****                         HAL_ADC_STATE_BUSY_INTERNAL,
 411              		.loc 1 635 7 is_stmt 0 view .LVU128
 412 0172 23F00303 		bic	r3, r3, #3
 413 0176 43F00103 		orr	r3, r3, #1
 414 017a E364     		str	r3, [r4, #76]
 415 017c 02E0     		b	.L3
 416              	.LVL26:
 417              	.L14:
 418              	.LCFI2:
 419              		.cfi_def_cfa_offset 0
 420              		.cfi_restore 4
 421              		.cfi_restore 5
 422              		.cfi_restore 6
 423              		.cfi_restore 14
 431:Drivers/STM32L1xx_HAL_Driver/Src/stm32l1xx_hal_adc.c ****   }
 424              		.loc 1 431 12 view .LVU129
 425 017e 0120     		movs	r0, #1
 426              	.LVL27:
 660:Drivers/STM32L1xx_HAL_Driver/Src/stm32l1xx_hal_adc.c **** 
 427              		.loc 1 660 1 view .LVU130
 428 0180 7047     		bx	lr
 429              	.LVL28:
 430              	.L15:
 431              	.LCFI3:
 432              		.cfi_def_cfa_offset 24
 433              		.cfi_offset 4, -16
 434              		.cfi_offset 5, -12
 435              		.cfi_offset 6, -8
 436              		.cfi_offset 14, -4
 655:Drivers/STM32L1xx_HAL_Driver/Src/stm32l1xx_hal_adc.c ****   }
 437              		.loc 1 655 20 view .LVU131
 438 0182 0120     		movs	r0, #1
 439              	.LVL29:
 440              	.L3:
 660:Drivers/STM32L1xx_HAL_Driver/Src/stm32l1xx_hal_adc.c **** 
 441              		.loc 1 660 1 view .LVU132
 442 0184 02B0     		add	sp, sp, #8
 443              	.LCFI4:
 444              		.cfi_def_cfa_offset 16
 445              		@ sp needed
 446 0186 70BD     		pop	{r4, r5, r6, pc}
 447              	.LVL30:
 448              	.L26:
 660:Drivers/STM32L1xx_HAL_Driver/Src/stm32l1xx_hal_adc.c **** 
ARM GAS  C:\Users\cedri\AppData\Local\Temp\cc9WRHZF.s 			page 43


 449              		.loc 1 660 1 view .LVU133
 450              		.align	2
 451              	.L25:
 452 0188 00270140 		.word	1073817344
 453 018c FF16FCFC 		.word	-50587905
 454 0190 89F1FFC0 		.word	-1056968311
 455 0194 00380240 		.word	1073887232
 456 0198 FEFF80BF 		.word	-1082064898
 457              		.cfi_endproc
 458              	.LFE72:
 460              		.section	.text.HAL_ADC_MspDeInit,"ax",%progbits
 461              		.align	1
 462              		.weak	HAL_ADC_MspDeInit
 463              		.syntax unified
 464              		.thumb
 465              		.thumb_func
 467              	HAL_ADC_MspDeInit:
 468              	.LVL31:
 469              	.LFB75:
 829:Drivers/STM32L1xx_HAL_Driver/Src/stm32l1xx_hal_adc.c **** 
 830:Drivers/STM32L1xx_HAL_Driver/Src/stm32l1xx_hal_adc.c **** /**
 831:Drivers/STM32L1xx_HAL_Driver/Src/stm32l1xx_hal_adc.c ****   * @brief  DeInitializes the ADC MSP.
 832:Drivers/STM32L1xx_HAL_Driver/Src/stm32l1xx_hal_adc.c ****   * @param  hadc ADC handle
 833:Drivers/STM32L1xx_HAL_Driver/Src/stm32l1xx_hal_adc.c ****   * @retval None
 834:Drivers/STM32L1xx_HAL_Driver/Src/stm32l1xx_hal_adc.c ****   */
 835:Drivers/STM32L1xx_HAL_Driver/Src/stm32l1xx_hal_adc.c **** __weak void HAL_ADC_MspDeInit(ADC_HandleTypeDef* hadc)
 836:Drivers/STM32L1xx_HAL_Driver/Src/stm32l1xx_hal_adc.c **** {
 470              		.loc 1 836 1 is_stmt 1 view -0
 471              		.cfi_startproc
 472              		@ args = 0, pretend = 0, frame = 0
 473              		@ frame_needed = 0, uses_anonymous_args = 0
 474              		@ link register save eliminated.
 837:Drivers/STM32L1xx_HAL_Driver/Src/stm32l1xx_hal_adc.c ****   /* Prevent unused argument(s) compilation warning */
 838:Drivers/STM32L1xx_HAL_Driver/Src/stm32l1xx_hal_adc.c ****   UNUSED(hadc);
 475              		.loc 1 838 3 view .LVU135
 839:Drivers/STM32L1xx_HAL_Driver/Src/stm32l1xx_hal_adc.c **** 
 840:Drivers/STM32L1xx_HAL_Driver/Src/stm32l1xx_hal_adc.c ****   /* NOTE : This function should not be modified. When the callback is needed,
 841:Drivers/STM32L1xx_HAL_Driver/Src/stm32l1xx_hal_adc.c ****             function HAL_ADC_MspDeInit must be implemented in the user file.
 842:Drivers/STM32L1xx_HAL_Driver/Src/stm32l1xx_hal_adc.c ****    */ 
 843:Drivers/STM32L1xx_HAL_Driver/Src/stm32l1xx_hal_adc.c **** }
 476              		.loc 1 843 1 is_stmt 0 view .LVU136
 477 0000 7047     		bx	lr
 478              		.cfi_endproc
 479              	.LFE75:
 481              		.section	.text.HAL_ADC_PollForConversion,"ax",%progbits
 482              		.align	1
 483              		.global	HAL_ADC_PollForConversion
 484              		.syntax unified
 485              		.thumb
 486              		.thumb_func
 488              	HAL_ADC_PollForConversion:
 489              	.LVL32:
 490              	.LFB78:
 844:Drivers/STM32L1xx_HAL_Driver/Src/stm32l1xx_hal_adc.c **** 
 845:Drivers/STM32L1xx_HAL_Driver/Src/stm32l1xx_hal_adc.c **** #if (USE_HAL_ADC_REGISTER_CALLBACKS == 1)
 846:Drivers/STM32L1xx_HAL_Driver/Src/stm32l1xx_hal_adc.c **** /**
 847:Drivers/STM32L1xx_HAL_Driver/Src/stm32l1xx_hal_adc.c ****   * @brief  Register a User ADC Callback
ARM GAS  C:\Users\cedri\AppData\Local\Temp\cc9WRHZF.s 			page 44


 848:Drivers/STM32L1xx_HAL_Driver/Src/stm32l1xx_hal_adc.c ****   *         To be used instead of the weak predefined callback
 849:Drivers/STM32L1xx_HAL_Driver/Src/stm32l1xx_hal_adc.c ****   * @param  hadc Pointer to a ADC_HandleTypeDef structure that contains
 850:Drivers/STM32L1xx_HAL_Driver/Src/stm32l1xx_hal_adc.c ****   *                the configuration information for the specified ADC.
 851:Drivers/STM32L1xx_HAL_Driver/Src/stm32l1xx_hal_adc.c ****   * @param  CallbackID ID of the callback to be registered
 852:Drivers/STM32L1xx_HAL_Driver/Src/stm32l1xx_hal_adc.c ****   *         This parameter can be one of the following values:
 853:Drivers/STM32L1xx_HAL_Driver/Src/stm32l1xx_hal_adc.c ****   *          @arg @ref HAL_ADC_CONVERSION_COMPLETE_CB_ID      ADC conversion complete callback ID
 854:Drivers/STM32L1xx_HAL_Driver/Src/stm32l1xx_hal_adc.c ****   *          @arg @ref HAL_ADC_CONVERSION_HALF_CB_ID          ADC conversion complete callback ID
 855:Drivers/STM32L1xx_HAL_Driver/Src/stm32l1xx_hal_adc.c ****   *          @arg @ref HAL_ADC_LEVEL_OUT_OF_WINDOW_1_CB_ID    ADC analog watchdog 1 callback ID
 856:Drivers/STM32L1xx_HAL_Driver/Src/stm32l1xx_hal_adc.c ****   *          @arg @ref HAL_ADC_ERROR_CB_ID                    ADC error callback ID
 857:Drivers/STM32L1xx_HAL_Driver/Src/stm32l1xx_hal_adc.c ****   *          @arg @ref HAL_ADC_INJ_CONVERSION_COMPLETE_CB_ID  ADC group injected conversion complet
 858:Drivers/STM32L1xx_HAL_Driver/Src/stm32l1xx_hal_adc.c ****   *          @arg @ref HAL_ADC_MSPINIT_CB_ID                  ADC Msp Init callback ID
 859:Drivers/STM32L1xx_HAL_Driver/Src/stm32l1xx_hal_adc.c ****   *          @arg @ref HAL_ADC_MSPDEINIT_CB_ID                ADC Msp DeInit callback ID
 860:Drivers/STM32L1xx_HAL_Driver/Src/stm32l1xx_hal_adc.c ****   *          @arg @ref HAL_ADC_MSPINIT_CB_ID MspInit callback ID
 861:Drivers/STM32L1xx_HAL_Driver/Src/stm32l1xx_hal_adc.c ****   *          @arg @ref HAL_ADC_MSPDEINIT_CB_ID MspDeInit callback ID
 862:Drivers/STM32L1xx_HAL_Driver/Src/stm32l1xx_hal_adc.c ****   * @param  pCallback pointer to the Callback function
 863:Drivers/STM32L1xx_HAL_Driver/Src/stm32l1xx_hal_adc.c ****   * @retval HAL status
 864:Drivers/STM32L1xx_HAL_Driver/Src/stm32l1xx_hal_adc.c ****   */
 865:Drivers/STM32L1xx_HAL_Driver/Src/stm32l1xx_hal_adc.c **** HAL_StatusTypeDef HAL_ADC_RegisterCallback(ADC_HandleTypeDef *hadc, HAL_ADC_CallbackIDTypeDef Callb
 866:Drivers/STM32L1xx_HAL_Driver/Src/stm32l1xx_hal_adc.c **** {
 867:Drivers/STM32L1xx_HAL_Driver/Src/stm32l1xx_hal_adc.c ****   HAL_StatusTypeDef status = HAL_OK;
 868:Drivers/STM32L1xx_HAL_Driver/Src/stm32l1xx_hal_adc.c ****   
 869:Drivers/STM32L1xx_HAL_Driver/Src/stm32l1xx_hal_adc.c ****   if (pCallback == NULL)
 870:Drivers/STM32L1xx_HAL_Driver/Src/stm32l1xx_hal_adc.c ****   {
 871:Drivers/STM32L1xx_HAL_Driver/Src/stm32l1xx_hal_adc.c ****     /* Update the error code */
 872:Drivers/STM32L1xx_HAL_Driver/Src/stm32l1xx_hal_adc.c ****     hadc->ErrorCode |= HAL_ADC_ERROR_INVALID_CALLBACK;
 873:Drivers/STM32L1xx_HAL_Driver/Src/stm32l1xx_hal_adc.c **** 
 874:Drivers/STM32L1xx_HAL_Driver/Src/stm32l1xx_hal_adc.c ****     return HAL_ERROR;
 875:Drivers/STM32L1xx_HAL_Driver/Src/stm32l1xx_hal_adc.c ****   }
 876:Drivers/STM32L1xx_HAL_Driver/Src/stm32l1xx_hal_adc.c ****   
 877:Drivers/STM32L1xx_HAL_Driver/Src/stm32l1xx_hal_adc.c ****   if ((hadc->State & HAL_ADC_STATE_READY) != 0)
 878:Drivers/STM32L1xx_HAL_Driver/Src/stm32l1xx_hal_adc.c ****   {
 879:Drivers/STM32L1xx_HAL_Driver/Src/stm32l1xx_hal_adc.c ****     switch (CallbackID)
 880:Drivers/STM32L1xx_HAL_Driver/Src/stm32l1xx_hal_adc.c ****     {
 881:Drivers/STM32L1xx_HAL_Driver/Src/stm32l1xx_hal_adc.c ****       case HAL_ADC_CONVERSION_COMPLETE_CB_ID :
 882:Drivers/STM32L1xx_HAL_Driver/Src/stm32l1xx_hal_adc.c ****         hadc->ConvCpltCallback = pCallback;
 883:Drivers/STM32L1xx_HAL_Driver/Src/stm32l1xx_hal_adc.c ****         break;
 884:Drivers/STM32L1xx_HAL_Driver/Src/stm32l1xx_hal_adc.c ****       
 885:Drivers/STM32L1xx_HAL_Driver/Src/stm32l1xx_hal_adc.c ****       case HAL_ADC_CONVERSION_HALF_CB_ID :
 886:Drivers/STM32L1xx_HAL_Driver/Src/stm32l1xx_hal_adc.c ****         hadc->ConvHalfCpltCallback = pCallback;
 887:Drivers/STM32L1xx_HAL_Driver/Src/stm32l1xx_hal_adc.c ****         break;
 888:Drivers/STM32L1xx_HAL_Driver/Src/stm32l1xx_hal_adc.c ****       
 889:Drivers/STM32L1xx_HAL_Driver/Src/stm32l1xx_hal_adc.c ****       case HAL_ADC_LEVEL_OUT_OF_WINDOW_1_CB_ID :
 890:Drivers/STM32L1xx_HAL_Driver/Src/stm32l1xx_hal_adc.c ****         hadc->LevelOutOfWindowCallback = pCallback;
 891:Drivers/STM32L1xx_HAL_Driver/Src/stm32l1xx_hal_adc.c ****         break;
 892:Drivers/STM32L1xx_HAL_Driver/Src/stm32l1xx_hal_adc.c ****       
 893:Drivers/STM32L1xx_HAL_Driver/Src/stm32l1xx_hal_adc.c ****       case HAL_ADC_ERROR_CB_ID :
 894:Drivers/STM32L1xx_HAL_Driver/Src/stm32l1xx_hal_adc.c ****         hadc->ErrorCallback = pCallback;
 895:Drivers/STM32L1xx_HAL_Driver/Src/stm32l1xx_hal_adc.c ****         break;
 896:Drivers/STM32L1xx_HAL_Driver/Src/stm32l1xx_hal_adc.c ****       
 897:Drivers/STM32L1xx_HAL_Driver/Src/stm32l1xx_hal_adc.c ****       case HAL_ADC_INJ_CONVERSION_COMPLETE_CB_ID :
 898:Drivers/STM32L1xx_HAL_Driver/Src/stm32l1xx_hal_adc.c ****         hadc->InjectedConvCpltCallback = pCallback;
 899:Drivers/STM32L1xx_HAL_Driver/Src/stm32l1xx_hal_adc.c ****         break;
 900:Drivers/STM32L1xx_HAL_Driver/Src/stm32l1xx_hal_adc.c ****       
 901:Drivers/STM32L1xx_HAL_Driver/Src/stm32l1xx_hal_adc.c ****       case HAL_ADC_MSPINIT_CB_ID :
 902:Drivers/STM32L1xx_HAL_Driver/Src/stm32l1xx_hal_adc.c ****         hadc->MspInitCallback = pCallback;
 903:Drivers/STM32L1xx_HAL_Driver/Src/stm32l1xx_hal_adc.c ****         break;
 904:Drivers/STM32L1xx_HAL_Driver/Src/stm32l1xx_hal_adc.c ****       
ARM GAS  C:\Users\cedri\AppData\Local\Temp\cc9WRHZF.s 			page 45


 905:Drivers/STM32L1xx_HAL_Driver/Src/stm32l1xx_hal_adc.c ****       case HAL_ADC_MSPDEINIT_CB_ID :
 906:Drivers/STM32L1xx_HAL_Driver/Src/stm32l1xx_hal_adc.c ****         hadc->MspDeInitCallback = pCallback;
 907:Drivers/STM32L1xx_HAL_Driver/Src/stm32l1xx_hal_adc.c ****         break;
 908:Drivers/STM32L1xx_HAL_Driver/Src/stm32l1xx_hal_adc.c ****       
 909:Drivers/STM32L1xx_HAL_Driver/Src/stm32l1xx_hal_adc.c ****       default :
 910:Drivers/STM32L1xx_HAL_Driver/Src/stm32l1xx_hal_adc.c ****         /* Update the error code */
 911:Drivers/STM32L1xx_HAL_Driver/Src/stm32l1xx_hal_adc.c ****         hadc->ErrorCode |= HAL_ADC_ERROR_INVALID_CALLBACK;
 912:Drivers/STM32L1xx_HAL_Driver/Src/stm32l1xx_hal_adc.c **** 
 913:Drivers/STM32L1xx_HAL_Driver/Src/stm32l1xx_hal_adc.c ****         /* Return error status */
 914:Drivers/STM32L1xx_HAL_Driver/Src/stm32l1xx_hal_adc.c ****         status = HAL_ERROR;
 915:Drivers/STM32L1xx_HAL_Driver/Src/stm32l1xx_hal_adc.c ****         break;
 916:Drivers/STM32L1xx_HAL_Driver/Src/stm32l1xx_hal_adc.c ****     }
 917:Drivers/STM32L1xx_HAL_Driver/Src/stm32l1xx_hal_adc.c ****   }
 918:Drivers/STM32L1xx_HAL_Driver/Src/stm32l1xx_hal_adc.c ****   else if (HAL_ADC_STATE_RESET == hadc->State)
 919:Drivers/STM32L1xx_HAL_Driver/Src/stm32l1xx_hal_adc.c ****   {
 920:Drivers/STM32L1xx_HAL_Driver/Src/stm32l1xx_hal_adc.c ****     switch (CallbackID)
 921:Drivers/STM32L1xx_HAL_Driver/Src/stm32l1xx_hal_adc.c ****     {
 922:Drivers/STM32L1xx_HAL_Driver/Src/stm32l1xx_hal_adc.c ****       case HAL_ADC_MSPINIT_CB_ID :
 923:Drivers/STM32L1xx_HAL_Driver/Src/stm32l1xx_hal_adc.c ****         hadc->MspInitCallback = pCallback;
 924:Drivers/STM32L1xx_HAL_Driver/Src/stm32l1xx_hal_adc.c ****         break;
 925:Drivers/STM32L1xx_HAL_Driver/Src/stm32l1xx_hal_adc.c ****       
 926:Drivers/STM32L1xx_HAL_Driver/Src/stm32l1xx_hal_adc.c ****       case HAL_ADC_MSPDEINIT_CB_ID :
 927:Drivers/STM32L1xx_HAL_Driver/Src/stm32l1xx_hal_adc.c ****         hadc->MspDeInitCallback = pCallback;
 928:Drivers/STM32L1xx_HAL_Driver/Src/stm32l1xx_hal_adc.c ****         break;
 929:Drivers/STM32L1xx_HAL_Driver/Src/stm32l1xx_hal_adc.c ****       
 930:Drivers/STM32L1xx_HAL_Driver/Src/stm32l1xx_hal_adc.c ****       default :
 931:Drivers/STM32L1xx_HAL_Driver/Src/stm32l1xx_hal_adc.c ****         /* Update the error code */
 932:Drivers/STM32L1xx_HAL_Driver/Src/stm32l1xx_hal_adc.c ****         hadc->ErrorCode |= HAL_ADC_ERROR_INVALID_CALLBACK;
 933:Drivers/STM32L1xx_HAL_Driver/Src/stm32l1xx_hal_adc.c ****       
 934:Drivers/STM32L1xx_HAL_Driver/Src/stm32l1xx_hal_adc.c ****         /* Return error status */
 935:Drivers/STM32L1xx_HAL_Driver/Src/stm32l1xx_hal_adc.c ****         status = HAL_ERROR;
 936:Drivers/STM32L1xx_HAL_Driver/Src/stm32l1xx_hal_adc.c ****         break;
 937:Drivers/STM32L1xx_HAL_Driver/Src/stm32l1xx_hal_adc.c ****     }
 938:Drivers/STM32L1xx_HAL_Driver/Src/stm32l1xx_hal_adc.c ****   }
 939:Drivers/STM32L1xx_HAL_Driver/Src/stm32l1xx_hal_adc.c ****   else
 940:Drivers/STM32L1xx_HAL_Driver/Src/stm32l1xx_hal_adc.c ****   {
 941:Drivers/STM32L1xx_HAL_Driver/Src/stm32l1xx_hal_adc.c ****     /* Update the error code */
 942:Drivers/STM32L1xx_HAL_Driver/Src/stm32l1xx_hal_adc.c ****     hadc->ErrorCode |= HAL_ADC_ERROR_INVALID_CALLBACK;
 943:Drivers/STM32L1xx_HAL_Driver/Src/stm32l1xx_hal_adc.c ****     
 944:Drivers/STM32L1xx_HAL_Driver/Src/stm32l1xx_hal_adc.c ****     /* Return error status */
 945:Drivers/STM32L1xx_HAL_Driver/Src/stm32l1xx_hal_adc.c ****     status =  HAL_ERROR;
 946:Drivers/STM32L1xx_HAL_Driver/Src/stm32l1xx_hal_adc.c ****   }
 947:Drivers/STM32L1xx_HAL_Driver/Src/stm32l1xx_hal_adc.c ****   
 948:Drivers/STM32L1xx_HAL_Driver/Src/stm32l1xx_hal_adc.c ****   return status;
 949:Drivers/STM32L1xx_HAL_Driver/Src/stm32l1xx_hal_adc.c **** }
 950:Drivers/STM32L1xx_HAL_Driver/Src/stm32l1xx_hal_adc.c **** 
 951:Drivers/STM32L1xx_HAL_Driver/Src/stm32l1xx_hal_adc.c **** /**
 952:Drivers/STM32L1xx_HAL_Driver/Src/stm32l1xx_hal_adc.c ****   * @brief  Unregister a ADC Callback
 953:Drivers/STM32L1xx_HAL_Driver/Src/stm32l1xx_hal_adc.c ****   *         ADC callback is redirected to the weak predefined callback
 954:Drivers/STM32L1xx_HAL_Driver/Src/stm32l1xx_hal_adc.c ****   * @param  hadc Pointer to a ADC_HandleTypeDef structure that contains
 955:Drivers/STM32L1xx_HAL_Driver/Src/stm32l1xx_hal_adc.c ****   *                the configuration information for the specified ADC.
 956:Drivers/STM32L1xx_HAL_Driver/Src/stm32l1xx_hal_adc.c ****   * @param  CallbackID ID of the callback to be unregistered
 957:Drivers/STM32L1xx_HAL_Driver/Src/stm32l1xx_hal_adc.c ****   *         This parameter can be one of the following values:
 958:Drivers/STM32L1xx_HAL_Driver/Src/stm32l1xx_hal_adc.c ****   *          @arg @ref HAL_ADC_CONVERSION_COMPLETE_CB_ID      ADC conversion complete callback ID
 959:Drivers/STM32L1xx_HAL_Driver/Src/stm32l1xx_hal_adc.c ****   *          @arg @ref HAL_ADC_CONVERSION_HALF_CB_ID          ADC conversion complete callback ID
 960:Drivers/STM32L1xx_HAL_Driver/Src/stm32l1xx_hal_adc.c ****   *          @arg @ref HAL_ADC_LEVEL_OUT_OF_WINDOW_1_CB_ID    ADC analog watchdog 1 callback ID
 961:Drivers/STM32L1xx_HAL_Driver/Src/stm32l1xx_hal_adc.c ****   *          @arg @ref HAL_ADC_ERROR_CB_ID                    ADC error callback ID
ARM GAS  C:\Users\cedri\AppData\Local\Temp\cc9WRHZF.s 			page 46


 962:Drivers/STM32L1xx_HAL_Driver/Src/stm32l1xx_hal_adc.c ****   *          @arg @ref HAL_ADC_INJ_CONVERSION_COMPLETE_CB_ID  ADC group injected conversion complet
 963:Drivers/STM32L1xx_HAL_Driver/Src/stm32l1xx_hal_adc.c ****   *          @arg @ref HAL_ADC_MSPINIT_CB_ID                  ADC Msp Init callback ID
 964:Drivers/STM32L1xx_HAL_Driver/Src/stm32l1xx_hal_adc.c ****   *          @arg @ref HAL_ADC_MSPDEINIT_CB_ID                ADC Msp DeInit callback ID
 965:Drivers/STM32L1xx_HAL_Driver/Src/stm32l1xx_hal_adc.c ****   *          @arg @ref HAL_ADC_MSPINIT_CB_ID MspInit callback ID
 966:Drivers/STM32L1xx_HAL_Driver/Src/stm32l1xx_hal_adc.c ****   *          @arg @ref HAL_ADC_MSPDEINIT_CB_ID MspDeInit callback ID
 967:Drivers/STM32L1xx_HAL_Driver/Src/stm32l1xx_hal_adc.c ****   * @retval HAL status
 968:Drivers/STM32L1xx_HAL_Driver/Src/stm32l1xx_hal_adc.c ****   */
 969:Drivers/STM32L1xx_HAL_Driver/Src/stm32l1xx_hal_adc.c **** HAL_StatusTypeDef HAL_ADC_UnRegisterCallback(ADC_HandleTypeDef *hadc, HAL_ADC_CallbackIDTypeDef Cal
 970:Drivers/STM32L1xx_HAL_Driver/Src/stm32l1xx_hal_adc.c **** {
 971:Drivers/STM32L1xx_HAL_Driver/Src/stm32l1xx_hal_adc.c ****   HAL_StatusTypeDef status = HAL_OK;
 972:Drivers/STM32L1xx_HAL_Driver/Src/stm32l1xx_hal_adc.c ****   
 973:Drivers/STM32L1xx_HAL_Driver/Src/stm32l1xx_hal_adc.c ****   if ((hadc->State & HAL_ADC_STATE_READY) != 0)
 974:Drivers/STM32L1xx_HAL_Driver/Src/stm32l1xx_hal_adc.c ****   {
 975:Drivers/STM32L1xx_HAL_Driver/Src/stm32l1xx_hal_adc.c ****     switch (CallbackID)
 976:Drivers/STM32L1xx_HAL_Driver/Src/stm32l1xx_hal_adc.c ****     {
 977:Drivers/STM32L1xx_HAL_Driver/Src/stm32l1xx_hal_adc.c ****       case HAL_ADC_CONVERSION_COMPLETE_CB_ID :
 978:Drivers/STM32L1xx_HAL_Driver/Src/stm32l1xx_hal_adc.c ****         hadc->ConvCpltCallback = HAL_ADC_ConvCpltCallback;
 979:Drivers/STM32L1xx_HAL_Driver/Src/stm32l1xx_hal_adc.c ****         break;
 980:Drivers/STM32L1xx_HAL_Driver/Src/stm32l1xx_hal_adc.c ****       
 981:Drivers/STM32L1xx_HAL_Driver/Src/stm32l1xx_hal_adc.c ****       case HAL_ADC_CONVERSION_HALF_CB_ID :
 982:Drivers/STM32L1xx_HAL_Driver/Src/stm32l1xx_hal_adc.c ****         hadc->ConvHalfCpltCallback = HAL_ADC_ConvHalfCpltCallback;
 983:Drivers/STM32L1xx_HAL_Driver/Src/stm32l1xx_hal_adc.c ****         break;
 984:Drivers/STM32L1xx_HAL_Driver/Src/stm32l1xx_hal_adc.c ****       
 985:Drivers/STM32L1xx_HAL_Driver/Src/stm32l1xx_hal_adc.c ****       case HAL_ADC_LEVEL_OUT_OF_WINDOW_1_CB_ID :
 986:Drivers/STM32L1xx_HAL_Driver/Src/stm32l1xx_hal_adc.c ****         hadc->LevelOutOfWindowCallback = HAL_ADC_LevelOutOfWindowCallback;
 987:Drivers/STM32L1xx_HAL_Driver/Src/stm32l1xx_hal_adc.c ****         break;
 988:Drivers/STM32L1xx_HAL_Driver/Src/stm32l1xx_hal_adc.c ****       
 989:Drivers/STM32L1xx_HAL_Driver/Src/stm32l1xx_hal_adc.c ****       case HAL_ADC_ERROR_CB_ID :
 990:Drivers/STM32L1xx_HAL_Driver/Src/stm32l1xx_hal_adc.c ****         hadc->ErrorCallback = HAL_ADC_ErrorCallback;
 991:Drivers/STM32L1xx_HAL_Driver/Src/stm32l1xx_hal_adc.c ****         break;
 992:Drivers/STM32L1xx_HAL_Driver/Src/stm32l1xx_hal_adc.c ****       
 993:Drivers/STM32L1xx_HAL_Driver/Src/stm32l1xx_hal_adc.c ****       case HAL_ADC_INJ_CONVERSION_COMPLETE_CB_ID :
 994:Drivers/STM32L1xx_HAL_Driver/Src/stm32l1xx_hal_adc.c ****         hadc->InjectedConvCpltCallback = HAL_ADCEx_InjectedConvCpltCallback;
 995:Drivers/STM32L1xx_HAL_Driver/Src/stm32l1xx_hal_adc.c ****         break;
 996:Drivers/STM32L1xx_HAL_Driver/Src/stm32l1xx_hal_adc.c ****       
 997:Drivers/STM32L1xx_HAL_Driver/Src/stm32l1xx_hal_adc.c ****       case HAL_ADC_MSPINIT_CB_ID :
 998:Drivers/STM32L1xx_HAL_Driver/Src/stm32l1xx_hal_adc.c ****         hadc->MspInitCallback = HAL_ADC_MspInit; /* Legacy weak MspInit              */
 999:Drivers/STM32L1xx_HAL_Driver/Src/stm32l1xx_hal_adc.c ****         break;
1000:Drivers/STM32L1xx_HAL_Driver/Src/stm32l1xx_hal_adc.c ****       
1001:Drivers/STM32L1xx_HAL_Driver/Src/stm32l1xx_hal_adc.c ****       case HAL_ADC_MSPDEINIT_CB_ID :
1002:Drivers/STM32L1xx_HAL_Driver/Src/stm32l1xx_hal_adc.c ****         hadc->MspDeInitCallback = HAL_ADC_MspDeInit; /* Legacy weak MspDeInit            */
1003:Drivers/STM32L1xx_HAL_Driver/Src/stm32l1xx_hal_adc.c ****         break;
1004:Drivers/STM32L1xx_HAL_Driver/Src/stm32l1xx_hal_adc.c ****       
1005:Drivers/STM32L1xx_HAL_Driver/Src/stm32l1xx_hal_adc.c ****       default :
1006:Drivers/STM32L1xx_HAL_Driver/Src/stm32l1xx_hal_adc.c ****         /* Update the error code */
1007:Drivers/STM32L1xx_HAL_Driver/Src/stm32l1xx_hal_adc.c ****         hadc->ErrorCode |= HAL_ADC_ERROR_INVALID_CALLBACK;
1008:Drivers/STM32L1xx_HAL_Driver/Src/stm32l1xx_hal_adc.c ****         
1009:Drivers/STM32L1xx_HAL_Driver/Src/stm32l1xx_hal_adc.c ****         /* Return error status */
1010:Drivers/STM32L1xx_HAL_Driver/Src/stm32l1xx_hal_adc.c ****         status =  HAL_ERROR;
1011:Drivers/STM32L1xx_HAL_Driver/Src/stm32l1xx_hal_adc.c ****         break;
1012:Drivers/STM32L1xx_HAL_Driver/Src/stm32l1xx_hal_adc.c ****     }
1013:Drivers/STM32L1xx_HAL_Driver/Src/stm32l1xx_hal_adc.c ****   }
1014:Drivers/STM32L1xx_HAL_Driver/Src/stm32l1xx_hal_adc.c ****   else if (HAL_ADC_STATE_RESET == hadc->State)
1015:Drivers/STM32L1xx_HAL_Driver/Src/stm32l1xx_hal_adc.c ****   {
1016:Drivers/STM32L1xx_HAL_Driver/Src/stm32l1xx_hal_adc.c ****     switch (CallbackID)
1017:Drivers/STM32L1xx_HAL_Driver/Src/stm32l1xx_hal_adc.c ****     {
1018:Drivers/STM32L1xx_HAL_Driver/Src/stm32l1xx_hal_adc.c ****       case HAL_ADC_MSPINIT_CB_ID :
ARM GAS  C:\Users\cedri\AppData\Local\Temp\cc9WRHZF.s 			page 47


1019:Drivers/STM32L1xx_HAL_Driver/Src/stm32l1xx_hal_adc.c ****         hadc->MspInitCallback = HAL_ADC_MspInit;                   /* Legacy weak MspInit          
1020:Drivers/STM32L1xx_HAL_Driver/Src/stm32l1xx_hal_adc.c ****         break;
1021:Drivers/STM32L1xx_HAL_Driver/Src/stm32l1xx_hal_adc.c ****         
1022:Drivers/STM32L1xx_HAL_Driver/Src/stm32l1xx_hal_adc.c ****       case HAL_ADC_MSPDEINIT_CB_ID :
1023:Drivers/STM32L1xx_HAL_Driver/Src/stm32l1xx_hal_adc.c ****         hadc->MspDeInitCallback = HAL_ADC_MspDeInit;               /* Legacy weak MspDeInit        
1024:Drivers/STM32L1xx_HAL_Driver/Src/stm32l1xx_hal_adc.c ****         break;
1025:Drivers/STM32L1xx_HAL_Driver/Src/stm32l1xx_hal_adc.c ****         
1026:Drivers/STM32L1xx_HAL_Driver/Src/stm32l1xx_hal_adc.c ****       default :
1027:Drivers/STM32L1xx_HAL_Driver/Src/stm32l1xx_hal_adc.c ****         /* Update the error code */
1028:Drivers/STM32L1xx_HAL_Driver/Src/stm32l1xx_hal_adc.c ****         hadc->ErrorCode |= HAL_ADC_ERROR_INVALID_CALLBACK;
1029:Drivers/STM32L1xx_HAL_Driver/Src/stm32l1xx_hal_adc.c ****         
1030:Drivers/STM32L1xx_HAL_Driver/Src/stm32l1xx_hal_adc.c ****         /* Return error status */
1031:Drivers/STM32L1xx_HAL_Driver/Src/stm32l1xx_hal_adc.c ****         status =  HAL_ERROR;
1032:Drivers/STM32L1xx_HAL_Driver/Src/stm32l1xx_hal_adc.c ****         break;
1033:Drivers/STM32L1xx_HAL_Driver/Src/stm32l1xx_hal_adc.c ****     }
1034:Drivers/STM32L1xx_HAL_Driver/Src/stm32l1xx_hal_adc.c ****   }
1035:Drivers/STM32L1xx_HAL_Driver/Src/stm32l1xx_hal_adc.c ****   else
1036:Drivers/STM32L1xx_HAL_Driver/Src/stm32l1xx_hal_adc.c ****   {
1037:Drivers/STM32L1xx_HAL_Driver/Src/stm32l1xx_hal_adc.c ****     /* Update the error code */
1038:Drivers/STM32L1xx_HAL_Driver/Src/stm32l1xx_hal_adc.c ****     hadc->ErrorCode |= HAL_ADC_ERROR_INVALID_CALLBACK;
1039:Drivers/STM32L1xx_HAL_Driver/Src/stm32l1xx_hal_adc.c ****     
1040:Drivers/STM32L1xx_HAL_Driver/Src/stm32l1xx_hal_adc.c ****     /* Return error status */
1041:Drivers/STM32L1xx_HAL_Driver/Src/stm32l1xx_hal_adc.c ****     status =  HAL_ERROR;
1042:Drivers/STM32L1xx_HAL_Driver/Src/stm32l1xx_hal_adc.c ****   }
1043:Drivers/STM32L1xx_HAL_Driver/Src/stm32l1xx_hal_adc.c ****   
1044:Drivers/STM32L1xx_HAL_Driver/Src/stm32l1xx_hal_adc.c ****   return status;
1045:Drivers/STM32L1xx_HAL_Driver/Src/stm32l1xx_hal_adc.c **** }
1046:Drivers/STM32L1xx_HAL_Driver/Src/stm32l1xx_hal_adc.c **** 
1047:Drivers/STM32L1xx_HAL_Driver/Src/stm32l1xx_hal_adc.c **** #endif /* USE_HAL_ADC_REGISTER_CALLBACKS */
1048:Drivers/STM32L1xx_HAL_Driver/Src/stm32l1xx_hal_adc.c **** 
1049:Drivers/STM32L1xx_HAL_Driver/Src/stm32l1xx_hal_adc.c **** /**
1050:Drivers/STM32L1xx_HAL_Driver/Src/stm32l1xx_hal_adc.c ****   * @}
1051:Drivers/STM32L1xx_HAL_Driver/Src/stm32l1xx_hal_adc.c ****   */
1052:Drivers/STM32L1xx_HAL_Driver/Src/stm32l1xx_hal_adc.c **** 
1053:Drivers/STM32L1xx_HAL_Driver/Src/stm32l1xx_hal_adc.c **** /** @defgroup ADC_Exported_Functions_Group2 ADC Input and Output operation functions
1054:Drivers/STM32L1xx_HAL_Driver/Src/stm32l1xx_hal_adc.c ****  *  @brief    ADC IO operation functions 
1055:Drivers/STM32L1xx_HAL_Driver/Src/stm32l1xx_hal_adc.c ****  *
1056:Drivers/STM32L1xx_HAL_Driver/Src/stm32l1xx_hal_adc.c **** @verbatim   
1057:Drivers/STM32L1xx_HAL_Driver/Src/stm32l1xx_hal_adc.c ****  ===============================================================================
1058:Drivers/STM32L1xx_HAL_Driver/Src/stm32l1xx_hal_adc.c ****                       ##### IO operation functions #####
1059:Drivers/STM32L1xx_HAL_Driver/Src/stm32l1xx_hal_adc.c ****  ===============================================================================
1060:Drivers/STM32L1xx_HAL_Driver/Src/stm32l1xx_hal_adc.c ****     [..]  This section provides functions allowing to:
1061:Drivers/STM32L1xx_HAL_Driver/Src/stm32l1xx_hal_adc.c ****       (+) Start conversion of regular group.
1062:Drivers/STM32L1xx_HAL_Driver/Src/stm32l1xx_hal_adc.c ****       (+) Stop conversion of regular group.
1063:Drivers/STM32L1xx_HAL_Driver/Src/stm32l1xx_hal_adc.c ****       (+) Poll for conversion complete on regular group.
1064:Drivers/STM32L1xx_HAL_Driver/Src/stm32l1xx_hal_adc.c ****       (+) Poll for conversion event.
1065:Drivers/STM32L1xx_HAL_Driver/Src/stm32l1xx_hal_adc.c ****       (+) Get result of regular channel conversion.
1066:Drivers/STM32L1xx_HAL_Driver/Src/stm32l1xx_hal_adc.c ****       (+) Start conversion of regular group and enable interruptions.
1067:Drivers/STM32L1xx_HAL_Driver/Src/stm32l1xx_hal_adc.c ****       (+) Stop conversion of regular group and disable interruptions.
1068:Drivers/STM32L1xx_HAL_Driver/Src/stm32l1xx_hal_adc.c ****       (+) Handle ADC interrupt request
1069:Drivers/STM32L1xx_HAL_Driver/Src/stm32l1xx_hal_adc.c ****       (+) Start conversion of regular group and enable DMA transfer.
1070:Drivers/STM32L1xx_HAL_Driver/Src/stm32l1xx_hal_adc.c ****       (+) Stop conversion of regular group and disable ADC DMA transfer.
1071:Drivers/STM32L1xx_HAL_Driver/Src/stm32l1xx_hal_adc.c **** @endverbatim
1072:Drivers/STM32L1xx_HAL_Driver/Src/stm32l1xx_hal_adc.c ****   * @{
1073:Drivers/STM32L1xx_HAL_Driver/Src/stm32l1xx_hal_adc.c ****   */
1074:Drivers/STM32L1xx_HAL_Driver/Src/stm32l1xx_hal_adc.c **** 
1075:Drivers/STM32L1xx_HAL_Driver/Src/stm32l1xx_hal_adc.c **** /**
ARM GAS  C:\Users\cedri\AppData\Local\Temp\cc9WRHZF.s 			page 48


1076:Drivers/STM32L1xx_HAL_Driver/Src/stm32l1xx_hal_adc.c ****   * @brief  Enables ADC, starts conversion of regular group.
1077:Drivers/STM32L1xx_HAL_Driver/Src/stm32l1xx_hal_adc.c ****   *         Interruptions enabled in this function: None.
1078:Drivers/STM32L1xx_HAL_Driver/Src/stm32l1xx_hal_adc.c ****   * @param  hadc ADC handle
1079:Drivers/STM32L1xx_HAL_Driver/Src/stm32l1xx_hal_adc.c ****   * @retval HAL status
1080:Drivers/STM32L1xx_HAL_Driver/Src/stm32l1xx_hal_adc.c ****   */
1081:Drivers/STM32L1xx_HAL_Driver/Src/stm32l1xx_hal_adc.c **** HAL_StatusTypeDef HAL_ADC_Start(ADC_HandleTypeDef* hadc)
1082:Drivers/STM32L1xx_HAL_Driver/Src/stm32l1xx_hal_adc.c **** {
1083:Drivers/STM32L1xx_HAL_Driver/Src/stm32l1xx_hal_adc.c ****   HAL_StatusTypeDef tmp_hal_status = HAL_OK;
1084:Drivers/STM32L1xx_HAL_Driver/Src/stm32l1xx_hal_adc.c ****   
1085:Drivers/STM32L1xx_HAL_Driver/Src/stm32l1xx_hal_adc.c ****   /* Check the parameters */
1086:Drivers/STM32L1xx_HAL_Driver/Src/stm32l1xx_hal_adc.c ****   assert_param(IS_ADC_ALL_INSTANCE(hadc->Instance));
1087:Drivers/STM32L1xx_HAL_Driver/Src/stm32l1xx_hal_adc.c ****   
1088:Drivers/STM32L1xx_HAL_Driver/Src/stm32l1xx_hal_adc.c ****   /* Process locked */
1089:Drivers/STM32L1xx_HAL_Driver/Src/stm32l1xx_hal_adc.c ****   __HAL_LOCK(hadc);
1090:Drivers/STM32L1xx_HAL_Driver/Src/stm32l1xx_hal_adc.c ****   
1091:Drivers/STM32L1xx_HAL_Driver/Src/stm32l1xx_hal_adc.c ****   /* Enable the ADC peripheral */
1092:Drivers/STM32L1xx_HAL_Driver/Src/stm32l1xx_hal_adc.c ****   tmp_hal_status = ADC_Enable(hadc);
1093:Drivers/STM32L1xx_HAL_Driver/Src/stm32l1xx_hal_adc.c ****   
1094:Drivers/STM32L1xx_HAL_Driver/Src/stm32l1xx_hal_adc.c ****   /* Start conversion if ADC is effectively enabled */
1095:Drivers/STM32L1xx_HAL_Driver/Src/stm32l1xx_hal_adc.c ****   if (tmp_hal_status == HAL_OK)
1096:Drivers/STM32L1xx_HAL_Driver/Src/stm32l1xx_hal_adc.c ****   {
1097:Drivers/STM32L1xx_HAL_Driver/Src/stm32l1xx_hal_adc.c ****     /* Set ADC state                                                          */
1098:Drivers/STM32L1xx_HAL_Driver/Src/stm32l1xx_hal_adc.c ****     /* - Clear state bitfield related to regular group conversion results     */
1099:Drivers/STM32L1xx_HAL_Driver/Src/stm32l1xx_hal_adc.c ****     /* - Set state bitfield related to regular group operation                */
1100:Drivers/STM32L1xx_HAL_Driver/Src/stm32l1xx_hal_adc.c ****     ADC_STATE_CLR_SET(hadc->State,
1101:Drivers/STM32L1xx_HAL_Driver/Src/stm32l1xx_hal_adc.c ****                       HAL_ADC_STATE_READY | HAL_ADC_STATE_REG_EOC | HAL_ADC_STATE_REG_OVR,
1102:Drivers/STM32L1xx_HAL_Driver/Src/stm32l1xx_hal_adc.c ****                       HAL_ADC_STATE_REG_BUSY);
1103:Drivers/STM32L1xx_HAL_Driver/Src/stm32l1xx_hal_adc.c ****     
1104:Drivers/STM32L1xx_HAL_Driver/Src/stm32l1xx_hal_adc.c ****     /* If conversions on group regular are also triggering group injected,    */
1105:Drivers/STM32L1xx_HAL_Driver/Src/stm32l1xx_hal_adc.c ****     /* update ADC state.                                                      */
1106:Drivers/STM32L1xx_HAL_Driver/Src/stm32l1xx_hal_adc.c ****     if (READ_BIT(hadc->Instance->CR1, ADC_CR1_JAUTO) != RESET)
1107:Drivers/STM32L1xx_HAL_Driver/Src/stm32l1xx_hal_adc.c ****     {
1108:Drivers/STM32L1xx_HAL_Driver/Src/stm32l1xx_hal_adc.c ****       ADC_STATE_CLR_SET(hadc->State, HAL_ADC_STATE_INJ_EOC, HAL_ADC_STATE_INJ_BUSY);  
1109:Drivers/STM32L1xx_HAL_Driver/Src/stm32l1xx_hal_adc.c ****     }
1110:Drivers/STM32L1xx_HAL_Driver/Src/stm32l1xx_hal_adc.c ****     
1111:Drivers/STM32L1xx_HAL_Driver/Src/stm32l1xx_hal_adc.c ****     /* State machine update: Check if an injected conversion is ongoing */
1112:Drivers/STM32L1xx_HAL_Driver/Src/stm32l1xx_hal_adc.c ****     if (HAL_IS_BIT_SET(hadc->State, HAL_ADC_STATE_INJ_BUSY))
1113:Drivers/STM32L1xx_HAL_Driver/Src/stm32l1xx_hal_adc.c ****     {
1114:Drivers/STM32L1xx_HAL_Driver/Src/stm32l1xx_hal_adc.c ****       /* Reset ADC error code fields related to conversions on group regular */
1115:Drivers/STM32L1xx_HAL_Driver/Src/stm32l1xx_hal_adc.c ****       CLEAR_BIT(hadc->ErrorCode, (HAL_ADC_ERROR_OVR | HAL_ADC_ERROR_DMA));         
1116:Drivers/STM32L1xx_HAL_Driver/Src/stm32l1xx_hal_adc.c ****     }
1117:Drivers/STM32L1xx_HAL_Driver/Src/stm32l1xx_hal_adc.c ****     else
1118:Drivers/STM32L1xx_HAL_Driver/Src/stm32l1xx_hal_adc.c ****     {
1119:Drivers/STM32L1xx_HAL_Driver/Src/stm32l1xx_hal_adc.c ****       /* Reset ADC all error code fields */
1120:Drivers/STM32L1xx_HAL_Driver/Src/stm32l1xx_hal_adc.c ****       ADC_CLEAR_ERRORCODE(hadc);
1121:Drivers/STM32L1xx_HAL_Driver/Src/stm32l1xx_hal_adc.c ****     }
1122:Drivers/STM32L1xx_HAL_Driver/Src/stm32l1xx_hal_adc.c ****     
1123:Drivers/STM32L1xx_HAL_Driver/Src/stm32l1xx_hal_adc.c ****     /* Process unlocked */
1124:Drivers/STM32L1xx_HAL_Driver/Src/stm32l1xx_hal_adc.c ****     /* Unlock before starting ADC conversions: in case of potential           */
1125:Drivers/STM32L1xx_HAL_Driver/Src/stm32l1xx_hal_adc.c ****     /* interruption, to let the process to ADC IRQ Handler.                   */
1126:Drivers/STM32L1xx_HAL_Driver/Src/stm32l1xx_hal_adc.c ****     __HAL_UNLOCK(hadc);
1127:Drivers/STM32L1xx_HAL_Driver/Src/stm32l1xx_hal_adc.c ****     
1128:Drivers/STM32L1xx_HAL_Driver/Src/stm32l1xx_hal_adc.c ****     /* Clear regular group conversion flag and overrun flag */
1129:Drivers/STM32L1xx_HAL_Driver/Src/stm32l1xx_hal_adc.c ****     /* (To ensure of no unknown state from potential previous ADC operations) */
1130:Drivers/STM32L1xx_HAL_Driver/Src/stm32l1xx_hal_adc.c ****     __HAL_ADC_CLEAR_FLAG(hadc, ADC_FLAG_EOC | ADC_FLAG_OVR);
1131:Drivers/STM32L1xx_HAL_Driver/Src/stm32l1xx_hal_adc.c ****     
1132:Drivers/STM32L1xx_HAL_Driver/Src/stm32l1xx_hal_adc.c ****     /* Enable conversion of regular group.                                    */
ARM GAS  C:\Users\cedri\AppData\Local\Temp\cc9WRHZF.s 			page 49


1133:Drivers/STM32L1xx_HAL_Driver/Src/stm32l1xx_hal_adc.c ****     /* If software start has been selected, conversion starts immediately.    */
1134:Drivers/STM32L1xx_HAL_Driver/Src/stm32l1xx_hal_adc.c ****     /* If external trigger has been selected, conversion will start at next   */
1135:Drivers/STM32L1xx_HAL_Driver/Src/stm32l1xx_hal_adc.c ****     /* trigger event.                                                         */
1136:Drivers/STM32L1xx_HAL_Driver/Src/stm32l1xx_hal_adc.c ****     if (ADC_IS_SOFTWARE_START_REGULAR(hadc))
1137:Drivers/STM32L1xx_HAL_Driver/Src/stm32l1xx_hal_adc.c ****     {
1138:Drivers/STM32L1xx_HAL_Driver/Src/stm32l1xx_hal_adc.c ****       /* Start ADC conversion on regular group */
1139:Drivers/STM32L1xx_HAL_Driver/Src/stm32l1xx_hal_adc.c ****       SET_BIT(hadc->Instance->CR2, ADC_CR2_SWSTART);
1140:Drivers/STM32L1xx_HAL_Driver/Src/stm32l1xx_hal_adc.c ****     }
1141:Drivers/STM32L1xx_HAL_Driver/Src/stm32l1xx_hal_adc.c ****   }
1142:Drivers/STM32L1xx_HAL_Driver/Src/stm32l1xx_hal_adc.c ****   
1143:Drivers/STM32L1xx_HAL_Driver/Src/stm32l1xx_hal_adc.c ****   /* Return function status */
1144:Drivers/STM32L1xx_HAL_Driver/Src/stm32l1xx_hal_adc.c ****   return tmp_hal_status;
1145:Drivers/STM32L1xx_HAL_Driver/Src/stm32l1xx_hal_adc.c **** }
1146:Drivers/STM32L1xx_HAL_Driver/Src/stm32l1xx_hal_adc.c **** 
1147:Drivers/STM32L1xx_HAL_Driver/Src/stm32l1xx_hal_adc.c **** /**
1148:Drivers/STM32L1xx_HAL_Driver/Src/stm32l1xx_hal_adc.c ****   * @brief  Stop ADC conversion of regular group (and injected channels in 
1149:Drivers/STM32L1xx_HAL_Driver/Src/stm32l1xx_hal_adc.c ****   *         case of auto_injection mode), disable ADC peripheral.
1150:Drivers/STM32L1xx_HAL_Driver/Src/stm32l1xx_hal_adc.c ****   * @note:  ADC peripheral disable is forcing stop of potential 
1151:Drivers/STM32L1xx_HAL_Driver/Src/stm32l1xx_hal_adc.c ****   *         conversion on injected group. If injected group is under use, it
1152:Drivers/STM32L1xx_HAL_Driver/Src/stm32l1xx_hal_adc.c ****   *         should be preliminarily stopped using HAL_ADCEx_InjectedStop function.
1153:Drivers/STM32L1xx_HAL_Driver/Src/stm32l1xx_hal_adc.c ****   * @param  hadc ADC handle
1154:Drivers/STM32L1xx_HAL_Driver/Src/stm32l1xx_hal_adc.c ****   * @retval HAL status.
1155:Drivers/STM32L1xx_HAL_Driver/Src/stm32l1xx_hal_adc.c ****   */
1156:Drivers/STM32L1xx_HAL_Driver/Src/stm32l1xx_hal_adc.c **** HAL_StatusTypeDef HAL_ADC_Stop(ADC_HandleTypeDef* hadc)
1157:Drivers/STM32L1xx_HAL_Driver/Src/stm32l1xx_hal_adc.c **** {
1158:Drivers/STM32L1xx_HAL_Driver/Src/stm32l1xx_hal_adc.c ****   HAL_StatusTypeDef tmp_hal_status = HAL_OK;
1159:Drivers/STM32L1xx_HAL_Driver/Src/stm32l1xx_hal_adc.c ****   
1160:Drivers/STM32L1xx_HAL_Driver/Src/stm32l1xx_hal_adc.c ****   /* Check the parameters */
1161:Drivers/STM32L1xx_HAL_Driver/Src/stm32l1xx_hal_adc.c ****   assert_param(IS_ADC_ALL_INSTANCE(hadc->Instance));
1162:Drivers/STM32L1xx_HAL_Driver/Src/stm32l1xx_hal_adc.c ****   
1163:Drivers/STM32L1xx_HAL_Driver/Src/stm32l1xx_hal_adc.c ****   /* Process locked */
1164:Drivers/STM32L1xx_HAL_Driver/Src/stm32l1xx_hal_adc.c ****   __HAL_LOCK(hadc);
1165:Drivers/STM32L1xx_HAL_Driver/Src/stm32l1xx_hal_adc.c ****   
1166:Drivers/STM32L1xx_HAL_Driver/Src/stm32l1xx_hal_adc.c ****   /* Stop potential conversion on going, on regular and injected groups */
1167:Drivers/STM32L1xx_HAL_Driver/Src/stm32l1xx_hal_adc.c ****   /* Disable ADC peripheral */
1168:Drivers/STM32L1xx_HAL_Driver/Src/stm32l1xx_hal_adc.c ****   tmp_hal_status = ADC_ConversionStop_Disable(hadc);
1169:Drivers/STM32L1xx_HAL_Driver/Src/stm32l1xx_hal_adc.c ****   
1170:Drivers/STM32L1xx_HAL_Driver/Src/stm32l1xx_hal_adc.c ****   /* Check if ADC is effectively disabled */
1171:Drivers/STM32L1xx_HAL_Driver/Src/stm32l1xx_hal_adc.c ****   if (tmp_hal_status == HAL_OK)
1172:Drivers/STM32L1xx_HAL_Driver/Src/stm32l1xx_hal_adc.c ****   {
1173:Drivers/STM32L1xx_HAL_Driver/Src/stm32l1xx_hal_adc.c ****     /* Set ADC state */
1174:Drivers/STM32L1xx_HAL_Driver/Src/stm32l1xx_hal_adc.c ****     ADC_STATE_CLR_SET(hadc->State,
1175:Drivers/STM32L1xx_HAL_Driver/Src/stm32l1xx_hal_adc.c ****                       HAL_ADC_STATE_REG_BUSY | HAL_ADC_STATE_INJ_BUSY,
1176:Drivers/STM32L1xx_HAL_Driver/Src/stm32l1xx_hal_adc.c ****                       HAL_ADC_STATE_READY);
1177:Drivers/STM32L1xx_HAL_Driver/Src/stm32l1xx_hal_adc.c ****   }
1178:Drivers/STM32L1xx_HAL_Driver/Src/stm32l1xx_hal_adc.c ****   
1179:Drivers/STM32L1xx_HAL_Driver/Src/stm32l1xx_hal_adc.c ****   /* Process unlocked */
1180:Drivers/STM32L1xx_HAL_Driver/Src/stm32l1xx_hal_adc.c ****   __HAL_UNLOCK(hadc);
1181:Drivers/STM32L1xx_HAL_Driver/Src/stm32l1xx_hal_adc.c ****   
1182:Drivers/STM32L1xx_HAL_Driver/Src/stm32l1xx_hal_adc.c ****   /* Return function status */
1183:Drivers/STM32L1xx_HAL_Driver/Src/stm32l1xx_hal_adc.c ****   return tmp_hal_status;
1184:Drivers/STM32L1xx_HAL_Driver/Src/stm32l1xx_hal_adc.c **** }
1185:Drivers/STM32L1xx_HAL_Driver/Src/stm32l1xx_hal_adc.c **** 
1186:Drivers/STM32L1xx_HAL_Driver/Src/stm32l1xx_hal_adc.c **** /**
1187:Drivers/STM32L1xx_HAL_Driver/Src/stm32l1xx_hal_adc.c ****   * @brief  Wait for regular group conversion to be completed.
1188:Drivers/STM32L1xx_HAL_Driver/Src/stm32l1xx_hal_adc.c ****   * @note   ADC conversion flags EOS (end of sequence) and EOC (end of
1189:Drivers/STM32L1xx_HAL_Driver/Src/stm32l1xx_hal_adc.c ****   *         conversion) are cleared by this function, with an exception:
ARM GAS  C:\Users\cedri\AppData\Local\Temp\cc9WRHZF.s 			page 50


1190:Drivers/STM32L1xx_HAL_Driver/Src/stm32l1xx_hal_adc.c ****   *         if low power feature "LowPowerAutoWait" is enabled, flags are 
1191:Drivers/STM32L1xx_HAL_Driver/Src/stm32l1xx_hal_adc.c ****   *         not cleared to not interfere with this feature until data register
1192:Drivers/STM32L1xx_HAL_Driver/Src/stm32l1xx_hal_adc.c ****   *         is read using function HAL_ADC_GetValue().
1193:Drivers/STM32L1xx_HAL_Driver/Src/stm32l1xx_hal_adc.c ****   * @note   This function cannot be used in a particular setup: ADC configured 
1194:Drivers/STM32L1xx_HAL_Driver/Src/stm32l1xx_hal_adc.c ****   *         in DMA mode and polling for end of each conversion (ADC init
1195:Drivers/STM32L1xx_HAL_Driver/Src/stm32l1xx_hal_adc.c ****   *         parameter "EOCSelection" set to ADC_EOC_SINGLE_CONV).
1196:Drivers/STM32L1xx_HAL_Driver/Src/stm32l1xx_hal_adc.c ****   *         In this case, DMA resets the flag EOC and polling cannot be
1197:Drivers/STM32L1xx_HAL_Driver/Src/stm32l1xx_hal_adc.c ****   *         performed on each conversion. Nevertheless, polling can still 
1198:Drivers/STM32L1xx_HAL_Driver/Src/stm32l1xx_hal_adc.c ****   *         be performed on the complete sequence (ADC init
1199:Drivers/STM32L1xx_HAL_Driver/Src/stm32l1xx_hal_adc.c ****   *         parameter "EOCSelection" set to ADC_EOC_SEQ_CONV).
1200:Drivers/STM32L1xx_HAL_Driver/Src/stm32l1xx_hal_adc.c ****   * @param  hadc ADC handle
1201:Drivers/STM32L1xx_HAL_Driver/Src/stm32l1xx_hal_adc.c ****   * @param  Timeout Timeout value in millisecond.
1202:Drivers/STM32L1xx_HAL_Driver/Src/stm32l1xx_hal_adc.c ****   * @retval HAL status
1203:Drivers/STM32L1xx_HAL_Driver/Src/stm32l1xx_hal_adc.c ****   */
1204:Drivers/STM32L1xx_HAL_Driver/Src/stm32l1xx_hal_adc.c **** HAL_StatusTypeDef HAL_ADC_PollForConversion(ADC_HandleTypeDef* hadc, uint32_t Timeout)
1205:Drivers/STM32L1xx_HAL_Driver/Src/stm32l1xx_hal_adc.c **** {
 491              		.loc 1 1205 1 is_stmt 1 view -0
 492              		.cfi_startproc
 493              		@ args = 0, pretend = 0, frame = 0
 494              		@ frame_needed = 0, uses_anonymous_args = 0
 495              		.loc 1 1205 1 is_stmt 0 view .LVU138
 496 0000 70B5     		push	{r4, r5, r6, lr}
 497              	.LCFI5:
 498              		.cfi_def_cfa_offset 16
 499              		.cfi_offset 4, -16
 500              		.cfi_offset 5, -12
 501              		.cfi_offset 6, -8
 502              		.cfi_offset 14, -4
 503 0002 0446     		mov	r4, r0
 504 0004 0D46     		mov	r5, r1
1206:Drivers/STM32L1xx_HAL_Driver/Src/stm32l1xx_hal_adc.c ****   uint32_t tickstart = 0;
 505              		.loc 1 1206 3 is_stmt 1 view .LVU139
 506              	.LVL33:
1207:Drivers/STM32L1xx_HAL_Driver/Src/stm32l1xx_hal_adc.c ****  
1208:Drivers/STM32L1xx_HAL_Driver/Src/stm32l1xx_hal_adc.c ****   /* Check the parameters */
1209:Drivers/STM32L1xx_HAL_Driver/Src/stm32l1xx_hal_adc.c ****   assert_param(IS_ADC_ALL_INSTANCE(hadc->Instance));
 507              		.loc 1 1209 3 view .LVU140
1210:Drivers/STM32L1xx_HAL_Driver/Src/stm32l1xx_hal_adc.c ****   
1211:Drivers/STM32L1xx_HAL_Driver/Src/stm32l1xx_hal_adc.c ****   /* Verification that ADC configuration is compliant with polling for      */
1212:Drivers/STM32L1xx_HAL_Driver/Src/stm32l1xx_hal_adc.c ****   /* each conversion:                                                       */
1213:Drivers/STM32L1xx_HAL_Driver/Src/stm32l1xx_hal_adc.c ****   /* Particular case is ADC configured in DMA mode and ADC sequencer with   */
1214:Drivers/STM32L1xx_HAL_Driver/Src/stm32l1xx_hal_adc.c ****   /* several ranks and polling for end of each conversion.                  */
1215:Drivers/STM32L1xx_HAL_Driver/Src/stm32l1xx_hal_adc.c ****   /* For code simplicity sake, this particular case is generalized to       */
1216:Drivers/STM32L1xx_HAL_Driver/Src/stm32l1xx_hal_adc.c ****   /* ADC configured in DMA mode and and polling for end of each conversion. */
1217:Drivers/STM32L1xx_HAL_Driver/Src/stm32l1xx_hal_adc.c ****   if (HAL_IS_BIT_SET(hadc->Instance->CR2, ADC_CR2_EOCS) &&
 508              		.loc 1 1217 3 view .LVU141
 509              		.loc 1 1217 7 is_stmt 0 view .LVU142
 510 0006 0368     		ldr	r3, [r0]
 511 0008 9A68     		ldr	r2, [r3, #8]
 512              		.loc 1 1217 6 view .LVU143
 513 000a 12F4806F 		tst	r2, #1024
 514 000e 03D0     		beq	.L29
1218:Drivers/STM32L1xx_HAL_Driver/Src/stm32l1xx_hal_adc.c ****       HAL_IS_BIT_SET(hadc->Instance->CR2, ADC_CR2_DMA)    )
 515              		.loc 1 1218 7 discriminator 1 view .LVU144
 516 0010 9B68     		ldr	r3, [r3, #8]
1217:Drivers/STM32L1xx_HAL_Driver/Src/stm32l1xx_hal_adc.c ****       HAL_IS_BIT_SET(hadc->Instance->CR2, ADC_CR2_DMA)    )
 517              		.loc 1 1217 57 discriminator 1 view .LVU145
ARM GAS  C:\Users\cedri\AppData\Local\Temp\cc9WRHZF.s 			page 51


 518 0012 13F4807F 		tst	r3, #256
 519 0016 19D1     		bne	.L41
 520              	.L29:
1219:Drivers/STM32L1xx_HAL_Driver/Src/stm32l1xx_hal_adc.c ****   {
1220:Drivers/STM32L1xx_HAL_Driver/Src/stm32l1xx_hal_adc.c ****     /* Update ADC state machine to error */
1221:Drivers/STM32L1xx_HAL_Driver/Src/stm32l1xx_hal_adc.c ****     SET_BIT(hadc->State, HAL_ADC_STATE_ERROR_CONFIG);
1222:Drivers/STM32L1xx_HAL_Driver/Src/stm32l1xx_hal_adc.c ****     
1223:Drivers/STM32L1xx_HAL_Driver/Src/stm32l1xx_hal_adc.c ****     /* Process unlocked */
1224:Drivers/STM32L1xx_HAL_Driver/Src/stm32l1xx_hal_adc.c ****     __HAL_UNLOCK(hadc);
1225:Drivers/STM32L1xx_HAL_Driver/Src/stm32l1xx_hal_adc.c ****     
1226:Drivers/STM32L1xx_HAL_Driver/Src/stm32l1xx_hal_adc.c ****     return HAL_ERROR;
1227:Drivers/STM32L1xx_HAL_Driver/Src/stm32l1xx_hal_adc.c ****   }
1228:Drivers/STM32L1xx_HAL_Driver/Src/stm32l1xx_hal_adc.c **** 
1229:Drivers/STM32L1xx_HAL_Driver/Src/stm32l1xx_hal_adc.c ****   /* Get tick count */
1230:Drivers/STM32L1xx_HAL_Driver/Src/stm32l1xx_hal_adc.c ****   tickstart = HAL_GetTick();
 521              		.loc 1 1230 3 is_stmt 1 view .LVU146
 522              		.loc 1 1230 15 is_stmt 0 view .LVU147
 523 0018 FFF7FEFF 		bl	HAL_GetTick
 524              	.LVL34:
 525              		.loc 1 1230 15 view .LVU148
 526 001c 0646     		mov	r6, r0
 527              	.LVL35:
1231:Drivers/STM32L1xx_HAL_Driver/Src/stm32l1xx_hal_adc.c ****   
1232:Drivers/STM32L1xx_HAL_Driver/Src/stm32l1xx_hal_adc.c ****   /* Wait until End of Conversion flag is raised */
1233:Drivers/STM32L1xx_HAL_Driver/Src/stm32l1xx_hal_adc.c ****   while(HAL_IS_BIT_CLR(hadc->Instance->SR, ADC_FLAG_EOC))
 528              		.loc 1 1233 3 is_stmt 1 view .LVU149
 529              	.L32:
 530              		.loc 1 1233 9 view .LVU150
 531 001e 2368     		ldr	r3, [r4]
 532 0020 1A68     		ldr	r2, [r3]
 533 0022 12F0020F 		tst	r2, #2
 534 0026 20D1     		bne	.L42
1234:Drivers/STM32L1xx_HAL_Driver/Src/stm32l1xx_hal_adc.c ****   {
1235:Drivers/STM32L1xx_HAL_Driver/Src/stm32l1xx_hal_adc.c ****     /* Check if timeout is disabled (set to infinite wait) */
1236:Drivers/STM32L1xx_HAL_Driver/Src/stm32l1xx_hal_adc.c ****     if(Timeout != HAL_MAX_DELAY)
 535              		.loc 1 1236 5 view .LVU151
 536              		.loc 1 1236 7 is_stmt 0 view .LVU152
 537 0028 B5F1FF3F 		cmp	r5, #-1
 538 002c F7D0     		beq	.L32
1237:Drivers/STM32L1xx_HAL_Driver/Src/stm32l1xx_hal_adc.c ****     {
1238:Drivers/STM32L1xx_HAL_Driver/Src/stm32l1xx_hal_adc.c ****       if((Timeout == 0) || ((HAL_GetTick() - tickstart ) > Timeout))
 539              		.loc 1 1238 7 is_stmt 1 view .LVU153
 540              		.loc 1 1238 9 is_stmt 0 view .LVU154
 541 002e B5B9     		cbnz	r5, .L43
 542              	.L33:
1239:Drivers/STM32L1xx_HAL_Driver/Src/stm32l1xx_hal_adc.c ****       {
1240:Drivers/STM32L1xx_HAL_Driver/Src/stm32l1xx_hal_adc.c ****         /* New check to avoid false timeout detection in case of preemption */
1241:Drivers/STM32L1xx_HAL_Driver/Src/stm32l1xx_hal_adc.c ****         if(HAL_IS_BIT_CLR(hadc->Instance->SR, ADC_FLAG_EOC))
 543              		.loc 1 1241 9 is_stmt 1 view .LVU155
 544              		.loc 1 1241 12 is_stmt 0 view .LVU156
 545 0030 2368     		ldr	r3, [r4]
 546 0032 1B68     		ldr	r3, [r3]
 547              		.loc 1 1241 11 view .LVU157
 548 0034 13F0020F 		tst	r3, #2
 549 0038 F1D1     		bne	.L32
1242:Drivers/STM32L1xx_HAL_Driver/Src/stm32l1xx_hal_adc.c ****         {
1243:Drivers/STM32L1xx_HAL_Driver/Src/stm32l1xx_hal_adc.c ****           /* Update ADC state machine to timeout */
ARM GAS  C:\Users\cedri\AppData\Local\Temp\cc9WRHZF.s 			page 52


1244:Drivers/STM32L1xx_HAL_Driver/Src/stm32l1xx_hal_adc.c ****           SET_BIT(hadc->State, HAL_ADC_STATE_TIMEOUT);
 550              		.loc 1 1244 11 is_stmt 1 view .LVU158
 551 003a E36C     		ldr	r3, [r4, #76]
 552 003c 43F00403 		orr	r3, r3, #4
 553 0040 E364     		str	r3, [r4, #76]
1245:Drivers/STM32L1xx_HAL_Driver/Src/stm32l1xx_hal_adc.c **** 
1246:Drivers/STM32L1xx_HAL_Driver/Src/stm32l1xx_hal_adc.c ****           /* Process unlocked */
1247:Drivers/STM32L1xx_HAL_Driver/Src/stm32l1xx_hal_adc.c ****           __HAL_UNLOCK(hadc);
 554              		.loc 1 1247 11 view .LVU159
 555              		.loc 1 1247 11 view .LVU160
 556 0042 0023     		movs	r3, #0
 557 0044 84F84830 		strb	r3, [r4, #72]
 558              		.loc 1 1247 11 view .LVU161
1248:Drivers/STM32L1xx_HAL_Driver/Src/stm32l1xx_hal_adc.c **** 
1249:Drivers/STM32L1xx_HAL_Driver/Src/stm32l1xx_hal_adc.c ****           return HAL_TIMEOUT;
 559              		.loc 1 1249 11 view .LVU162
 560              		.loc 1 1249 18 is_stmt 0 view .LVU163
 561 0048 0320     		movs	r0, #3
 562 004a 35E0     		b	.L30
 563              	.LVL36:
 564              	.L41:
1221:Drivers/STM32L1xx_HAL_Driver/Src/stm32l1xx_hal_adc.c ****     
 565              		.loc 1 1221 5 is_stmt 1 view .LVU164
 566 004c C36C     		ldr	r3, [r0, #76]
 567 004e 43F02003 		orr	r3, r3, #32
 568 0052 C364     		str	r3, [r0, #76]
1224:Drivers/STM32L1xx_HAL_Driver/Src/stm32l1xx_hal_adc.c ****     
 569              		.loc 1 1224 5 view .LVU165
1224:Drivers/STM32L1xx_HAL_Driver/Src/stm32l1xx_hal_adc.c ****     
 570              		.loc 1 1224 5 view .LVU166
 571 0054 0023     		movs	r3, #0
 572 0056 80F84830 		strb	r3, [r0, #72]
1224:Drivers/STM32L1xx_HAL_Driver/Src/stm32l1xx_hal_adc.c ****     
 573              		.loc 1 1224 5 view .LVU167
1226:Drivers/STM32L1xx_HAL_Driver/Src/stm32l1xx_hal_adc.c ****   }
 574              		.loc 1 1226 5 view .LVU168
1226:Drivers/STM32L1xx_HAL_Driver/Src/stm32l1xx_hal_adc.c ****   }
 575              		.loc 1 1226 12 is_stmt 0 view .LVU169
 576 005a 0120     		movs	r0, #1
 577              	.LVL37:
1226:Drivers/STM32L1xx_HAL_Driver/Src/stm32l1xx_hal_adc.c ****   }
 578              		.loc 1 1226 12 view .LVU170
 579 005c 2CE0     		b	.L30
 580              	.LVL38:
 581              	.L43:
1238:Drivers/STM32L1xx_HAL_Driver/Src/stm32l1xx_hal_adc.c ****       {
 582              		.loc 1 1238 30 discriminator 1 view .LVU171
 583 005e FFF7FEFF 		bl	HAL_GetTick
 584              	.LVL39:
1238:Drivers/STM32L1xx_HAL_Driver/Src/stm32l1xx_hal_adc.c ****       {
 585              		.loc 1 1238 44 discriminator 1 view .LVU172
 586 0062 801B     		subs	r0, r0, r6
1238:Drivers/STM32L1xx_HAL_Driver/Src/stm32l1xx_hal_adc.c ****       {
 587              		.loc 1 1238 25 discriminator 1 view .LVU173
 588 0064 A842     		cmp	r0, r5
 589 0066 DAD9     		bls	.L32
 590 0068 E2E7     		b	.L33
ARM GAS  C:\Users\cedri\AppData\Local\Temp\cc9WRHZF.s 			page 53


 591              	.L42:
1250:Drivers/STM32L1xx_HAL_Driver/Src/stm32l1xx_hal_adc.c ****         }
1251:Drivers/STM32L1xx_HAL_Driver/Src/stm32l1xx_hal_adc.c ****       }
1252:Drivers/STM32L1xx_HAL_Driver/Src/stm32l1xx_hal_adc.c ****     }
1253:Drivers/STM32L1xx_HAL_Driver/Src/stm32l1xx_hal_adc.c ****   }
1254:Drivers/STM32L1xx_HAL_Driver/Src/stm32l1xx_hal_adc.c ****   
1255:Drivers/STM32L1xx_HAL_Driver/Src/stm32l1xx_hal_adc.c ****   /* Clear end of conversion flag of regular group if low power feature     */
1256:Drivers/STM32L1xx_HAL_Driver/Src/stm32l1xx_hal_adc.c ****   /* "Auto Wait" is disabled, to not interfere with this feature until data */
1257:Drivers/STM32L1xx_HAL_Driver/Src/stm32l1xx_hal_adc.c ****   /* register is read using function HAL_ADC_GetValue().                    */
1258:Drivers/STM32L1xx_HAL_Driver/Src/stm32l1xx_hal_adc.c ****   if (hadc->Init.LowPowerAutoWait == DISABLE)
 592              		.loc 1 1258 3 is_stmt 1 view .LVU174
 593              		.loc 1 1258 17 is_stmt 0 view .LVU175
 594 006a A269     		ldr	r2, [r4, #24]
 595              		.loc 1 1258 6 view .LVU176
 596 006c 12B9     		cbnz	r2, .L36
1259:Drivers/STM32L1xx_HAL_Driver/Src/stm32l1xx_hal_adc.c ****   {
1260:Drivers/STM32L1xx_HAL_Driver/Src/stm32l1xx_hal_adc.c ****     /* Clear regular group conversion flag */
1261:Drivers/STM32L1xx_HAL_Driver/Src/stm32l1xx_hal_adc.c ****     __HAL_ADC_CLEAR_FLAG(hadc, ADC_FLAG_STRT | ADC_FLAG_EOC);
 597              		.loc 1 1261 5 is_stmt 1 view .LVU177
 598 006e 6FF01202 		mvn	r2, #18
 599 0072 1A60     		str	r2, [r3]
 600              	.L36:
1262:Drivers/STM32L1xx_HAL_Driver/Src/stm32l1xx_hal_adc.c ****   }
1263:Drivers/STM32L1xx_HAL_Driver/Src/stm32l1xx_hal_adc.c ****   
1264:Drivers/STM32L1xx_HAL_Driver/Src/stm32l1xx_hal_adc.c ****   /* Update ADC state machine */
1265:Drivers/STM32L1xx_HAL_Driver/Src/stm32l1xx_hal_adc.c ****   SET_BIT(hadc->State, HAL_ADC_STATE_REG_EOC);
 601              		.loc 1 1265 3 view .LVU178
 602 0074 E36C     		ldr	r3, [r4, #76]
 603 0076 43F40073 		orr	r3, r3, #512
 604 007a E364     		str	r3, [r4, #76]
1266:Drivers/STM32L1xx_HAL_Driver/Src/stm32l1xx_hal_adc.c ****   
1267:Drivers/STM32L1xx_HAL_Driver/Src/stm32l1xx_hal_adc.c ****   /* Determine whether any further conversion upcoming on group regular       */
1268:Drivers/STM32L1xx_HAL_Driver/Src/stm32l1xx_hal_adc.c ****   /* by external trigger, continuous mode or scan sequence on going.          */
1269:Drivers/STM32L1xx_HAL_Driver/Src/stm32l1xx_hal_adc.c ****   /* Note: On STM32L1, there is no independent flag of end of sequence.       */
1270:Drivers/STM32L1xx_HAL_Driver/Src/stm32l1xx_hal_adc.c ****   /*       The test of scan sequence on going is done either with scan        */
1271:Drivers/STM32L1xx_HAL_Driver/Src/stm32l1xx_hal_adc.c ****   /*       sequence disabled or with end of conversion flag set to            */
1272:Drivers/STM32L1xx_HAL_Driver/Src/stm32l1xx_hal_adc.c ****   /*       of end of sequence.                                                */
1273:Drivers/STM32L1xx_HAL_Driver/Src/stm32l1xx_hal_adc.c ****   if(ADC_IS_SOFTWARE_START_REGULAR(hadc)                   &&
 605              		.loc 1 1273 3 view .LVU179
 606              		.loc 1 1273 6 is_stmt 0 view .LVU180
 607 007c 2368     		ldr	r3, [r4]
 608 007e 9A68     		ldr	r2, [r3, #8]
 609              		.loc 1 1273 5 view .LVU181
 610 0080 12F0405F 		tst	r2, #805306368
 611 0084 17D1     		bne	.L38
1274:Drivers/STM32L1xx_HAL_Driver/Src/stm32l1xx_hal_adc.c ****      (hadc->Init.ContinuousConvMode == DISABLE)            &&
 612              		.loc 1 1274 17 discriminator 1 view .LVU182
 613 0086 94F82400 		ldrb	r0, [r4, #36]	@ zero_extendqisi2
1273:Drivers/STM32L1xx_HAL_Driver/Src/stm32l1xx_hal_adc.c ****      (hadc->Init.ContinuousConvMode == DISABLE)            &&
 614              		.loc 1 1273 60 discriminator 1 view .LVU183
 615 008a B0B9     		cbnz	r0, .L39
1275:Drivers/STM32L1xx_HAL_Driver/Src/stm32l1xx_hal_adc.c ****      (HAL_IS_BIT_CLR(hadc->Instance->SQR1, ADC_SQR1_L) ||
 616              		.loc 1 1275 7 view .LVU184
 617 008c 1A6B     		ldr	r2, [r3, #48]
1274:Drivers/STM32L1xx_HAL_Driver/Src/stm32l1xx_hal_adc.c ****      (hadc->Init.ContinuousConvMode == DISABLE)            &&
 618              		.loc 1 1274 60 view .LVU185
 619 008e 12F0F87F 		tst	r2, #32505856
ARM GAS  C:\Users\cedri\AppData\Local\Temp\cc9WRHZF.s 			page 54


 620 0092 03D0     		beq	.L37
1276:Drivers/STM32L1xx_HAL_Driver/Src/stm32l1xx_hal_adc.c ****       HAL_IS_BIT_CLR(hadc->Instance->CR2, ADC_CR2_EOCS)  )   )
 621              		.loc 1 1276 7 view .LVU186
 622 0094 9B68     		ldr	r3, [r3, #8]
1275:Drivers/STM32L1xx_HAL_Driver/Src/stm32l1xx_hal_adc.c ****      (HAL_IS_BIT_CLR(hadc->Instance->SQR1, ADC_SQR1_L) ||
 623              		.loc 1 1275 56 view .LVU187
 624 0096 13F4806F 		tst	r3, #1024
 625 009a 0DD1     		bne	.L30
 626              	.L37:
1277:Drivers/STM32L1xx_HAL_Driver/Src/stm32l1xx_hal_adc.c ****   {
1278:Drivers/STM32L1xx_HAL_Driver/Src/stm32l1xx_hal_adc.c ****     /* Set ADC state */
1279:Drivers/STM32L1xx_HAL_Driver/Src/stm32l1xx_hal_adc.c ****     CLEAR_BIT(hadc->State, HAL_ADC_STATE_REG_BUSY);   
 627              		.loc 1 1279 5 is_stmt 1 view .LVU188
 628 009c E36C     		ldr	r3, [r4, #76]
 629 009e 23F48073 		bic	r3, r3, #256
 630 00a2 E364     		str	r3, [r4, #76]
1280:Drivers/STM32L1xx_HAL_Driver/Src/stm32l1xx_hal_adc.c ****     
1281:Drivers/STM32L1xx_HAL_Driver/Src/stm32l1xx_hal_adc.c ****     if (HAL_IS_BIT_CLR(hadc->State, HAL_ADC_STATE_INJ_BUSY))
 631              		.loc 1 1281 5 view .LVU189
 632              		.loc 1 1281 9 is_stmt 0 view .LVU190
 633 00a4 E36C     		ldr	r3, [r4, #76]
 634              		.loc 1 1281 8 view .LVU191
 635 00a6 13F4805F 		tst	r3, #4096
 636 00aa 05D1     		bne	.L30
1282:Drivers/STM32L1xx_HAL_Driver/Src/stm32l1xx_hal_adc.c ****     { 
1283:Drivers/STM32L1xx_HAL_Driver/Src/stm32l1xx_hal_adc.c ****       SET_BIT(hadc->State, HAL_ADC_STATE_READY);
 637              		.loc 1 1283 7 is_stmt 1 view .LVU192
 638 00ac E36C     		ldr	r3, [r4, #76]
 639 00ae 43F00103 		orr	r3, r3, #1
 640 00b2 E364     		str	r3, [r4, #76]
 641 00b4 00E0     		b	.L30
 642              	.L38:
1284:Drivers/STM32L1xx_HAL_Driver/Src/stm32l1xx_hal_adc.c ****     }
1285:Drivers/STM32L1xx_HAL_Driver/Src/stm32l1xx_hal_adc.c ****   }
1286:Drivers/STM32L1xx_HAL_Driver/Src/stm32l1xx_hal_adc.c ****   
1287:Drivers/STM32L1xx_HAL_Driver/Src/stm32l1xx_hal_adc.c ****   /* Return ADC state */
1288:Drivers/STM32L1xx_HAL_Driver/Src/stm32l1xx_hal_adc.c ****   return HAL_OK;
 643              		.loc 1 1288 10 is_stmt 0 view .LVU193
 644 00b6 0020     		movs	r0, #0
 645              	.LVL40:
 646              	.L30:
1289:Drivers/STM32L1xx_HAL_Driver/Src/stm32l1xx_hal_adc.c **** }
 647              		.loc 1 1289 1 view .LVU194
 648 00b8 70BD     		pop	{r4, r5, r6, pc}
 649              	.LVL41:
 650              	.L39:
1288:Drivers/STM32L1xx_HAL_Driver/Src/stm32l1xx_hal_adc.c **** }
 651              		.loc 1 1288 10 view .LVU195
 652 00ba 0020     		movs	r0, #0
 653 00bc FCE7     		b	.L30
 654              		.cfi_endproc
 655              	.LFE78:
 657              		.section	.text.HAL_ADC_PollForEvent,"ax",%progbits
 658              		.align	1
 659              		.global	HAL_ADC_PollForEvent
 660              		.syntax unified
 661              		.thumb
ARM GAS  C:\Users\cedri\AppData\Local\Temp\cc9WRHZF.s 			page 55


 662              		.thumb_func
